---
triple:          'arm64-apple-darwin'
binary-path:     'bin/app'
relocations:
  - { offsetInCU: 0x3F, offset: 0x3F, size: 0x8, addend: 0x0, symName: __ZL13cube_vertices, symObjAddr: 0x12BE40, symBinAddr: 0x100603E40, symSize: 0x0 }
  - { offsetInCU: 0x1BF6B, offset: 0x1BF6B, size: 0x8, addend: 0x0, symName: __ZNSt3__111make_uniqueB8ue170006I7SWindowJEEENS_11__unique_ifIT_E15__unique_singleEDpOT0_, symObjAddr: 0x7DC, symBinAddr: 0x1000023D4, symSize: 0x64 }
  - { offsetInCU: 0x1BF98, offset: 0x1BF98, size: 0x8, addend: 0x0, symName: __ZNSt3__122__make_exception_guardB8ue170006INS_6vectorIfNS_9allocatorIfEEE16__destroy_vectorEEENS_28__exception_guard_exceptionsIT_EES7_, symObjAddr: 0x1290, symBinAddr: 0x100002E88, symSize: 0x278 }
  - { offsetInCU: 0x1BFD1, offset: 0x1BFD1, size: 0x8, addend: 0x0, symName: __ZNSt3__119__allocate_at_leastB8ue170006INS_9allocatorIfEEEENS_19__allocation_resultINS_16allocator_traitsIT_E7pointerEEERS5_m, symObjAddr: 0x2838, symBinAddr: 0x100004430, symSize: 0x28C }
  - { offsetInCU: 0x1C016, offset: 0x1C016, size: 0x8, addend: 0x0, symName: __ZNSt3__13minB8ue170006ImEERKT_S3_S3_, symObjAddr: 0x2BD4, symBinAddr: 0x1000047CC, symSize: 0x2C }
  - { offsetInCU: 0x1C243, offset: 0x1C243, size: 0x8, addend: 0x0, symName: __ZNSt3__13minB8ue170006ImNS_6__lessIvvEEEERKT_S5_S5_T0_, symObjAddr: 0x2C60, symBinAddr: 0x100004858, symSize: 0x1E8 }
  - { offsetInCU: 0x1C2E8, offset: 0x1C2E8, size: 0x8, addend: 0x0, symName: __ZNSt3__120__throw_length_errorB8ue170006EPKc, symObjAddr: 0x2F58, symBinAddr: 0x100004B50, symSize: 0x68 }
  - { offsetInCU: 0x1C312, offset: 0x1C312, size: 0x8, addend: 0x0, symName: __ZNSt3__117__libcpp_allocateB8ue170006Emm, symObjAddr: 0x3114, symBinAddr: 0x100004D0C, symSize: 0x60 }
  - { offsetInCU: 0x1C36C, offset: 0x1C36C, size: 0x8, addend: 0x0, symName: __ZNSt3__124__is_overaligned_for_newB8ue170006Em, symObjAddr: 0x3174, symBinAddr: 0x100004D6C, symSize: 0x20 }
  - { offsetInCU: 0x1C39A, offset: 0x1C39A, size: 0x8, addend: 0x0, symName: __ZNSt3__121__libcpp_operator_newB8ue170006IJmSt11align_val_tEEEPvDpT_, symObjAddr: 0x3194, symBinAddr: 0x100004D8C, symSize: 0x2C }
  - { offsetInCU: 0x1C3E7, offset: 0x1C3E7, size: 0x8, addend: 0x0, symName: __ZNSt3__121__libcpp_operator_newB8ue170006IJmEEEPvDpT_, symObjAddr: 0x31C0, symBinAddr: 0x100004DB8, symSize: 0x24 }
  - { offsetInCU: 0x1C420, offset: 0x1C420, size: 0x8, addend: 0x0, symName: __ZNSt3__112__to_addressB8ue170006IfEEPT_S2_, symObjAddr: 0x33CC, symBinAddr: 0x100004FC4, symSize: 0x14 }
  - { offsetInCU: 0x1C455, offset: 0x1C455, size: 0x8, addend: 0x0, symName: __ZNSt3__130__uninitialized_allocator_copyB8ue170006INS_9allocatorIfEEPKfS4_PfEET2_RT_T0_T1_S6_, symObjAddr: 0x347C, symBinAddr: 0x100005074, symSize: 0x2DC }
  - { offsetInCU: 0x1C4FB, offset: 0x1C4FB, size: 0x8, addend: 0x0, symName: __ZNSt3__114__unwrap_rangeB8ue170006IPKfS2_EENS_4pairIT0_S4_EET_S6_, symObjAddr: 0x3ADC, symBinAddr: 0x1000056D4, symSize: 0x350 }
  - { offsetInCU: 0x1C549, offset: 0x1C549, size: 0x8, addend: 0x0, symName: __ZNSt3__135__uninitialized_allocator_copy_implB8ue170006INS_9allocatorIfEEKfffLPv0EEEPT2_RT_PT0_SA_S6_, symObjAddr: 0x3E2C, symBinAddr: 0x100005A24, symSize: 0x38 }
  - { offsetInCU: 0x1C5CA, offset: 0x1C5CA, size: 0x8, addend: 0x0, symName: __ZNSt3__113__unwrap_iterB8ue170006IPfNS_18__unwrap_iter_implIS1_Lb1EEELi0EEEDTclsrT0_8__unwrapclsr3stdE7declvalIT_EEEES5_, symObjAddr: 0x3E64, symBinAddr: 0x100005A5C, symSize: 0x24 }
  - { offsetInCU: 0x1C60E, offset: 0x1C60E, size: 0x8, addend: 0x0, symName: __ZNSt3__113__rewrap_iterB8ue170006IPfS1_NS_18__unwrap_iter_implIS1_Lb1EEEEET_S4_T0_, symObjAddr: 0x3E88, symBinAddr: 0x100005A80, symSize: 0x48 }
  - { offsetInCU: 0x1C663, offset: 0x1C663, size: 0x8, addend: 0x0, symName: __ZNSt3__19make_pairB8ue170006IPKfS2_EENS_4pairINS_18__unwrap_ref_decayIT_E4typeENS4_IT0_E4typeEEEOS5_OS8_, symObjAddr: 0x3ED0, symBinAddr: 0x100005AC8, symSize: 0x20C }
  - { offsetInCU: 0x1C6B4, offset: 0x1C6B4, size: 0x8, addend: 0x0, symName: __ZNSt3__113__unwrap_iterB8ue170006IPKfNS_18__unwrap_iter_implIS2_Lb1EEELi0EEEDTclsrT0_8__unwrapclsr3stdE7declvalIT_EEEES6_, symObjAddr: 0x40DC, symBinAddr: 0x100005CD4, symSize: 0x24 }
  - { offsetInCU: 0x1C81F, offset: 0x1C81F, size: 0x8, addend: 0x0, symName: __ZNSt3__112__to_addressB8ue170006IKfEEPT_S3_, symObjAddr: 0x4298, symBinAddr: 0x100005E90, symSize: 0x14 }
  - { offsetInCU: 0x1C854, offset: 0x1C854, size: 0x8, addend: 0x0, symName: __ZNSt3__14copyB8ue170006IPKfPfEET0_T_S5_S4_, symObjAddr: 0x42AC, symBinAddr: 0x100005EA4, symSize: 0x26C }
  - { offsetInCU: 0x1C8B1, offset: 0x1C8B1, size: 0x8, addend: 0x0, symName: __ZNSt3__16__copyB8ue170006INS_17_ClassicAlgPolicyEPKfS3_PfEENS_4pairIT0_T2_EES6_T1_S7_, symObjAddr: 0x4518, symBinAddr: 0x100006110, symSize: 0x22C }
  - { offsetInCU: 0x1C920, offset: 0x1C920, size: 0x8, addend: 0x0, symName: __ZNSt3__123__dispatch_copy_or_moveB8ue170006INS_17_ClassicAlgPolicyENS_11__copy_loopIS1_EENS_14__copy_trivialEPKfS6_PfEENS_4pairIT2_T4_EES9_T3_SA_, symObjAddr: 0x4744, symBinAddr: 0x10000633C, symSize: 0x22C }
  - { offsetInCU: 0x1C9A1, offset: 0x1C9A1, size: 0x8, addend: 0x0, symName: __ZNSt3__121__unwrap_and_dispatchB8ue170006INS_10__overloadINS_11__copy_loopINS_17_ClassicAlgPolicyEEENS_14__copy_trivialEEEPKfS8_PfLi0EEENS_4pairIT0_T2_EESB_T1_SC_, symObjAddr: 0x4970, symBinAddr: 0x100006568, symSize: 0x5A4 }
  - { offsetInCU: 0x1CBBF, offset: 0x1CBBF, size: 0x8, addend: 0x0, symName: __ZNSt3__19make_pairB8ue170006IPKfPfEENS_4pairINS_18__unwrap_ref_decayIT_E4typeENS5_IT0_E4typeEEEOS6_OS9_, symObjAddr: 0x5144, symBinAddr: 0x100006D3C, symSize: 0x20C }
  - { offsetInCU: 0x1CC10, offset: 0x1CC10, size: 0x8, addend: 0x0, symName: __ZNSt3__114__rewrap_rangeB8ue170006IPKfS2_EET_S3_T0_, symObjAddr: 0x5350, symBinAddr: 0x100006F48, symSize: 0x2C }
  - { offsetInCU: 0x1CC5C, offset: 0x1CC5C, size: 0x8, addend: 0x0, symName: __ZNSt3__119__copy_trivial_implB8ue170006IKffEENS_4pairIPT_PT0_EES4_S4_S6_, symObjAddr: 0x537C, symBinAddr: 0x100006F74, symSize: 0x3B4 }
  - { offsetInCU: 0x1CCCB, offset: 0x1CCCB, size: 0x8, addend: 0x0, symName: __ZNSt3__119__constexpr_memmoveB8ue170006IfKfLi0EEEPT_S3_PT0_NS_15__element_countE, symObjAddr: 0x5730, symBinAddr: 0x100007328, symSize: 0x64 }
  - { offsetInCU: 0x1CD39, offset: 0x1CD39, size: 0x8, addend: 0x0, symName: __ZNSt3__19make_pairB8ue170006IRPKfPfEENS_4pairINS_18__unwrap_ref_decayIT_E4typeENS6_IT0_E4typeEEEOS7_OSA_, symObjAddr: 0x5794, symBinAddr: 0x10000738C, symSize: 0x20C }
  - { offsetInCU: 0x1CD8A, offset: 0x1CD8A, size: 0x8, addend: 0x0, symName: __ZNSt3__113__rewrap_iterB8ue170006IPKfS2_NS_18__unwrap_iter_implIS2_Lb1EEEEET_S5_T0_, symObjAddr: 0x5C88, symBinAddr: 0x100007880, symSize: 0x48 }
  - { offsetInCU: 0x1CE32, offset: 0x1CE32, size: 0x8, addend: 0x0, symName: __ZNSt3__119__libcpp_deallocateB8ue170006EPvmm, symObjAddr: 0x66BC, symBinAddr: 0x1000082B4, symSize: 0x60 }
  - { offsetInCU: 0x1CE97, offset: 0x1CE97, size: 0x8, addend: 0x0, symName: __ZNSt3__127__do_deallocate_handle_sizeB8ue170006IJSt11align_val_tEEEvPvmDpT_, symObjAddr: 0x671C, symBinAddr: 0x100008314, symSize: 0x30 }
  - { offsetInCU: 0x1CEEA, offset: 0x1CEEA, size: 0x8, addend: 0x0, symName: __ZNSt3__127__do_deallocate_handle_sizeB8ue170006IJEEEvPvmDpT_, symObjAddr: 0x674C, symBinAddr: 0x100008344, symSize: 0x28 }
  - { offsetInCU: 0x1CF28, offset: 0x1CF28, size: 0x8, addend: 0x0, symName: __ZNSt3__124__libcpp_operator_deleteB8ue170006IJPvSt11align_val_tEEEvDpT_, symObjAddr: 0x6774, symBinAddr: 0x10000836C, symSize: 0x2C }
  - { offsetInCU: 0x1CF71, offset: 0x1CF71, size: 0x8, addend: 0x0, symName: __ZNSt3__124__libcpp_operator_deleteB8ue170006IJPvEEEvDpT_, symObjAddr: 0x67A0, symBinAddr: 0x100008398, symSize: 0x24 }
  - { offsetInCU: 0x1CFA6, offset: 0x1CFA6, size: 0x8, addend: 0x0, symName: __ZNSt3__122__make_exception_guardB8ue170006INS_6vectorIjNS_9allocatorIjEEE16__destroy_vectorEEENS_28__exception_guard_exceptionsIT_EES7_, symObjAddr: 0x6F1C, symBinAddr: 0x100008B14, symSize: 0x278 }
  - { offsetInCU: 0x1CFDF, offset: 0x1CFDF, size: 0x8, addend: 0x0, symName: __ZNSt3__119__allocate_at_leastB8ue170006INS_9allocatorIjEEEENS_19__allocation_resultINS_16allocator_traitsIT_E7pointerEEERS5_m, symObjAddr: 0x84C4, symBinAddr: 0x10000A0BC, symSize: 0x28C }
  - { offsetInCU: 0x1D024, offset: 0x1D024, size: 0x8, addend: 0x0, symName: __ZNSt3__112__to_addressB8ue170006IjEEPT_S2_, symObjAddr: 0x8B3C, symBinAddr: 0x10000A734, symSize: 0x14 }
  - { offsetInCU: 0x1D059, offset: 0x1D059, size: 0x8, addend: 0x0, symName: __ZNSt3__130__uninitialized_allocator_copyB8ue170006INS_9allocatorIjEEPKjS4_PjEET2_RT_T0_T1_S6_, symObjAddr: 0x8BEC, symBinAddr: 0x10000A7E4, symSize: 0x2DC }
  - { offsetInCU: 0x1D0FF, offset: 0x1D0FF, size: 0x8, addend: 0x0, symName: __ZNSt3__114__unwrap_rangeB8ue170006IPKjS2_EENS_4pairIT0_S4_EET_S6_, symObjAddr: 0x924C, symBinAddr: 0x10000AE44, symSize: 0x350 }
  - { offsetInCU: 0x1D14D, offset: 0x1D14D, size: 0x8, addend: 0x0, symName: __ZNSt3__135__uninitialized_allocator_copy_implB8ue170006INS_9allocatorIjEEKjjjLPv0EEEPT2_RT_PT0_SA_S6_, symObjAddr: 0x959C, symBinAddr: 0x10000B194, symSize: 0x38 }
  - { offsetInCU: 0x1D1CE, offset: 0x1D1CE, size: 0x8, addend: 0x0, symName: __ZNSt3__113__unwrap_iterB8ue170006IPjNS_18__unwrap_iter_implIS1_Lb1EEELi0EEEDTclsrT0_8__unwrapclsr3stdE7declvalIT_EEEES5_, symObjAddr: 0x95D4, symBinAddr: 0x10000B1CC, symSize: 0x24 }
  - { offsetInCU: 0x1D212, offset: 0x1D212, size: 0x8, addend: 0x0, symName: __ZNSt3__113__rewrap_iterB8ue170006IPjS1_NS_18__unwrap_iter_implIS1_Lb1EEEEET_S4_T0_, symObjAddr: 0x95F8, symBinAddr: 0x10000B1F0, symSize: 0x48 }
  - { offsetInCU: 0x1D267, offset: 0x1D267, size: 0x8, addend: 0x0, symName: __ZNSt3__19make_pairB8ue170006IPKjS2_EENS_4pairINS_18__unwrap_ref_decayIT_E4typeENS4_IT0_E4typeEEEOS5_OS8_, symObjAddr: 0x9640, symBinAddr: 0x10000B238, symSize: 0x20C }
  - { offsetInCU: 0x1D2B8, offset: 0x1D2B8, size: 0x8, addend: 0x0, symName: __ZNSt3__113__unwrap_iterB8ue170006IPKjNS_18__unwrap_iter_implIS2_Lb1EEELi0EEEDTclsrT0_8__unwrapclsr3stdE7declvalIT_EEEES6_, symObjAddr: 0x984C, symBinAddr: 0x10000B444, symSize: 0x24 }
  - { offsetInCU: 0x1D423, offset: 0x1D423, size: 0x8, addend: 0x0, symName: __ZNSt3__112__to_addressB8ue170006IKjEEPT_S3_, symObjAddr: 0x9A08, symBinAddr: 0x10000B600, symSize: 0x14 }
  - { offsetInCU: 0x1D458, offset: 0x1D458, size: 0x8, addend: 0x0, symName: __ZNSt3__14copyB8ue170006IPKjPjEET0_T_S5_S4_, symObjAddr: 0x9A1C, symBinAddr: 0x10000B614, symSize: 0x26C }
  - { offsetInCU: 0x1D4B5, offset: 0x1D4B5, size: 0x8, addend: 0x0, symName: __ZNSt3__16__copyB8ue170006INS_17_ClassicAlgPolicyEPKjS3_PjEENS_4pairIT0_T2_EES6_T1_S7_, symObjAddr: 0x9C88, symBinAddr: 0x10000B880, symSize: 0x22C }
  - { offsetInCU: 0x1D524, offset: 0x1D524, size: 0x8, addend: 0x0, symName: __ZNSt3__123__dispatch_copy_or_moveB8ue170006INS_17_ClassicAlgPolicyENS_11__copy_loopIS1_EENS_14__copy_trivialEPKjS6_PjEENS_4pairIT2_T4_EES9_T3_SA_, symObjAddr: 0x9EB4, symBinAddr: 0x10000BAAC, symSize: 0x22C }
  - { offsetInCU: 0x1D5A5, offset: 0x1D5A5, size: 0x8, addend: 0x0, symName: __ZNSt3__121__unwrap_and_dispatchB8ue170006INS_10__overloadINS_11__copy_loopINS_17_ClassicAlgPolicyEEENS_14__copy_trivialEEEPKjS8_PjLi0EEENS_4pairIT0_T2_EESB_T1_SC_, symObjAddr: 0xA0E0, symBinAddr: 0x10000BCD8, symSize: 0x5A4 }
  - { offsetInCU: 0x1D741, offset: 0x1D741, size: 0x8, addend: 0x0, symName: __ZNSt3__19make_pairB8ue170006IPKjPjEENS_4pairINS_18__unwrap_ref_decayIT_E4typeENS5_IT0_E4typeEEEOS6_OS9_, symObjAddr: 0xA8B4, symBinAddr: 0x10000C4AC, symSize: 0x20C }
  - { offsetInCU: 0x1D792, offset: 0x1D792, size: 0x8, addend: 0x0, symName: __ZNSt3__114__rewrap_rangeB8ue170006IPKjS2_EET_S3_T0_, symObjAddr: 0xAAC0, symBinAddr: 0x10000C6B8, symSize: 0x2C }
  - { offsetInCU: 0x1D7DE, offset: 0x1D7DE, size: 0x8, addend: 0x0, symName: __ZNSt3__119__copy_trivial_implB8ue170006IKjjEENS_4pairIPT_PT0_EES4_S4_S6_, symObjAddr: 0xAAEC, symBinAddr: 0x10000C6E4, symSize: 0x3B4 }
  - { offsetInCU: 0x1D84D, offset: 0x1D84D, size: 0x8, addend: 0x0, symName: __ZNSt3__119__constexpr_memmoveB8ue170006IjKjLi0EEEPT_S3_PT0_NS_15__element_countE, symObjAddr: 0xAEA0, symBinAddr: 0x10000CA98, symSize: 0x64 }
  - { offsetInCU: 0x1D8BB, offset: 0x1D8BB, size: 0x8, addend: 0x0, symName: __ZNSt3__19make_pairB8ue170006IRPKjPjEENS_4pairINS_18__unwrap_ref_decayIT_E4typeENS6_IT0_E4typeEEEOS7_OSA_, symObjAddr: 0xAF04, symBinAddr: 0x10000CAFC, symSize: 0x20C }
  - { offsetInCU: 0x1D90C, offset: 0x1D90C, size: 0x8, addend: 0x0, symName: __ZNSt3__113__rewrap_iterB8ue170006IPKjS2_NS_18__unwrap_iter_implIS2_Lb1EEEEET_S5_T0_, symObjAddr: 0xB3F8, symBinAddr: 0x10000CFF0, symSize: 0x48 }
  - { offsetInCU: 0x1DA74, offset: 0x1DA74, size: 0x8, addend: 0x0, symName: __ZNSt3__17launderB8ue170006INS_4pairIKNS_12basic_stringIcNS_11char_traitsIcEENS_9allocatorIcEEEEP5ModelEEEEPT_SD_, symObjAddr: 0xD048, symBinAddr: 0x10000EC40, symSize: 0x24 }
  - { offsetInCU: 0x1DAAB, offset: 0x1DAAB, size: 0x8, addend: 0x0, symName: __ZNSt3__19__launderB8ue170006INS_4pairIKNS_12basic_stringIcNS_11char_traitsIcEENS_9allocatorIcEEEEP5ModelEEEEPT_SD_, symObjAddr: 0xD06C, symBinAddr: 0x10000EC64, symSize: 0x14 }
  - { offsetInCU: 0x1DBA2, offset: 0x1DBA2, size: 0x8, addend: 0x0, symName: __ZNSt3__17launderB8ue170006INS_4pairIKNS_12basic_stringIcNS_11char_traitsIcEENS_9allocatorIcEEEEP9BasicMeshEEEEPT_SD_, symObjAddr: 0xD7F4, symBinAddr: 0x10000F3EC, symSize: 0x24 }
  - { offsetInCU: 0x1DBD9, offset: 0x1DBD9, size: 0x8, addend: 0x0, symName: __ZNSt3__19__launderB8ue170006INS_4pairIKNS_12basic_stringIcNS_11char_traitsIcEENS_9allocatorIcEEEEP9BasicMeshEEEEPT_SD_, symObjAddr: 0xD818, symBinAddr: 0x10000F410, symSize: 0x14 }
  - { offsetInCU: 0x1DC10, offset: 0x1DC10, size: 0x8, addend: 0x0, symName: __ZNSt3__112__to_addressB8ue170006INS_12basic_stringIcNS_11char_traitsIcEENS_9allocatorIcEEEEEEPT_S8_, symObjAddr: 0xE598, symBinAddr: 0x100010190, symSize: 0x14 }
  - { offsetInCU: 0x1DC45, offset: 0x1DC45, size: 0x8, addend: 0x0, symName: __ZNSt3__112__to_addressB8ue170006IP9Texture2DEEPT_S4_, symObjAddr: 0xF1B4, symBinAddr: 0x100010DAC, symSize: 0x14 }
  - { offsetInCU: 0x1DD3A, offset: 0x1DD3A, size: 0x8, addend: 0x0, symName: __ZNSt3__17launderB8ue170006INS_4pairIKNS_12basic_stringIcNS_11char_traitsIcEENS_9allocatorIcEEEE14VertexQuadrantEEEEPT_SC_, symObjAddr: 0xF84C, symBinAddr: 0x100011444, symSize: 0x24 }
  - { offsetInCU: 0x1DD71, offset: 0x1DD71, size: 0x8, addend: 0x0, symName: __ZNSt3__19__launderB8ue170006INS_4pairIKNS_12basic_stringIcNS_11char_traitsIcEENS_9allocatorIcEEEE14VertexQuadrantEEEEPT_SC_, symObjAddr: 0xF870, symBinAddr: 0x100011468, symSize: 0x14 }
  - { offsetInCU: 0x1DDA8, offset: 0x1DDA8, size: 0x8, addend: 0x0, symName: __ZNSt3__112__to_addressB8ue170006I6VertexEEPT_S3_, symObjAddr: 0x1048C, symBinAddr: 0x100012084, symSize: 0x14 }
  - { offsetInCU: 0x1DE10, offset: 0x1DE10, size: 0x8, addend: 0x0, symName: __ZNSt3__17launderB8ue170006INS_4pairIKNS_12basic_stringIcNS_11char_traitsIcEENS_9allocatorIcEEEEP9Texture2DEEEEPT_SD_, symObjAddr: 0x10C34, symBinAddr: 0x10001282C, symSize: 0x24 }
  - { offsetInCU: 0x1DE47, offset: 0x1DE47, size: 0x8, addend: 0x0, symName: __ZNSt3__19__launderB8ue170006INS_4pairIKNS_12basic_stringIcNS_11char_traitsIcEENS_9allocatorIcEEEEP9Texture2DEEEEPT_SD_, symObjAddr: 0x10C58, symBinAddr: 0x100012850, symSize: 0x14 }
  - { offsetInCU: 0x1DE9C, offset: 0x1DE9C, size: 0x8, addend: 0x0, symName: __ZNSt3__13maxB8ue170006ImEERKT_S3_S3_, symObjAddr: 0x13B08, symBinAddr: 0x100015700, symSize: 0x2C }
  - { offsetInCU: 0x1DEDF, offset: 0x1DEDF, size: 0x8, addend: 0x0, symName: __ZNSt3__116__is_hash_power2B8ue170006Em, symObjAddr: 0x13B34, symBinAddr: 0x10001572C, symSize: 0x50 }
  - { offsetInCU: 0x1DF0B, offset: 0x1DF0B, size: 0x8, addend: 0x0, symName: __ZNSt3__116__next_hash_pow2B8ue170006Em, symObjAddr: 0x13B84, symBinAddr: 0x10001577C, symSize: 0x6C }
  - { offsetInCU: 0x1DF53, offset: 0x1DF53, size: 0x8, addend: 0x0, symName: __ZNSt3__116__constrain_hashB8ue170006Emm, symObjAddr: 0x13ED4, symBinAddr: 0x100015ACC, symSize: 0x98 }
  - { offsetInCU: 0x1DF8D, offset: 0x1DF8D, size: 0x8, addend: 0x0, symName: __ZNSt3__13maxB8ue170006ImNS_6__lessIvvEEEERKT_S5_S5_T0_, symObjAddr: 0x1409C, symBinAddr: 0x100015C94, symSize: 0x1E8 }
  - { offsetInCU: 0x1DFED, offset: 0x1DFED, size: 0x8, addend: 0x0, symName: __ZNSt3__112__libcpp_clzB8ue170006Em, symObjAddr: 0x14284, symBinAddr: 0x100015E7C, symSize: 0x1C }
  - { offsetInCU: 0x1E019, offset: 0x1E019, size: 0x8, addend: 0x0, symName: __ZNSt3__1neB8ue170006ERKNS_25__hash_map_const_iteratorINS_21__hash_const_iteratorIPNS_11__hash_nodeINS_17__hash_value_typeINS_12basic_stringIcNS_11char_traitsIcEENS_9allocatorIcEEEEP9Texture2DEEPvEEEEEESJ_, symObjAddr: 0x142FC, symBinAddr: 0x100015EF4, symSize: 0x30 }
  - { offsetInCU: 0x1E056, offset: 0x1E056, size: 0x8, addend: 0x0, symName: __ZNSt3__1neB8ue170006ERKNS_21__hash_const_iteratorIPNS_11__hash_nodeINS_17__hash_value_typeINS_12basic_stringIcNS_11char_traitsIcEENS_9allocatorIcEEEEP9Texture2DEEPvEEEESH_, symObjAddr: 0x145B8, symBinAddr: 0x1000161B0, symSize: 0x34 }
  - { offsetInCU: 0x1E093, offset: 0x1E093, size: 0x8, addend: 0x0, symName: __ZNSt3__1eqB8ue170006ERKNS_21__hash_const_iteratorIPNS_11__hash_nodeINS_17__hash_value_typeINS_12basic_stringIcNS_11char_traitsIcEENS_9allocatorIcEEEEP9Texture2DEEPvEEEESH_, symObjAddr: 0x145EC, symBinAddr: 0x1000161E4, symSize: 0xB8 }
  - { offsetInCU: 0x1E0D0, offset: 0x1E0D0, size: 0x8, addend: 0x0, symName: __ZNSt3__116__do_string_hashB8ue170006IPKcEEmT_S3_, symObjAddr: 0x15C38, symBinAddr: 0x100017830, symSize: 0x1EC }
  - { offsetInCU: 0x1E118, offset: 0x1E118, size: 0x8, addend: 0x0, symName: __ZNSt3__110__loadwordB8ue170006ImEET_PKv, symObjAddr: 0x17364, symBinAddr: 0x100018F5C, symSize: 0x214 }
  - { offsetInCU: 0x1E160, offset: 0x1E160, size: 0x8, addend: 0x0, symName: __ZNSt3__14swapB8ue170006ImEENS_9enable_ifIXaasr21is_move_constructibleIT_EE5valuesr18is_move_assignableIS2_EE5valueEvE4typeERS2_S5_, symObjAddr: 0x17A00, symBinAddr: 0x1000195F8, symSize: 0x134 }
  - { offsetInCU: 0x1E1B1, offset: 0x1E1B1, size: 0x8, addend: 0x0, symName: __ZNSt3__110__loadwordB8ue170006IjEET_PKv, symObjAddr: 0x17B88, symBinAddr: 0x100019780, symSize: 0x240 }
  - { offsetInCU: 0x1E1F9, offset: 0x1E1F9, size: 0x8, addend: 0x0, symName: __ZNSt3__112__to_addressB8ue170006IKcEEPT_S3_, symObjAddr: 0x182D4, symBinAddr: 0x100019ECC, symSize: 0x14 }
  - { offsetInCU: 0x1E261, offset: 0x1E261, size: 0x8, addend: 0x0, symName: __ZNSt3__1eqB8ue170006INS_9allocatorIcEEEEbRKNS_12basic_stringIcNS_11char_traitsIcEET_EES9_, symObjAddr: 0x18660, symBinAddr: 0x10001A258, symSize: 0x234 }
  - { offsetInCU: 0x1E2D4, offset: 0x1E2D4, size: 0x8, addend: 0x0, symName: __ZNSt3__17launderB8ue170006IKNS_4pairIKNS_12basic_stringIcNS_11char_traitsIcEENS_9allocatorIcEEEEP9Texture2DEEEEPT_SE_, symObjAddr: 0x188C8, symBinAddr: 0x10001A4C0, symSize: 0x24 }
  - { offsetInCU: 0x1E30B, offset: 0x1E30B, size: 0x8, addend: 0x0, symName: __ZNSt3__19__launderB8ue170006IKNS_4pairIKNS_12basic_stringIcNS_11char_traitsIcEENS_9allocatorIcEEEEP9Texture2DEEEEPT_SE_, symObjAddr: 0x188EC, symBinAddr: 0x10001A4E4, symSize: 0x14 }
  - { offsetInCU: 0x1E3C6, offset: 0x1E3C6, size: 0x8, addend: 0x0, symName: __ZNSt3__17launderB8ue170006INS_4pairIKNS_12basic_stringIcNS_11char_traitsIcEENS_9allocatorIcEEEEP6ShaderEEEEPT_SD_, symObjAddr: 0x1A480, symBinAddr: 0x10001C078, symSize: 0x24 }
  - { offsetInCU: 0x1E3FD, offset: 0x1E3FD, size: 0x8, addend: 0x0, symName: __ZNSt3__19__launderB8ue170006INS_4pairIKNS_12basic_stringIcNS_11char_traitsIcEENS_9allocatorIcEEEEP6ShaderEEEEPT_SD_, symObjAddr: 0x1A4A4, symBinAddr: 0x10001C09C, symSize: 0x14 }
  - { offsetInCU: 0x1E452, offset: 0x1E452, size: 0x8, addend: 0x0, symName: __ZNSt3__1neB8ue170006ERKNS_25__hash_map_const_iteratorINS_21__hash_const_iteratorIPNS_11__hash_nodeINS_17__hash_value_typeINS_12basic_stringIcNS_11char_traitsIcEENS_9allocatorIcEEEEP6ShaderEEPvEEEEEESJ_, symObjAddr: 0x1D5FC, symBinAddr: 0x10001F1F4, symSize: 0x30 }
  - { offsetInCU: 0x1E48F, offset: 0x1E48F, size: 0x8, addend: 0x0, symName: __ZNSt3__1neB8ue170006ERKNS_21__hash_const_iteratorIPNS_11__hash_nodeINS_17__hash_value_typeINS_12basic_stringIcNS_11char_traitsIcEENS_9allocatorIcEEEEP6ShaderEEPvEEEESH_, symObjAddr: 0x1D8B8, symBinAddr: 0x10001F4B0, symSize: 0x34 }
  - { offsetInCU: 0x1E4CC, offset: 0x1E4CC, size: 0x8, addend: 0x0, symName: __ZNSt3__1eqB8ue170006ERKNS_21__hash_const_iteratorIPNS_11__hash_nodeINS_17__hash_value_typeINS_12basic_stringIcNS_11char_traitsIcEENS_9allocatorIcEEEEP6ShaderEEPvEEEESH_, symObjAddr: 0x1D8EC, symBinAddr: 0x10001F4E4, symSize: 0xB8 }
  - { offsetInCU: 0x1E509, offset: 0x1E509, size: 0x8, addend: 0x0, symName: __ZNSt3__17launderB8ue170006IKNS_4pairIKNS_12basic_stringIcNS_11char_traitsIcEENS_9allocatorIcEEEEP6ShaderEEEEPT_SE_, symObjAddr: 0x1EF24, symBinAddr: 0x100020B1C, symSize: 0x24 }
  - { offsetInCU: 0x1E540, offset: 0x1E540, size: 0x8, addend: 0x0, symName: __ZNSt3__19__launderB8ue170006IKNS_4pairIKNS_12basic_stringIcNS_11char_traitsIcEENS_9allocatorIcEEEEP6ShaderEEEEPT_SE_, symObjAddr: 0x1EF48, symBinAddr: 0x100020B40, symSize: 0x14 }
  - { offsetInCU: 0x1ED65, offset: 0x1ED65, size: 0x8, addend: 0x0, symName: __ZSt28__throw_bad_array_new_lengthB8ue170006v, symObjAddr: 0x30DC, symBinAddr: 0x100004CD4, symSize: 0x38 }
  - { offsetInCU: 0x1EF54, offset: 0x1EF54, size: 0x8, addend: 0x0, symName: __ZL15square_vertices, symObjAddr: 0x12BE80, symBinAddr: 0x100603E80, symSize: 0x0 }
  - { offsetInCU: 0x1EF6D, offset: 0x1EF6D, size: 0x8, addend: 0x0, symName: __ZL14square_indices, symObjAddr: 0x12BEC0, symBinAddr: 0x100603EC0, symSize: 0x0 }
  - { offsetInCU: 0x1F08E, offset: 0x1F08E, size: 0x8, addend: 0x0, symName: _.str, symObjAddr: 0x22300, symBinAddr: 0x1004AF360, symSize: 0x0 }
  - { offsetInCU: 0x2FB14, offset: 0x2FB14, size: 0x8, addend: 0x0, symName: __ZNSt3__16vectorIfNS_9allocatorIfEEEC1B8ue170006ESt16initializer_listIfE, symObjAddr: 0x0, symBinAddr: 0x100001BF8, symSize: 0x248 }
  - { offsetInCU: 0x2FB54, offset: 0x2FB54, size: 0x8, addend: 0x0, symName: __ZNSt3__16vectorIfNS_9allocatorIfEEED1B8ue170006Ev, symObjAddr: 0x248, symBinAddr: 0x100001E40, symSize: 0x2C }
  - { offsetInCU: 0x2FB7E, offset: 0x2FB7E, size: 0x8, addend: 0x0, symName: __ZNSt3__16vectorIjNS_9allocatorIjEEEC1B8ue170006ESt16initializer_listIjE, symObjAddr: 0x274, symBinAddr: 0x100001E6C, symSize: 0x248 }
  - { offsetInCU: 0x2FBBE, offset: 0x2FBBE, size: 0x8, addend: 0x0, symName: __ZNSt3__16vectorIjNS_9allocatorIjEEED1B8ue170006Ev, symObjAddr: 0x4BC, symBinAddr: 0x1000020B4, symSize: 0x2C }
  - { offsetInCU: 0x2FC28, offset: 0x2FC28, size: 0x8, addend: 0x0, symName: __ZN3AppC2ERKNSt3__112basic_stringIcNS0_11char_traitsIcEENS0_9allocatorIcEEEE, symObjAddr: 0x4E8, symBinAddr: 0x1000020E0, symSize: 0x2C8 }
  - { offsetInCU: 0x2FC64, offset: 0x2FC64, size: 0x8, addend: 0x0, symName: __ZNSt3__110unique_ptrI7SWindowNS_14default_deleteIS1_EEEC1B8ue170006ILb1EvEEv, symObjAddr: 0x7B0, symBinAddr: 0x1000023A8, symSize: 0x2C }
  - { offsetInCU: 0x2FC99, offset: 0x2FC99, size: 0x8, addend: 0x0, symName: __ZNSt3__110unique_ptrI7SWindowNS_14default_deleteIS1_EEEaSB8ue170006EOS4_, symObjAddr: 0x840, symBinAddr: 0x100002438, symSize: 0x50 }
  - { offsetInCU: 0x2FCCD, offset: 0x2FCCD, size: 0x8, addend: 0x0, symName: __ZNSt3__110unique_ptrI7SWindowNS_14default_deleteIS1_EEED1B8ue170006Ev, symObjAddr: 0x890, symBinAddr: 0x100002488, symSize: 0x2C }
  - { offsetInCU: 0x2FCF7, offset: 0x2FCF7, size: 0x8, addend: 0x0, symName: __ZNKSt3__110unique_ptrI7SWindowNS_14default_deleteIS1_EEEptB8ue170006Ev, symObjAddr: 0x8BC, symBinAddr: 0x1000024B4, symSize: 0x6C }
  - { offsetInCU: 0x2FD1D, offset: 0x2FD1D, size: 0x8, addend: 0x0, symName: __ZN3AppC1ERKNSt3__112basic_stringIcNS0_11char_traitsIcEENS0_9allocatorIcEEEE, symObjAddr: 0x928, symBinAddr: 0x100002520, symSize: 0x34 }
  - { offsetInCU: 0x2FD57, offset: 0x2FD57, size: 0x8, addend: 0x0, symName: __ZN3App4loopEv, symObjAddr: 0x95C, symBinAddr: 0x100002554, symSize: 0x4C }
  - { offsetInCU: 0x2FD7F, offset: 0x2FD7F, size: 0x8, addend: 0x0, symName: __ZN7SWindow9isRunningEv, symObjAddr: 0x9A8, symBinAddr: 0x1000025A0, symSize: 0x8C }
  - { offsetInCU: 0x2FDA5, offset: 0x2FDA5, size: 0x8, addend: 0x0, symName: __ZNSt3__110unique_ptrI7SWindowNS_14default_deleteIS1_EEEC2B8ue170006ILb1EvEEv, symObjAddr: 0xA34, symBinAddr: 0x10000262C, symSize: 0x200 }
  - { offsetInCU: 0x2FDE0, offset: 0x2FDE0, size: 0x8, addend: 0x0, symName: __ZNSt3__117__compressed_pairIP7SWindowNS_14default_deleteIS1_EEEC1B8ue170006INS_16__value_init_tagES7_EEOT_OT0_, symObjAddr: 0xC34, symBinAddr: 0x10000282C, symSize: 0x3C }
  - { offsetInCU: 0x2FE38, offset: 0x2FE38, size: 0x8, addend: 0x0, symName: __ZNSt3__117__compressed_pairIP7SWindowNS_14default_deleteIS1_EEEC2B8ue170006INS_16__value_init_tagES7_EEOT_OT0_, symObjAddr: 0xC7C, symBinAddr: 0x100002874, symSize: 0x3C }
  - { offsetInCU: 0x2FE90, offset: 0x2FE90, size: 0x8, addend: 0x0, symName: __ZNSt3__122__compressed_pair_elemIP7SWindowLi0ELb0EEC2B8ue170006ENS_16__value_init_tagE, symObjAddr: 0xCB8, symBinAddr: 0x1000028B0, symSize: 0x60 }
  - { offsetInCU: 0x2FEC5, offset: 0x2FEC5, size: 0x8, addend: 0x0, symName: __ZNSt3__122__compressed_pair_elemINS_14default_deleteI7SWindowEELi1ELb1EEC2B8ue170006ENS_16__value_init_tagE, symObjAddr: 0xD18, symBinAddr: 0x100002910, symSize: 0x14 }
  - { offsetInCU: 0x2FEFA, offset: 0x2FEFA, size: 0x8, addend: 0x0, symName: __ZNSt3__16vectorIfNS_9allocatorIfEEEC2B8ue170006ESt16initializer_listIfE, symObjAddr: 0xD2C, symBinAddr: 0x100002924, symSize: 0x528 }
  - { offsetInCU: 0x2FF5E, offset: 0x2FF5E, size: 0x8, addend: 0x0, symName: __ZNSt3__117__compressed_pairIPfNS_9allocatorIfEEEC1B8ue170006IDnNS_18__default_init_tagEEEOT_OT0_, symObjAddr: 0x1254, symBinAddr: 0x100002E4C, symSize: 0x3C }
  - { offsetInCU: 0x2FFB6, offset: 0x2FFB6, size: 0x8, addend: 0x0, symName: __ZNSt3__16vectorIfNS_9allocatorIfEEE16__destroy_vectorC1B8ue170006ERS3_, symObjAddr: 0x1508, symBinAddr: 0x100003100, symSize: 0x34 }
  - { offsetInCU: 0x2FFEF, offset: 0x2FFEF, size: 0x8, addend: 0x0, symName: __ZNKSt16initializer_listIfE4sizeB8ue170006Ev, symObjAddr: 0x153C, symBinAddr: 0x100003134, symSize: 0x64 }
  - { offsetInCU: 0x30015, offset: 0x30015, size: 0x8, addend: 0x0, symName: __ZNSt3__16vectorIfNS_9allocatorIfEEE11__vallocateB8ue170006Em, symObjAddr: 0x15A0, symBinAddr: 0x100003198, symSize: 0x420 }
  - { offsetInCU: 0x3005F, offset: 0x3005F, size: 0x8, addend: 0x0, symName: __ZNSt3__16vectorIfNS_9allocatorIfEEE18__construct_at_endIPKfS6_EEvT_T0_m, symObjAddr: 0x19C0, symBinAddr: 0x1000035B8, symSize: 0x380 }
  - { offsetInCU: 0x300DD, offset: 0x300DD, size: 0x8, addend: 0x0, symName: __ZNKSt16initializer_listIfE5beginB8ue170006Ev, symObjAddr: 0x1D40, symBinAddr: 0x100003938, symSize: 0x60 }
  - { offsetInCU: 0x30103, offset: 0x30103, size: 0x8, addend: 0x0, symName: __ZNKSt16initializer_listIfE3endB8ue170006Ev, symObjAddr: 0x1DA0, symBinAddr: 0x100003998, symSize: 0xA8 }
  - { offsetInCU: 0x30129, offset: 0x30129, size: 0x8, addend: 0x0, symName: __ZNSt3__128__exception_guard_exceptionsINS_6vectorIfNS_9allocatorIfEEE16__destroy_vectorEE10__completeB8ue170006Ev, symObjAddr: 0x1E48, symBinAddr: 0x100003A40, symSize: 0x8C }
  - { offsetInCU: 0x3014F, offset: 0x3014F, size: 0x8, addend: 0x0, symName: __ZNSt3__128__exception_guard_exceptionsINS_6vectorIfNS_9allocatorIfEEE16__destroy_vectorEED1B8ue170006Ev, symObjAddr: 0x1ED4, symBinAddr: 0x100003ACC, symSize: 0x2C }
  - { offsetInCU: 0x30179, offset: 0x30179, size: 0x8, addend: 0x0, symName: __ZNSt3__117__compressed_pairIPfNS_9allocatorIfEEEC2B8ue170006IDnNS_18__default_init_tagEEEOT_OT0_, symObjAddr: 0x1F00, symBinAddr: 0x100003AF8, symSize: 0x40 }
  - { offsetInCU: 0x301D1, offset: 0x301D1, size: 0x8, addend: 0x0, symName: __ZNSt3__122__compressed_pair_elemIPfLi0ELb0EEC2B8ue170006IDnvEEOT_, symObjAddr: 0x1F40, symBinAddr: 0x100003B38, symSize: 0x64 }
  - { offsetInCU: 0x30213, offset: 0x30213, size: 0x8, addend: 0x0, symName: __ZNSt3__122__compressed_pair_elemINS_9allocatorIfEELi1ELb1EEC2B8ue170006ENS_18__default_init_tagE, symObjAddr: 0x1FA4, symBinAddr: 0x100003B9C, symSize: 0x2C }
  - { offsetInCU: 0x30248, offset: 0x30248, size: 0x8, addend: 0x0, symName: __ZNSt3__19allocatorIfEC2B8ue170006Ev, symObjAddr: 0x1FD0, symBinAddr: 0x100003BC8, symSize: 0x2C }
  - { offsetInCU: 0x30272, offset: 0x30272, size: 0x8, addend: 0x0, symName: __ZNSt3__116__non_trivial_ifILb1ENS_9allocatorIfEEEC2B8ue170006Ev, symObjAddr: 0x1FFC, symBinAddr: 0x100003BF4, symSize: 0x14 }
  - { offsetInCU: 0x3029C, offset: 0x3029C, size: 0x8, addend: 0x0, symName: __ZNSt3__128__exception_guard_exceptionsINS_6vectorIfNS_9allocatorIfEEE16__destroy_vectorEEC1B8ue170006ES5_, symObjAddr: 0x2010, symBinAddr: 0x100003C08, symSize: 0x238 }
  - { offsetInCU: 0x302D9, offset: 0x302D9, size: 0x8, addend: 0x0, symName: __ZNSt3__128__exception_guard_exceptionsINS_6vectorIfNS_9allocatorIfEEE16__destroy_vectorEEC2B8ue170006ES5_, symObjAddr: 0x2248, symBinAddr: 0x100003E40, symSize: 0x264 }
  - { offsetInCU: 0x30316, offset: 0x30316, size: 0x8, addend: 0x0, symName: __ZNSt3__16vectorIfNS_9allocatorIfEEE16__destroy_vectorC2B8ue170006ERS3_, symObjAddr: 0x24AC, symBinAddr: 0x1000040A4, symSize: 0x70 }
  - { offsetInCU: 0x3034F, offset: 0x3034F, size: 0x8, addend: 0x0, symName: __ZNKSt3__16vectorIfNS_9allocatorIfEEE8max_sizeEv, symObjAddr: 0x251C, symBinAddr: 0x100004114, symSize: 0x2FC }
  - { offsetInCU: 0x30378, offset: 0x30378, size: 0x8, addend: 0x0, symName: __ZNKSt3__16vectorIfNS_9allocatorIfEEE20__throw_length_errorB8ue170006Ev, symObjAddr: 0x2818, symBinAddr: 0x100004410, symSize: 0x20 }
  - { offsetInCU: 0x3039E, offset: 0x3039E, size: 0x8, addend: 0x0, symName: __ZNSt3__16vectorIfNS_9allocatorIfEEE7__allocB8ue170006Ev, symObjAddr: 0x2AC4, symBinAddr: 0x1000046BC, symSize: 0x28 }
  - { offsetInCU: 0x303C4, offset: 0x303C4, size: 0x8, addend: 0x0, symName: __ZNSt3__16vectorIfNS_9allocatorIfEEE9__end_capB8ue170006Ev, symObjAddr: 0x2AEC, symBinAddr: 0x1000046E4, symSize: 0x28 }
  - { offsetInCU: 0x303EA, offset: 0x303EA, size: 0x8, addend: 0x0, symName: __ZNKSt3__16vectorIfNS_9allocatorIfEEE14__annotate_newB8ue170006Em, symObjAddr: 0x2B14, symBinAddr: 0x10000470C, symSize: 0xC0 }
  - { offsetInCU: 0x30429, offset: 0x30429, size: 0x8, addend: 0x0, symName: __ZNSt3__116allocator_traitsINS_9allocatorIfEEE8max_sizeB8ue170006IS2_vEEmRKS2_, symObjAddr: 0x2C00, symBinAddr: 0x1000047F8, symSize: 0x24 }
  - { offsetInCU: 0x30457, offset: 0x30457, size: 0x8, addend: 0x0, symName: __ZNKSt3__16vectorIfNS_9allocatorIfEEE7__allocB8ue170006Ev, symObjAddr: 0x2C24, symBinAddr: 0x10000481C, symSize: 0x28 }
  - { offsetInCU: 0x3047D, offset: 0x3047D, size: 0x8, addend: 0x0, symName: __ZNSt3__114numeric_limitsIlE3maxB8ue170006Ev, symObjAddr: 0x2C4C, symBinAddr: 0x100004844, symSize: 0x14 }
  - { offsetInCU: 0x3049B, offset: 0x3049B, size: 0x8, addend: 0x0, symName: __ZNKSt3__16__lessIvvEclB8ue170006ImmEEbRKT_RKT0_, symObjAddr: 0x2E48, symBinAddr: 0x100004A40, symSize: 0xBC }
  - { offsetInCU: 0x304EF, offset: 0x304EF, size: 0x8, addend: 0x0, symName: __ZNKSt3__19allocatorIfE8max_sizeB8ue170006Ev, symObjAddr: 0x2F04, symBinAddr: 0x100004AFC, symSize: 0x14 }
  - { offsetInCU: 0x30515, offset: 0x30515, size: 0x8, addend: 0x0, symName: __ZNKSt3__117__compressed_pairIPfNS_9allocatorIfEEE6secondB8ue170006Ev, symObjAddr: 0x2F18, symBinAddr: 0x100004B10, symSize: 0x24 }
  - { offsetInCU: 0x3053B, offset: 0x3053B, size: 0x8, addend: 0x0, symName: __ZNKSt3__122__compressed_pair_elemINS_9allocatorIfEELi1ELb1EE5__getB8ue170006Ev, symObjAddr: 0x2F3C, symBinAddr: 0x100004B34, symSize: 0x14 }
  - { offsetInCU: 0x30561, offset: 0x30561, size: 0x8, addend: 0x0, symName: __ZNSt3__123__libcpp_numeric_limitsIlLb1EE3maxB8ue170006Ev, symObjAddr: 0x2F50, symBinAddr: 0x100004B48, symSize: 0x8 }
  - { offsetInCU: 0x30575, offset: 0x30575, size: 0x8, addend: 0x0, symName: __ZNSt12length_errorC1B8ue170006EPKc, symObjAddr: 0x2FC0, symBinAddr: 0x100004BB8, symSize: 0x34 }
  - { offsetInCU: 0x305AD, offset: 0x305AD, size: 0x8, addend: 0x0, symName: __ZNSt12length_errorC2B8ue170006EPKc, symObjAddr: 0x2FF4, symBinAddr: 0x100004BEC, symSize: 0x8C }
  - { offsetInCU: 0x305E5, offset: 0x305E5, size: 0x8, addend: 0x0, symName: __ZNSt3__19allocatorIfE8allocateB8ue170006Em, symObjAddr: 0x3080, symBinAddr: 0x100004C78, symSize: 0x5C }
  - { offsetInCU: 0x30619, offset: 0x30619, size: 0x8, addend: 0x0, symName: __ZNSt3__117__compressed_pairIPfNS_9allocatorIfEEE6secondB8ue170006Ev, symObjAddr: 0x31E4, symBinAddr: 0x100004DDC, symSize: 0x24 }
  - { offsetInCU: 0x3063F, offset: 0x3063F, size: 0x8, addend: 0x0, symName: __ZNSt3__122__compressed_pair_elemINS_9allocatorIfEELi1ELb1EE5__getB8ue170006Ev, symObjAddr: 0x3208, symBinAddr: 0x100004E00, symSize: 0x14 }
  - { offsetInCU: 0x30665, offset: 0x30665, size: 0x8, addend: 0x0, symName: __ZNSt3__117__compressed_pairIPfNS_9allocatorIfEEE5firstB8ue170006Ev, symObjAddr: 0x321C, symBinAddr: 0x100004E14, symSize: 0x24 }
  - { offsetInCU: 0x3068B, offset: 0x3068B, size: 0x8, addend: 0x0, symName: __ZNSt3__122__compressed_pair_elemIPfLi0ELb0EE5__getB8ue170006Ev, symObjAddr: 0x3240, symBinAddr: 0x100004E38, symSize: 0x14 }
  - { offsetInCU: 0x306B1, offset: 0x306B1, size: 0x8, addend: 0x0, symName: __ZNKSt3__16vectorIfNS_9allocatorIfEEE31__annotate_contiguous_containerEPKvS5_S5_S5_, symObjAddr: 0x3254, symBinAddr: 0x100004E4C, symSize: 0x58 }
  - { offsetInCU: 0x30713, offset: 0x30713, size: 0x8, addend: 0x0, symName: __ZNKSt3__16vectorIfNS_9allocatorIfEEE4dataB8ue170006Ev, symObjAddr: 0x32AC, symBinAddr: 0x100004EA4, symSize: 0x64 }
  - { offsetInCU: 0x30739, offset: 0x30739, size: 0x8, addend: 0x0, symName: __ZNKSt3__16vectorIfNS_9allocatorIfEEE8capacityB8ue170006Ev, symObjAddr: 0x3310, symBinAddr: 0x100004F08, symSize: 0xBC }
  - { offsetInCU: 0x3075F, offset: 0x3075F, size: 0x8, addend: 0x0, symName: __ZNKSt3__16vectorIfNS_9allocatorIfEEE9__end_capB8ue170006Ev, symObjAddr: 0x33E0, symBinAddr: 0x100004FD8, symSize: 0x28 }
  - { offsetInCU: 0x30785, offset: 0x30785, size: 0x8, addend: 0x0, symName: __ZNKSt3__117__compressed_pairIPfNS_9allocatorIfEEE5firstB8ue170006Ev, symObjAddr: 0x3408, symBinAddr: 0x100005000, symSize: 0x24 }
  - { offsetInCU: 0x307AB, offset: 0x307AB, size: 0x8, addend: 0x0, symName: __ZNKSt3__122__compressed_pair_elemIPfLi0ELb0EE5__getB8ue170006Ev, symObjAddr: 0x342C, symBinAddr: 0x100005024, symSize: 0x14 }
  - { offsetInCU: 0x307EA, offset: 0x307EA, size: 0x8, addend: 0x0, symName: __ZNSt3__16vectorIfNS_9allocatorIfEEE21_ConstructTransactionC1B8ue170006ERS3_m, symObjAddr: 0x3440, symBinAddr: 0x100005038, symSize: 0x3C }
  - { offsetInCU: 0x30832, offset: 0x30832, size: 0x8, addend: 0x0, symName: __ZNSt3__16vectorIfNS_9allocatorIfEEE21_ConstructTransactionD1B8ue170006Ev, symObjAddr: 0x3758, symBinAddr: 0x100005350, symSize: 0x2C }
  - { offsetInCU: 0x3085C, offset: 0x3085C, size: 0x8, addend: 0x0, symName: __ZNSt3__16vectorIfNS_9allocatorIfEEE21_ConstructTransactionC2B8ue170006ERS3_m, symObjAddr: 0x3784, symBinAddr: 0x10000537C, symSize: 0x1D0 }
  - { offsetInCU: 0x308A4, offset: 0x308A4, size: 0x8, addend: 0x0, symName: __ZNKSt3__16vectorIfNS_9allocatorIfEEE19__annotate_increaseB8ue170006Em, symObjAddr: 0x3954, symBinAddr: 0x10000554C, symSize: 0xD8 }
  - { offsetInCU: 0x308D9, offset: 0x308D9, size: 0x8, addend: 0x0, symName: __ZNKSt3__16vectorIfNS_9allocatorIfEEE4sizeB8ue170006Ev, symObjAddr: 0x3A2C, symBinAddr: 0x100005624, symSize: 0xB0 }
  - { offsetInCU: 0x3091D, offset: 0x3091D, size: 0x8, addend: 0x0, symName: __ZNSt3__14pairIPKfS2_EC1B8ue170006IS2_S2_LPv0EEEOT_OT0_, symObjAddr: 0x4100, symBinAddr: 0x100005CF8, symSize: 0x3C }
  - { offsetInCU: 0x3097B, offset: 0x3097B, size: 0x8, addend: 0x0, symName: __ZNSt3__14pairIPKfS2_EC2B8ue170006IS2_S2_LPv0EEEOT_OT0_, symObjAddr: 0x413C, symBinAddr: 0x100005D34, symSize: 0x138 }
  - { offsetInCU: 0x309D9, offset: 0x309D9, size: 0x8, addend: 0x0, symName: __ZNSt3__118__unwrap_iter_implIPKfLb1EE8__unwrapB8ue170006ES2_, symObjAddr: 0x4274, symBinAddr: 0x100005E6C, symSize: 0x24 }
  - { offsetInCU: 0x30A1F, offset: 0x30A1F, size: 0x8, addend: 0x0, symName: __ZNKSt3__114__copy_trivialclB8ue170006IKffLi0EEENS_4pairIPT_PT0_EES5_S5_S7_, symObjAddr: 0x4F14, symBinAddr: 0x100006B0C, symSize: 0x230 }
  - { offsetInCU: 0x30A95, offset: 0x30A95, size: 0x8, addend: 0x0, symName: __ZNSt3__14pairIPKfPfEC1B8ue170006IRS2_S3_LPv0EEEOT_OT0_, symObjAddr: 0x59A0, symBinAddr: 0x100007598, symSize: 0x3C }
  - { offsetInCU: 0x30AF3, offset: 0x30AF3, size: 0x8, addend: 0x0, symName: __ZNSt3__14pairIPKfPfEC2B8ue170006IRS2_S3_LPv0EEEOT_OT0_, symObjAddr: 0x59DC, symBinAddr: 0x1000075D4, symSize: 0x138 }
  - { offsetInCU: 0x30B51, offset: 0x30B51, size: 0x8, addend: 0x0, symName: __ZNSt3__14pairIPKfPfEC1B8ue170006IS2_S3_LPv0EEEOT_OT0_, symObjAddr: 0x5B14, symBinAddr: 0x10000770C, symSize: 0x3C }
  - { offsetInCU: 0x30BAF, offset: 0x30BAF, size: 0x8, addend: 0x0, symName: __ZNSt3__14pairIPKfPfEC2B8ue170006IS2_S3_LPv0EEEOT_OT0_, symObjAddr: 0x5B50, symBinAddr: 0x100007748, symSize: 0x138 }
  - { offsetInCU: 0x30C0D, offset: 0x30C0D, size: 0x8, addend: 0x0, symName: __ZNSt3__118__unwrap_iter_implIPKfLb1EE8__rewrapB8ue170006ES2_S2_, symObjAddr: 0x5CD0, symBinAddr: 0x1000078C8, symSize: 0x50 }
  - { offsetInCU: 0x30C3E, offset: 0x30C3E, size: 0x8, addend: 0x0, symName: __ZNSt3__118__unwrap_iter_implIPfLb1EE8__unwrapB8ue170006ES1_, symObjAddr: 0x5D20, symBinAddr: 0x100007918, symSize: 0x24 }
  - { offsetInCU: 0x30C61, offset: 0x30C61, size: 0x8, addend: 0x0, symName: __ZNSt3__118__unwrap_iter_implIPfLb1EE8__rewrapB8ue170006ES1_S1_, symObjAddr: 0x5D44, symBinAddr: 0x10000793C, symSize: 0x50 }
  - { offsetInCU: 0x30C92, offset: 0x30C92, size: 0x8, addend: 0x0, symName: __ZNSt3__16vectorIfNS_9allocatorIfEEE21_ConstructTransactionD2B8ue170006Ev, symObjAddr: 0x5D94, symBinAddr: 0x10000798C, symSize: 0x278 }
  - { offsetInCU: 0x30CBC, offset: 0x30CBC, size: 0x8, addend: 0x0, symName: __ZNKSt3__16vectorIfNS_9allocatorIfEEE17__annotate_shrinkB8ue170006Em, symObjAddr: 0x600C, symBinAddr: 0x100007C04, symSize: 0xC8 }
  - { offsetInCU: 0x30CF1, offset: 0x30CF1, size: 0x8, addend: 0x0, symName: __ZNSt3__128__exception_guard_exceptionsINS_6vectorIfNS_9allocatorIfEEE16__destroy_vectorEED2B8ue170006Ev, symObjAddr: 0x60D4, symBinAddr: 0x100007CCC, symSize: 0xBC }
  - { offsetInCU: 0x30D1B, offset: 0x30D1B, size: 0x8, addend: 0x0, symName: __ZNSt3__16vectorIfNS_9allocatorIfEEE16__destroy_vectorclB8ue170006Ev, symObjAddr: 0x6190, symBinAddr: 0x100007D88, symSize: 0x228 }
  - { offsetInCU: 0x30D41, offset: 0x30D41, size: 0x8, addend: 0x0, symName: __ZNSt3__16vectorIfNS_9allocatorIfEEE7__clearB8ue170006Ev, symObjAddr: 0x63B8, symBinAddr: 0x100007FB0, symSize: 0x64 }
  - { offsetInCU: 0x30D67, offset: 0x30D67, size: 0x8, addend: 0x0, symName: __ZNKSt3__16vectorIfNS_9allocatorIfEEE17__annotate_deleteB8ue170006Ev, symObjAddr: 0x641C, symBinAddr: 0x100008014, symSize: 0xCC }
  - { offsetInCU: 0x30D8D, offset: 0x30D8D, size: 0x8, addend: 0x0, symName: __ZNSt3__116allocator_traitsINS_9allocatorIfEEE10deallocateB8ue170006ERS2_Pfm, symObjAddr: 0x64E8, symBinAddr: 0x1000080E0, symSize: 0x34 }
  - { offsetInCU: 0x30DCF, offset: 0x30DCF, size: 0x8, addend: 0x0, symName: __ZNSt3__16vectorIfNS_9allocatorIfEEE22__base_destruct_at_endB8ue170006EPf, symObjAddr: 0x651C, symBinAddr: 0x100008114, symSize: 0x114 }
  - { offsetInCU: 0x30E13, offset: 0x30E13, size: 0x8, addend: 0x0, symName: __ZNSt3__116allocator_traitsINS_9allocatorIfEEE7destroyB8ue170006IfvEEvRS2_PT_, symObjAddr: 0x6630, symBinAddr: 0x100008228, symSize: 0x2C }
  - { offsetInCU: 0x30E50, offset: 0x30E50, size: 0x8, addend: 0x0, symName: __ZNSt3__19allocatorIfE7destroyB8ue170006EPf, symObjAddr: 0x665C, symBinAddr: 0x100008254, symSize: 0x14 }
  - { offsetInCU: 0x30E84, offset: 0x30E84, size: 0x8, addend: 0x0, symName: __ZNSt3__19allocatorIfE10deallocateB8ue170006EPfm, symObjAddr: 0x6670, symBinAddr: 0x100008268, symSize: 0x4C }
  - { offsetInCU: 0x30EC6, offset: 0x30EC6, size: 0x8, addend: 0x0, symName: __ZNSt3__16vectorIfNS_9allocatorIfEEED2B8ue170006Ev, symObjAddr: 0x67C4, symBinAddr: 0x1000083BC, symSize: 0x1F4 }
  - { offsetInCU: 0x30EF1, offset: 0x30EF1, size: 0x8, addend: 0x0, symName: __ZNSt3__16vectorIjNS_9allocatorIjEEEC2B8ue170006ESt16initializer_listIjE, symObjAddr: 0x69B8, symBinAddr: 0x1000085B0, symSize: 0x528 }
  - { offsetInCU: 0x30F4B, offset: 0x30F4B, size: 0x8, addend: 0x0, symName: __ZNSt3__117__compressed_pairIPjNS_9allocatorIjEEEC1B8ue170006IDnNS_18__default_init_tagEEEOT_OT0_, symObjAddr: 0x6EE0, symBinAddr: 0x100008AD8, symSize: 0x3C }
  - { offsetInCU: 0x30FA3, offset: 0x30FA3, size: 0x8, addend: 0x0, symName: __ZNSt3__16vectorIjNS_9allocatorIjEEE16__destroy_vectorC1B8ue170006ERS3_, symObjAddr: 0x7194, symBinAddr: 0x100008D8C, symSize: 0x34 }
  - { offsetInCU: 0x30FDC, offset: 0x30FDC, size: 0x8, addend: 0x0, symName: __ZNKSt16initializer_listIjE4sizeB8ue170006Ev, symObjAddr: 0x71C8, symBinAddr: 0x100008DC0, symSize: 0x64 }
  - { offsetInCU: 0x31002, offset: 0x31002, size: 0x8, addend: 0x0, symName: __ZNSt3__16vectorIjNS_9allocatorIjEEE11__vallocateB8ue170006Em, symObjAddr: 0x722C, symBinAddr: 0x100008E24, symSize: 0x420 }
  - { offsetInCU: 0x3104C, offset: 0x3104C, size: 0x8, addend: 0x0, symName: __ZNSt3__16vectorIjNS_9allocatorIjEEE18__construct_at_endIPKjS6_EEvT_T0_m, symObjAddr: 0x764C, symBinAddr: 0x100009244, symSize: 0x380 }
  - { offsetInCU: 0x310CA, offset: 0x310CA, size: 0x8, addend: 0x0, symName: __ZNKSt16initializer_listIjE5beginB8ue170006Ev, symObjAddr: 0x79CC, symBinAddr: 0x1000095C4, symSize: 0x60 }
  - { offsetInCU: 0x310F0, offset: 0x310F0, size: 0x8, addend: 0x0, symName: __ZNKSt16initializer_listIjE3endB8ue170006Ev, symObjAddr: 0x7A2C, symBinAddr: 0x100009624, symSize: 0xA8 }
  - { offsetInCU: 0x31116, offset: 0x31116, size: 0x8, addend: 0x0, symName: __ZNSt3__128__exception_guard_exceptionsINS_6vectorIjNS_9allocatorIjEEE16__destroy_vectorEE10__completeB8ue170006Ev, symObjAddr: 0x7AD4, symBinAddr: 0x1000096CC, symSize: 0x8C }
  - { offsetInCU: 0x3113C, offset: 0x3113C, size: 0x8, addend: 0x0, symName: __ZNSt3__128__exception_guard_exceptionsINS_6vectorIjNS_9allocatorIjEEE16__destroy_vectorEED1B8ue170006Ev, symObjAddr: 0x7B60, symBinAddr: 0x100009758, symSize: 0x2C }
  - { offsetInCU: 0x31166, offset: 0x31166, size: 0x8, addend: 0x0, symName: __ZNSt3__117__compressed_pairIPjNS_9allocatorIjEEEC2B8ue170006IDnNS_18__default_init_tagEEEOT_OT0_, symObjAddr: 0x7B8C, symBinAddr: 0x100009784, symSize: 0x40 }
  - { offsetInCU: 0x311BE, offset: 0x311BE, size: 0x8, addend: 0x0, symName: __ZNSt3__122__compressed_pair_elemIPjLi0ELb0EEC2B8ue170006IDnvEEOT_, symObjAddr: 0x7BCC, symBinAddr: 0x1000097C4, symSize: 0x64 }
  - { offsetInCU: 0x31200, offset: 0x31200, size: 0x8, addend: 0x0, symName: __ZNSt3__122__compressed_pair_elemINS_9allocatorIjEELi1ELb1EEC2B8ue170006ENS_18__default_init_tagE, symObjAddr: 0x7C30, symBinAddr: 0x100009828, symSize: 0x2C }
  - { offsetInCU: 0x31235, offset: 0x31235, size: 0x8, addend: 0x0, symName: __ZNSt3__19allocatorIjEC2B8ue170006Ev, symObjAddr: 0x7C5C, symBinAddr: 0x100009854, symSize: 0x2C }
  - { offsetInCU: 0x3125F, offset: 0x3125F, size: 0x8, addend: 0x0, symName: __ZNSt3__116__non_trivial_ifILb1ENS_9allocatorIjEEEC2B8ue170006Ev, symObjAddr: 0x7C88, symBinAddr: 0x100009880, symSize: 0x14 }
  - { offsetInCU: 0x31289, offset: 0x31289, size: 0x8, addend: 0x0, symName: __ZNSt3__128__exception_guard_exceptionsINS_6vectorIjNS_9allocatorIjEEE16__destroy_vectorEEC1B8ue170006ES5_, symObjAddr: 0x7C9C, symBinAddr: 0x100009894, symSize: 0x238 }
  - { offsetInCU: 0x312C6, offset: 0x312C6, size: 0x8, addend: 0x0, symName: __ZNSt3__128__exception_guard_exceptionsINS_6vectorIjNS_9allocatorIjEEE16__destroy_vectorEEC2B8ue170006ES5_, symObjAddr: 0x7ED4, symBinAddr: 0x100009ACC, symSize: 0x264 }
  - { offsetInCU: 0x31303, offset: 0x31303, size: 0x8, addend: 0x0, symName: __ZNSt3__16vectorIjNS_9allocatorIjEEE16__destroy_vectorC2B8ue170006ERS3_, symObjAddr: 0x8138, symBinAddr: 0x100009D30, symSize: 0x70 }
  - { offsetInCU: 0x3133C, offset: 0x3133C, size: 0x8, addend: 0x0, symName: __ZNKSt3__16vectorIjNS_9allocatorIjEEE8max_sizeEv, symObjAddr: 0x81A8, symBinAddr: 0x100009DA0, symSize: 0x2FC }
  - { offsetInCU: 0x31365, offset: 0x31365, size: 0x8, addend: 0x0, symName: __ZNKSt3__16vectorIjNS_9allocatorIjEEE20__throw_length_errorB8ue170006Ev, symObjAddr: 0x84A4, symBinAddr: 0x10000A09C, symSize: 0x20 }
  - { offsetInCU: 0x3138B, offset: 0x3138B, size: 0x8, addend: 0x0, symName: __ZNSt3__16vectorIjNS_9allocatorIjEEE7__allocB8ue170006Ev, symObjAddr: 0x8750, symBinAddr: 0x10000A348, symSize: 0x28 }
  - { offsetInCU: 0x313B1, offset: 0x313B1, size: 0x8, addend: 0x0, symName: __ZNSt3__16vectorIjNS_9allocatorIjEEE9__end_capB8ue170006Ev, symObjAddr: 0x8778, symBinAddr: 0x10000A370, symSize: 0x28 }
  - { offsetInCU: 0x313D7, offset: 0x313D7, size: 0x8, addend: 0x0, symName: __ZNKSt3__16vectorIjNS_9allocatorIjEEE14__annotate_newB8ue170006Em, symObjAddr: 0x87A0, symBinAddr: 0x10000A398, symSize: 0xC0 }
  - { offsetInCU: 0x31416, offset: 0x31416, size: 0x8, addend: 0x0, symName: __ZNSt3__116allocator_traitsINS_9allocatorIjEEE8max_sizeB8ue170006IS2_vEEmRKS2_, symObjAddr: 0x8860, symBinAddr: 0x10000A458, symSize: 0x24 }
  - { offsetInCU: 0x31444, offset: 0x31444, size: 0x8, addend: 0x0, symName: __ZNKSt3__16vectorIjNS_9allocatorIjEEE7__allocB8ue170006Ev, symObjAddr: 0x8884, symBinAddr: 0x10000A47C, symSize: 0x28 }
  - { offsetInCU: 0x3146A, offset: 0x3146A, size: 0x8, addend: 0x0, symName: __ZNKSt3__19allocatorIjE8max_sizeB8ue170006Ev, symObjAddr: 0x88AC, symBinAddr: 0x10000A4A4, symSize: 0x14 }
  - { offsetInCU: 0x31490, offset: 0x31490, size: 0x8, addend: 0x0, symName: __ZNKSt3__117__compressed_pairIPjNS_9allocatorIjEEE6secondB8ue170006Ev, symObjAddr: 0x88C0, symBinAddr: 0x10000A4B8, symSize: 0x24 }
  - { offsetInCU: 0x314B6, offset: 0x314B6, size: 0x8, addend: 0x0, symName: __ZNKSt3__122__compressed_pair_elemINS_9allocatorIjEELi1ELb1EE5__getB8ue170006Ev, symObjAddr: 0x88E4, symBinAddr: 0x10000A4DC, symSize: 0x14 }
  - { offsetInCU: 0x314DC, offset: 0x314DC, size: 0x8, addend: 0x0, symName: __ZNSt3__19allocatorIjE8allocateB8ue170006Em, symObjAddr: 0x88F8, symBinAddr: 0x10000A4F0, symSize: 0x5C }
  - { offsetInCU: 0x31510, offset: 0x31510, size: 0x8, addend: 0x0, symName: __ZNSt3__117__compressed_pairIPjNS_9allocatorIjEEE6secondB8ue170006Ev, symObjAddr: 0x8954, symBinAddr: 0x10000A54C, symSize: 0x24 }
  - { offsetInCU: 0x31536, offset: 0x31536, size: 0x8, addend: 0x0, symName: __ZNSt3__122__compressed_pair_elemINS_9allocatorIjEELi1ELb1EE5__getB8ue170006Ev, symObjAddr: 0x8978, symBinAddr: 0x10000A570, symSize: 0x14 }
  - { offsetInCU: 0x3155C, offset: 0x3155C, size: 0x8, addend: 0x0, symName: __ZNSt3__117__compressed_pairIPjNS_9allocatorIjEEE5firstB8ue170006Ev, symObjAddr: 0x898C, symBinAddr: 0x10000A584, symSize: 0x24 }
  - { offsetInCU: 0x31582, offset: 0x31582, size: 0x8, addend: 0x0, symName: __ZNSt3__122__compressed_pair_elemIPjLi0ELb0EE5__getB8ue170006Ev, symObjAddr: 0x89B0, symBinAddr: 0x10000A5A8, symSize: 0x14 }
  - { offsetInCU: 0x315A8, offset: 0x315A8, size: 0x8, addend: 0x0, symName: __ZNKSt3__16vectorIjNS_9allocatorIjEEE31__annotate_contiguous_containerEPKvS5_S5_S5_, symObjAddr: 0x89C4, symBinAddr: 0x10000A5BC, symSize: 0x58 }
  - { offsetInCU: 0x3160A, offset: 0x3160A, size: 0x8, addend: 0x0, symName: __ZNKSt3__16vectorIjNS_9allocatorIjEEE4dataB8ue170006Ev, symObjAddr: 0x8A1C, symBinAddr: 0x10000A614, symSize: 0x64 }
  - { offsetInCU: 0x31630, offset: 0x31630, size: 0x8, addend: 0x0, symName: __ZNKSt3__16vectorIjNS_9allocatorIjEEE8capacityB8ue170006Ev, symObjAddr: 0x8A80, symBinAddr: 0x10000A678, symSize: 0xBC }
  - { offsetInCU: 0x31656, offset: 0x31656, size: 0x8, addend: 0x0, symName: __ZNKSt3__16vectorIjNS_9allocatorIjEEE9__end_capB8ue170006Ev, symObjAddr: 0x8B50, symBinAddr: 0x10000A748, symSize: 0x28 }
  - { offsetInCU: 0x3167C, offset: 0x3167C, size: 0x8, addend: 0x0, symName: __ZNKSt3__117__compressed_pairIPjNS_9allocatorIjEEE5firstB8ue170006Ev, symObjAddr: 0x8B78, symBinAddr: 0x10000A770, symSize: 0x24 }
  - { offsetInCU: 0x316A2, offset: 0x316A2, size: 0x8, addend: 0x0, symName: __ZNKSt3__122__compressed_pair_elemIPjLi0ELb0EE5__getB8ue170006Ev, symObjAddr: 0x8B9C, symBinAddr: 0x10000A794, symSize: 0x14 }
  - { offsetInCU: 0x316E1, offset: 0x316E1, size: 0x8, addend: 0x0, symName: __ZNSt3__16vectorIjNS_9allocatorIjEEE21_ConstructTransactionC1B8ue170006ERS3_m, symObjAddr: 0x8BB0, symBinAddr: 0x10000A7A8, symSize: 0x3C }
  - { offsetInCU: 0x31729, offset: 0x31729, size: 0x8, addend: 0x0, symName: __ZNSt3__16vectorIjNS_9allocatorIjEEE21_ConstructTransactionD1B8ue170006Ev, symObjAddr: 0x8EC8, symBinAddr: 0x10000AAC0, symSize: 0x2C }
  - { offsetInCU: 0x31753, offset: 0x31753, size: 0x8, addend: 0x0, symName: __ZNSt3__16vectorIjNS_9allocatorIjEEE21_ConstructTransactionC2B8ue170006ERS3_m, symObjAddr: 0x8EF4, symBinAddr: 0x10000AAEC, symSize: 0x1D0 }
  - { offsetInCU: 0x3179B, offset: 0x3179B, size: 0x8, addend: 0x0, symName: __ZNKSt3__16vectorIjNS_9allocatorIjEEE19__annotate_increaseB8ue170006Em, symObjAddr: 0x90C4, symBinAddr: 0x10000ACBC, symSize: 0xD8 }
  - { offsetInCU: 0x317D0, offset: 0x317D0, size: 0x8, addend: 0x0, symName: __ZNKSt3__16vectorIjNS_9allocatorIjEEE4sizeB8ue170006Ev, symObjAddr: 0x919C, symBinAddr: 0x10000AD94, symSize: 0xB0 }
  - { offsetInCU: 0x31814, offset: 0x31814, size: 0x8, addend: 0x0, symName: __ZNSt3__14pairIPKjS2_EC1B8ue170006IS2_S2_LPv0EEEOT_OT0_, symObjAddr: 0x9870, symBinAddr: 0x10000B468, symSize: 0x3C }
  - { offsetInCU: 0x31872, offset: 0x31872, size: 0x8, addend: 0x0, symName: __ZNSt3__14pairIPKjS2_EC2B8ue170006IS2_S2_LPv0EEEOT_OT0_, symObjAddr: 0x98AC, symBinAddr: 0x10000B4A4, symSize: 0x138 }
  - { offsetInCU: 0x318D0, offset: 0x318D0, size: 0x8, addend: 0x0, symName: __ZNSt3__118__unwrap_iter_implIPKjLb1EE8__unwrapB8ue170006ES2_, symObjAddr: 0x99E4, symBinAddr: 0x10000B5DC, symSize: 0x24 }
  - { offsetInCU: 0x3190C, offset: 0x3190C, size: 0x8, addend: 0x0, symName: __ZNKSt3__114__copy_trivialclB8ue170006IKjjLi0EEENS_4pairIPT_PT0_EES5_S5_S7_, symObjAddr: 0xA684, symBinAddr: 0x10000C27C, symSize: 0x230 }
  - { offsetInCU: 0x31982, offset: 0x31982, size: 0x8, addend: 0x0, symName: __ZNSt3__14pairIPKjPjEC1B8ue170006IRS2_S3_LPv0EEEOT_OT0_, symObjAddr: 0xB110, symBinAddr: 0x10000CD08, symSize: 0x3C }
  - { offsetInCU: 0x319E0, offset: 0x319E0, size: 0x8, addend: 0x0, symName: __ZNSt3__14pairIPKjPjEC2B8ue170006IRS2_S3_LPv0EEEOT_OT0_, symObjAddr: 0xB14C, symBinAddr: 0x10000CD44, symSize: 0x138 }
  - { offsetInCU: 0x31A3E, offset: 0x31A3E, size: 0x8, addend: 0x0, symName: __ZNSt3__14pairIPKjPjEC1B8ue170006IS2_S3_LPv0EEEOT_OT0_, symObjAddr: 0xB284, symBinAddr: 0x10000CE7C, symSize: 0x3C }
  - { offsetInCU: 0x31A9C, offset: 0x31A9C, size: 0x8, addend: 0x0, symName: __ZNSt3__14pairIPKjPjEC2B8ue170006IS2_S3_LPv0EEEOT_OT0_, symObjAddr: 0xB2C0, symBinAddr: 0x10000CEB8, symSize: 0x138 }
  - { offsetInCU: 0x31AFA, offset: 0x31AFA, size: 0x8, addend: 0x0, symName: __ZNSt3__118__unwrap_iter_implIPKjLb1EE8__rewrapB8ue170006ES2_S2_, symObjAddr: 0xB440, symBinAddr: 0x10000D038, symSize: 0x50 }
  - { offsetInCU: 0x31B2B, offset: 0x31B2B, size: 0x8, addend: 0x0, symName: __ZNSt3__118__unwrap_iter_implIPjLb1EE8__unwrapB8ue170006ES1_, symObjAddr: 0xB490, symBinAddr: 0x10000D088, symSize: 0x24 }
  - { offsetInCU: 0x31B4E, offset: 0x31B4E, size: 0x8, addend: 0x0, symName: __ZNSt3__118__unwrap_iter_implIPjLb1EE8__rewrapB8ue170006ES1_S1_, symObjAddr: 0xB4B4, symBinAddr: 0x10000D0AC, symSize: 0x50 }
  - { offsetInCU: 0x31B7F, offset: 0x31B7F, size: 0x8, addend: 0x0, symName: __ZNSt3__16vectorIjNS_9allocatorIjEEE21_ConstructTransactionD2B8ue170006Ev, symObjAddr: 0xB504, symBinAddr: 0x10000D0FC, symSize: 0x278 }
  - { offsetInCU: 0x31BA9, offset: 0x31BA9, size: 0x8, addend: 0x0, symName: __ZNKSt3__16vectorIjNS_9allocatorIjEEE17__annotate_shrinkB8ue170006Em, symObjAddr: 0xB77C, symBinAddr: 0x10000D374, symSize: 0xC8 }
  - { offsetInCU: 0x31BDE, offset: 0x31BDE, size: 0x8, addend: 0x0, symName: __ZNSt3__128__exception_guard_exceptionsINS_6vectorIjNS_9allocatorIjEEE16__destroy_vectorEED2B8ue170006Ev, symObjAddr: 0xB844, symBinAddr: 0x10000D43C, symSize: 0xBC }
  - { offsetInCU: 0x31C08, offset: 0x31C08, size: 0x8, addend: 0x0, symName: __ZNSt3__16vectorIjNS_9allocatorIjEEE16__destroy_vectorclB8ue170006Ev, symObjAddr: 0xB900, symBinAddr: 0x10000D4F8, symSize: 0x228 }
  - { offsetInCU: 0x31C2E, offset: 0x31C2E, size: 0x8, addend: 0x0, symName: __ZNSt3__16vectorIjNS_9allocatorIjEEE7__clearB8ue170006Ev, symObjAddr: 0xBB28, symBinAddr: 0x10000D720, symSize: 0x64 }
  - { offsetInCU: 0x31C54, offset: 0x31C54, size: 0x8, addend: 0x0, symName: __ZNKSt3__16vectorIjNS_9allocatorIjEEE17__annotate_deleteB8ue170006Ev, symObjAddr: 0xBB8C, symBinAddr: 0x10000D784, symSize: 0xCC }
  - { offsetInCU: 0x31C7A, offset: 0x31C7A, size: 0x8, addend: 0x0, symName: __ZNSt3__116allocator_traitsINS_9allocatorIjEEE10deallocateB8ue170006ERS2_Pjm, symObjAddr: 0xBC58, symBinAddr: 0x10000D850, symSize: 0x34 }
  - { offsetInCU: 0x31CBC, offset: 0x31CBC, size: 0x8, addend: 0x0, symName: __ZNSt3__16vectorIjNS_9allocatorIjEEE22__base_destruct_at_endB8ue170006EPj, symObjAddr: 0xBC8C, symBinAddr: 0x10000D884, symSize: 0x114 }
  - { offsetInCU: 0x31D00, offset: 0x31D00, size: 0x8, addend: 0x0, symName: __ZNSt3__116allocator_traitsINS_9allocatorIjEEE7destroyB8ue170006IjvEEvRS2_PT_, symObjAddr: 0xBDA0, symBinAddr: 0x10000D998, symSize: 0x2C }
  - { offsetInCU: 0x31D3D, offset: 0x31D3D, size: 0x8, addend: 0x0, symName: __ZNSt3__19allocatorIjE7destroyB8ue170006EPj, symObjAddr: 0xBDCC, symBinAddr: 0x10000D9C4, symSize: 0x14 }
  - { offsetInCU: 0x31D71, offset: 0x31D71, size: 0x8, addend: 0x0, symName: __ZNSt3__19allocatorIjE10deallocateB8ue170006EPjm, symObjAddr: 0xBDE0, symBinAddr: 0x10000D9D8, symSize: 0x4C }
  - { offsetInCU: 0x31DB3, offset: 0x31DB3, size: 0x8, addend: 0x0, symName: __ZNSt3__16vectorIjNS_9allocatorIjEEED2B8ue170006Ev, symObjAddr: 0xBE2C, symBinAddr: 0x10000DA24, symSize: 0x1F4 }
  - { offsetInCU: 0x31DDE, offset: 0x31DDE, size: 0x8, addend: 0x0, symName: __ZNSt3__110unique_ptrI7SWindowNS_14default_deleteIS1_EEED2B8ue170006Ev, symObjAddr: 0xC020, symBinAddr: 0x10000DC18, symSize: 0x30 }
  - { offsetInCU: 0x31E08, offset: 0x31E08, size: 0x8, addend: 0x0, symName: __ZNSt3__110unique_ptrI7SWindowNS_14default_deleteIS1_EEE5resetB8ue170006EPS1_, symObjAddr: 0xC050, symBinAddr: 0x10000DC48, symSize: 0xEC }
  - { offsetInCU: 0x31E4C, offset: 0x31E4C, size: 0x8, addend: 0x0, symName: __ZNSt3__117__compressed_pairIP7SWindowNS_14default_deleteIS1_EEE5firstB8ue170006Ev, symObjAddr: 0xC13C, symBinAddr: 0x10000DD34, symSize: 0x24 }
  - { offsetInCU: 0x31E72, offset: 0x31E72, size: 0x8, addend: 0x0, symName: __ZNSt3__117__compressed_pairIP7SWindowNS_14default_deleteIS1_EEE6secondB8ue170006Ev, symObjAddr: 0xC160, symBinAddr: 0x10000DD58, symSize: 0x24 }
  - { offsetInCU: 0x31E98, offset: 0x31E98, size: 0x8, addend: 0x0, symName: __ZNKSt3__114default_deleteI7SWindowEclB8ue170006EPS1_, symObjAddr: 0xC184, symBinAddr: 0x10000DD7C, symSize: 0x4C }
  - { offsetInCU: 0x31ECC, offset: 0x31ECC, size: 0x8, addend: 0x0, symName: __ZNSt3__122__compressed_pair_elemIP7SWindowLi0ELb0EE5__getB8ue170006Ev, symObjAddr: 0xC1D0, symBinAddr: 0x10000DDC8, symSize: 0x14 }
  - { offsetInCU: 0x31EF2, offset: 0x31EF2, size: 0x8, addend: 0x0, symName: __ZNSt3__122__compressed_pair_elemINS_14default_deleteI7SWindowEELi1ELb1EE5__getB8ue170006Ev, symObjAddr: 0xC1E4, symBinAddr: 0x10000DDDC, symSize: 0x14 }
  - { offsetInCU: 0x31F18, offset: 0x31F18, size: 0x8, addend: 0x0, symName: __ZN7SWindowD1Ev, symObjAddr: 0xC1F8, symBinAddr: 0x10000DDF0, symSize: 0x2C }
  - { offsetInCU: 0x31F42, offset: 0x31F42, size: 0x8, addend: 0x0, symName: __ZN7SWindowD2Ev, symObjAddr: 0xC224, symBinAddr: 0x10000DE1C, symSize: 0x88 }
  - { offsetInCU: 0x31F6C, offset: 0x31F6C, size: 0x8, addend: 0x0, symName: __ZNSt3__110unique_ptrI8SContextNS_14default_deleteIS1_EEED1B8ue170006Ev, symObjAddr: 0xC2AC, symBinAddr: 0x10000DEA4, symSize: 0x2C }
  - { offsetInCU: 0x31F96, offset: 0x31F96, size: 0x8, addend: 0x0, symName: __ZN7UWindowD2Ev, symObjAddr: 0xC2D8, symBinAddr: 0x10000DED0, symSize: 0x80 }
  - { offsetInCU: 0x31FC2, offset: 0x31FC2, size: 0x8, addend: 0x0, symName: __ZNSt3__110unique_ptrI8SContextNS_14default_deleteIS1_EEED2B8ue170006Ev, symObjAddr: 0xC358, symBinAddr: 0x10000DF50, symSize: 0x30 }
  - { offsetInCU: 0x31FEC, offset: 0x31FEC, size: 0x8, addend: 0x0, symName: __ZNSt3__110unique_ptrI8SContextNS_14default_deleteIS1_EEE5resetB8ue170006EPS1_, symObjAddr: 0xC388, symBinAddr: 0x10000DF80, symSize: 0xEC }
  - { offsetInCU: 0x32030, offset: 0x32030, size: 0x8, addend: 0x0, symName: __ZNSt3__117__compressed_pairIP8SContextNS_14default_deleteIS1_EEE5firstB8ue170006Ev, symObjAddr: 0xC474, symBinAddr: 0x10000E06C, symSize: 0x24 }
  - { offsetInCU: 0x32056, offset: 0x32056, size: 0x8, addend: 0x0, symName: __ZNSt3__117__compressed_pairIP8SContextNS_14default_deleteIS1_EEE6secondB8ue170006Ev, symObjAddr: 0xC498, symBinAddr: 0x10000E090, symSize: 0x24 }
  - { offsetInCU: 0x3207C, offset: 0x3207C, size: 0x8, addend: 0x0, symName: __ZNKSt3__114default_deleteI8SContextEclB8ue170006EPS1_, symObjAddr: 0xC4BC, symBinAddr: 0x10000E0B4, symSize: 0x4C }
  - { offsetInCU: 0x320B0, offset: 0x320B0, size: 0x8, addend: 0x0, symName: __ZNSt3__122__compressed_pair_elemIP8SContextLi0ELb0EE5__getB8ue170006Ev, symObjAddr: 0xC508, symBinAddr: 0x10000E100, symSize: 0x14 }
  - { offsetInCU: 0x320D6, offset: 0x320D6, size: 0x8, addend: 0x0, symName: __ZNSt3__122__compressed_pair_elemINS_14default_deleteI8SContextEELi1ELb1EE5__getB8ue170006Ev, symObjAddr: 0xC51C, symBinAddr: 0x10000E114, symSize: 0x14 }
  - { offsetInCU: 0x320FC, offset: 0x320FC, size: 0x8, addend: 0x0, symName: __ZN8SContextD1Ev, symObjAddr: 0xC530, symBinAddr: 0x10000E128, symSize: 0x2C }
  - { offsetInCU: 0x32126, offset: 0x32126, size: 0x8, addend: 0x0, symName: __ZN8SContextD2Ev, symObjAddr: 0xC55C, symBinAddr: 0x10000E154, symSize: 0x2C }
  - { offsetInCU: 0x32150, offset: 0x32150, size: 0x8, addend: 0x0, symName: __ZN8UContextD2Ev, symObjAddr: 0xC588, symBinAddr: 0x10000E180, symSize: 0x80 }
  - { offsetInCU: 0x3217C, offset: 0x3217C, size: 0x8, addend: 0x0, symName: __ZNSt3__110unique_ptrI5SceneNS_14default_deleteIS1_EEED1B8ue170006Ev, symObjAddr: 0xC608, symBinAddr: 0x10000E200, symSize: 0x2C }
  - { offsetInCU: 0x321A6, offset: 0x321A6, size: 0x8, addend: 0x0, symName: __ZNSt3__110unique_ptrI5SceneNS_14default_deleteIS1_EEED2B8ue170006Ev, symObjAddr: 0xC634, symBinAddr: 0x10000E22C, symSize: 0x30 }
  - { offsetInCU: 0x321D0, offset: 0x321D0, size: 0x8, addend: 0x0, symName: __ZNSt3__110unique_ptrI5SceneNS_14default_deleteIS1_EEE5resetB8ue170006EPS1_, symObjAddr: 0xC664, symBinAddr: 0x10000E25C, symSize: 0xEC }
  - { offsetInCU: 0x32214, offset: 0x32214, size: 0x8, addend: 0x0, symName: __ZNSt3__117__compressed_pairIP5SceneNS_14default_deleteIS1_EEE5firstB8ue170006Ev, symObjAddr: 0xC750, symBinAddr: 0x10000E348, symSize: 0x24 }
  - { offsetInCU: 0x3223A, offset: 0x3223A, size: 0x8, addend: 0x0, symName: __ZNSt3__117__compressed_pairIP5SceneNS_14default_deleteIS1_EEE6secondB8ue170006Ev, symObjAddr: 0xC774, symBinAddr: 0x10000E36C, symSize: 0x24 }
  - { offsetInCU: 0x32260, offset: 0x32260, size: 0x8, addend: 0x0, symName: __ZNKSt3__114default_deleteI5SceneEclB8ue170006EPS1_, symObjAddr: 0xC798, symBinAddr: 0x10000E390, symSize: 0x4C }
  - { offsetInCU: 0x32294, offset: 0x32294, size: 0x8, addend: 0x0, symName: __ZNSt3__122__compressed_pair_elemIP5SceneLi0ELb0EE5__getB8ue170006Ev, symObjAddr: 0xC7E4, symBinAddr: 0x10000E3DC, symSize: 0x14 }
  - { offsetInCU: 0x322BA, offset: 0x322BA, size: 0x8, addend: 0x0, symName: __ZNSt3__122__compressed_pair_elemINS_14default_deleteI5SceneEELi1ELb1EE5__getB8ue170006Ev, symObjAddr: 0xC7F8, symBinAddr: 0x10000E3F0, symSize: 0x14 }
  - { offsetInCU: 0x322E0, offset: 0x322E0, size: 0x8, addend: 0x0, symName: __ZN5SceneD1Ev, symObjAddr: 0xC80C, symBinAddr: 0x10000E404, symSize: 0x2C }
  - { offsetInCU: 0x3230A, offset: 0x3230A, size: 0x8, addend: 0x0, symName: __ZN5SceneD2Ev, symObjAddr: 0xC838, symBinAddr: 0x10000E430, symSize: 0x1E0 }
  - { offsetInCU: 0x32334, offset: 0x32334, size: 0x8, addend: 0x0, symName: __ZN7SLightsD1Ev, symObjAddr: 0xCA18, symBinAddr: 0x10000E610, symSize: 0x2C }
  - { offsetInCU: 0x3235E, offset: 0x3235E, size: 0x8, addend: 0x0, symName: __ZN8SObjectsD1Ev, symObjAddr: 0xCA44, symBinAddr: 0x10000E63C, symSize: 0x2C }
  - { offsetInCU: 0x32388, offset: 0x32388, size: 0x8, addend: 0x0, symName: __ZN6SkyboxD1Ev, symObjAddr: 0xCA70, symBinAddr: 0x10000E668, symSize: 0x2C }
  - { offsetInCU: 0x323B2, offset: 0x323B2, size: 0x8, addend: 0x0, symName: __ZN7TerrainD1Ev, symObjAddr: 0xCA9C, symBinAddr: 0x10000E694, symSize: 0x2C }
  - { offsetInCU: 0x323DC, offset: 0x323DC, size: 0x8, addend: 0x0, symName: __ZN16STextureResourceD1Ev, symObjAddr: 0xCAC8, symBinAddr: 0x10000E6C0, symSize: 0x2C }
  - { offsetInCU: 0x32406, offset: 0x32406, size: 0x8, addend: 0x0, symName: __ZN15SShaderResourceD1Ev, symObjAddr: 0xCAF4, symBinAddr: 0x10000E6EC, symSize: 0x2C }
  - { offsetInCU: 0x32430, offset: 0x32430, size: 0x8, addend: 0x0, symName: __ZN7SLightsD2Ev, symObjAddr: 0xCB20, symBinAddr: 0x10000E718, symSize: 0x88 }
  - { offsetInCU: 0x3245A, offset: 0x3245A, size: 0x8, addend: 0x0, symName: __ZN13URenderSystemD2Ev, symObjAddr: 0xCBA8, symBinAddr: 0x10000E7A0, symSize: 0x8C }
  - { offsetInCU: 0x32486, offset: 0x32486, size: 0x8, addend: 0x0, symName: __ZNSt3__113unordered_mapINS_12basic_stringIcNS_11char_traitsIcEENS_9allocatorIcEEEEP5ModelNS_4hashIS6_EENS_8equal_toIS6_EENS4_INS_4pairIKS6_S8_EEEEED1B8ue170006Ev, symObjAddr: 0xCC34, symBinAddr: 0x10000E82C, symSize: 0x2C }
  - { offsetInCU: 0x324B0, offset: 0x324B0, size: 0x8, addend: 0x0, symName: __ZNSt3__113unordered_mapINS_12basic_stringIcNS_11char_traitsIcEENS_9allocatorIcEEEEP9BasicMeshNS_4hashIS6_EENS_8equal_toIS6_EENS4_INS_4pairIKS6_S8_EEEEED1B8ue170006Ev, symObjAddr: 0xCC60, symBinAddr: 0x10000E858, symSize: 0x2C }
  - { offsetInCU: 0x324DA, offset: 0x324DA, size: 0x8, addend: 0x0, symName: __ZNSt3__113unordered_mapINS_12basic_stringIcNS_11char_traitsIcEENS_9allocatorIcEEEEP5ModelNS_4hashIS6_EENS_8equal_toIS6_EENS4_INS_4pairIKS6_S8_EEEEED2B8ue170006Ev, symObjAddr: 0xCC8C, symBinAddr: 0x10000E884, symSize: 0x2C }
  - { offsetInCU: 0x32504, offset: 0x32504, size: 0x8, addend: 0x0, symName: __ZNSt3__112__hash_tableINS_17__hash_value_typeINS_12basic_stringIcNS_11char_traitsIcEENS_9allocatorIcEEEEP5ModelEENS_22__unordered_map_hasherIS7_SA_NS_4hashIS7_EENS_8equal_toIS7_EELb1EEENS_21__unordered_map_equalIS7_SA_SF_SD_Lb1EEENS5_ISA_EEED1Ev, symObjAddr: 0xCCB8, symBinAddr: 0x10000E8B0, symSize: 0x2C }
  - { offsetInCU: 0x32530, offset: 0x32530, size: 0x8, addend: 0x0, symName: __ZNSt3__112__hash_tableINS_17__hash_value_typeINS_12basic_stringIcNS_11char_traitsIcEENS_9allocatorIcEEEEP5ModelEENS_22__unordered_map_hasherIS7_SA_NS_4hashIS7_EENS_8equal_toIS7_EELb1EEENS_21__unordered_map_equalIS7_SA_SF_SD_Lb1EEENS5_ISA_EEED2Ev, symObjAddr: 0xCCE4, symBinAddr: 0x10000E8DC, symSize: 0x88 }
  - { offsetInCU: 0x3255C, offset: 0x3255C, size: 0x8, addend: 0x0, symName: __ZNSt3__112__hash_tableINS_17__hash_value_typeINS_12basic_stringIcNS_11char_traitsIcEENS_9allocatorIcEEEEP5ModelEENS_22__unordered_map_hasherIS7_SA_NS_4hashIS7_EENS_8equal_toIS7_EELb1EEENS_21__unordered_map_equalIS7_SA_SF_SD_Lb1EEENS5_ISA_EEE17__deallocate_nodeEPNS_16__hash_node_baseIPNS_11__hash_nodeISA_PvEEEE, symObjAddr: 0xCD6C, symBinAddr: 0x10000E964, symSize: 0xF8 }
  - { offsetInCU: 0x325C7, offset: 0x325C7, size: 0x8, addend: 0x0, symName: __ZNSt3__117__compressed_pairINS_16__hash_node_baseIPNS_11__hash_nodeINS_17__hash_value_typeINS_12basic_stringIcNS_11char_traitsIcEENS_9allocatorIcEEEEP5ModelEEPvEEEENS7_ISE_EEE5firstB8ue170006Ev, symObjAddr: 0xCE64, symBinAddr: 0x10000EA5C, symSize: 0x24 }
  - { offsetInCU: 0x325ED, offset: 0x325ED, size: 0x8, addend: 0x0, symName: __ZNSt3__110unique_ptrIA_PNS_16__hash_node_baseIPNS_11__hash_nodeINS_17__hash_value_typeINS_12basic_stringIcNS_11char_traitsIcEENS_9allocatorIcEEEEP5ModelEEPvEEEENS_25__bucket_list_deallocatorINS7_ISH_EEEEED1B8ue170006Ev, symObjAddr: 0xCE88, symBinAddr: 0x10000EA80, symSize: 0x2C }
  - { offsetInCU: 0x32617, offset: 0x32617, size: 0x8, addend: 0x0, symName: __ZNSt3__112__hash_tableINS_17__hash_value_typeINS_12basic_stringIcNS_11char_traitsIcEENS_9allocatorIcEEEEP5ModelEENS_22__unordered_map_hasherIS7_SA_NS_4hashIS7_EENS_8equal_toIS7_EELb1EEENS_21__unordered_map_equalIS7_SA_SF_SD_Lb1EEENS5_ISA_EEE12__node_allocB8ue170006Ev, symObjAddr: 0xCEB4, symBinAddr: 0x10000EAAC, symSize: 0x28 }
  - { offsetInCU: 0x3263D, offset: 0x3263D, size: 0x8, addend: 0x0, symName: __ZNSt3__116__hash_node_baseIPNS_11__hash_nodeINS_17__hash_value_typeINS_12basic_stringIcNS_11char_traitsIcEENS_9allocatorIcEEEEP5ModelEEPvEEE8__upcastB8ue170006Ev, symObjAddr: 0xCEDC, symBinAddr: 0x10000EAD4, symSize: 0x24 }
  - { offsetInCU: 0x32668, offset: 0x32668, size: 0x8, addend: 0x0, symName: __ZNSt3__116allocator_traitsINS_9allocatorINS_11__hash_nodeINS_17__hash_value_typeINS_12basic_stringIcNS_11char_traitsIcEENS1_IcEEEEP5ModelEEPvEEEEE7destroyB8ue170006INS_4pairIKS8_SA_EEvvEEvRSE_PT_, symObjAddr: 0xCF00, symBinAddr: 0x10000EAF8, symSize: 0x28 }
  - { offsetInCU: 0x326A2, offset: 0x326A2, size: 0x8, addend: 0x0, symName: __ZNSt3__122__hash_key_value_typesINS_17__hash_value_typeINS_12basic_stringIcNS_11char_traitsIcEENS_9allocatorIcEEEEP5ModelEEE9__get_ptrB8ue170006ERSA_, symObjAddr: 0xCF28, symBinAddr: 0x10000EB20, symSize: 0x24 }
  - { offsetInCU: 0x326C5, offset: 0x326C5, size: 0x8, addend: 0x0, symName: __ZNSt3__116allocator_traitsINS_9allocatorINS_11__hash_nodeINS_17__hash_value_typeINS_12basic_stringIcNS_11char_traitsIcEENS1_IcEEEEP5ModelEEPvEEEEE10deallocateB8ue170006ERSE_PSD_m, symObjAddr: 0xCF4C, symBinAddr: 0x10000EB44, symSize: 0x34 }
  - { offsetInCU: 0x32707, offset: 0x32707, size: 0x8, addend: 0x0, symName: __ZNSt3__117__compressed_pairINS_16__hash_node_baseIPNS_11__hash_nodeINS_17__hash_value_typeINS_12basic_stringIcNS_11char_traitsIcEENS_9allocatorIcEEEEP5ModelEEPvEEEENS7_ISE_EEE6secondB8ue170006Ev, symObjAddr: 0xCF80, symBinAddr: 0x10000EB78, symSize: 0x24 }
  - { offsetInCU: 0x3272D, offset: 0x3272D, size: 0x8, addend: 0x0, symName: __ZNSt3__122__compressed_pair_elemINS_9allocatorINS_11__hash_nodeINS_17__hash_value_typeINS_12basic_stringIcNS_11char_traitsIcEENS1_IcEEEEP5ModelEEPvEEEELi1ELb1EE5__getB8ue170006Ev, symObjAddr: 0xCFA4, symBinAddr: 0x10000EB9C, symSize: 0x14 }
  - { offsetInCU: 0x32753, offset: 0x32753, size: 0x8, addend: 0x0, symName: __ZNSt3__114pointer_traitsIPNS_16__hash_node_baseIPNS_11__hash_nodeINS_17__hash_value_typeINS_12basic_stringIcNS_11char_traitsIcEENS_9allocatorIcEEEEP5ModelEEPvEEEEE10pointer_toB8ue170006ERSG_, symObjAddr: 0xCFB8, symBinAddr: 0x10000EBB0, symSize: 0x14 }
  - { offsetInCU: 0x32776, offset: 0x32776, size: 0x8, addend: 0x0, symName: __ZNSt3__14pairIKNS_12basic_stringIcNS_11char_traitsIcEENS_9allocatorIcEEEEP5ModelED1Ev, symObjAddr: 0xCFCC, symBinAddr: 0x10000EBC4, symSize: 0x2C }
  - { offsetInCU: 0x327A2, offset: 0x327A2, size: 0x8, addend: 0x0, symName: __ZNSt3__14pairIKNS_12basic_stringIcNS_11char_traitsIcEENS_9allocatorIcEEEEP5ModelED2Ev, symObjAddr: 0xCFF8, symBinAddr: 0x10000EBF0, symSize: 0x2C }
  - { offsetInCU: 0x327CE, offset: 0x327CE, size: 0x8, addend: 0x0, symName: __ZNSt3__117__hash_value_typeINS_12basic_stringIcNS_11char_traitsIcEENS_9allocatorIcEEEEP5ModelE11__get_valueB8ue170006Ev, symObjAddr: 0xD024, symBinAddr: 0x10000EC1C, symSize: 0x24 }
  - { offsetInCU: 0x327F4, offset: 0x327F4, size: 0x8, addend: 0x0, symName: __ZNSt3__19allocatorINS_11__hash_nodeINS_17__hash_value_typeINS_12basic_stringIcNS_11char_traitsIcEENS0_IcEEEEP5ModelEEPvEEE10deallocateB8ue170006EPSC_m, symObjAddr: 0xD080, symBinAddr: 0x10000EC78, symSize: 0x50 }
  - { offsetInCU: 0x32836, offset: 0x32836, size: 0x8, addend: 0x0, symName: __ZNSt3__122__compressed_pair_elemINS_16__hash_node_baseIPNS_11__hash_nodeINS_17__hash_value_typeINS_12basic_stringIcNS_11char_traitsIcEENS_9allocatorIcEEEEP5ModelEEPvEEEELi0ELb0EE5__getB8ue170006Ev, symObjAddr: 0xD0D0, symBinAddr: 0x10000ECC8, symSize: 0x14 }
  - { offsetInCU: 0x3285C, offset: 0x3285C, size: 0x8, addend: 0x0, symName: __ZNSt3__110unique_ptrIA_PNS_16__hash_node_baseIPNS_11__hash_nodeINS_17__hash_value_typeINS_12basic_stringIcNS_11char_traitsIcEENS_9allocatorIcEEEEP5ModelEEPvEEEENS_25__bucket_list_deallocatorINS7_ISH_EEEEED2B8ue170006Ev, symObjAddr: 0xD0E4, symBinAddr: 0x10000ECDC, symSize: 0x30 }
  - { offsetInCU: 0x32886, offset: 0x32886, size: 0x8, addend: 0x0, symName: __ZNSt3__110unique_ptrIA_PNS_16__hash_node_baseIPNS_11__hash_nodeINS_17__hash_value_typeINS_12basic_stringIcNS_11char_traitsIcEENS_9allocatorIcEEEEP5ModelEEPvEEEENS_25__bucket_list_deallocatorINS7_ISH_EEEEE5resetB8ue170006EDn, symObjAddr: 0xD114, symBinAddr: 0x10000ED0C, symSize: 0xE0 }
  - { offsetInCU: 0x328C6, offset: 0x328C6, size: 0x8, addend: 0x0, symName: __ZNSt3__117__compressed_pairIPPNS_16__hash_node_baseIPNS_11__hash_nodeINS_17__hash_value_typeINS_12basic_stringIcNS_11char_traitsIcEENS_9allocatorIcEEEEP5ModelEEPvEEEENS_25__bucket_list_deallocatorINS7_ISH_EEEEE5firstB8ue170006Ev, symObjAddr: 0xD1F4, symBinAddr: 0x10000EDEC, symSize: 0x24 }
  - { offsetInCU: 0x328EC, offset: 0x328EC, size: 0x8, addend: 0x0, symName: __ZNSt3__117__compressed_pairIPPNS_16__hash_node_baseIPNS_11__hash_nodeINS_17__hash_value_typeINS_12basic_stringIcNS_11char_traitsIcEENS_9allocatorIcEEEEP5ModelEEPvEEEENS_25__bucket_list_deallocatorINS7_ISH_EEEEE6secondB8ue170006Ev, symObjAddr: 0xD218, symBinAddr: 0x10000EE10, symSize: 0x28 }
  - { offsetInCU: 0x32912, offset: 0x32912, size: 0x8, addend: 0x0, symName: __ZNSt3__125__bucket_list_deallocatorINS_9allocatorIPNS_16__hash_node_baseIPNS_11__hash_nodeINS_17__hash_value_typeINS_12basic_stringIcNS_11char_traitsIcEENS1_IcEEEEP5ModelEEPvEEEEEEEclB8ue170006EPSH_, symObjAddr: 0xD240, symBinAddr: 0x10000EE38, symSize: 0x98 }
  - { offsetInCU: 0x32947, offset: 0x32947, size: 0x8, addend: 0x0, symName: __ZNSt3__122__compressed_pair_elemIPPNS_16__hash_node_baseIPNS_11__hash_nodeINS_17__hash_value_typeINS_12basic_stringIcNS_11char_traitsIcEENS_9allocatorIcEEEEP5ModelEEPvEEEELi0ELb0EE5__getB8ue170006Ev, symObjAddr: 0xD2D8, symBinAddr: 0x10000EED0, symSize: 0x14 }
  - { offsetInCU: 0x3296D, offset: 0x3296D, size: 0x8, addend: 0x0, symName: __ZNSt3__122__compressed_pair_elemINS_25__bucket_list_deallocatorINS_9allocatorIPNS_16__hash_node_baseIPNS_11__hash_nodeINS_17__hash_value_typeINS_12basic_stringIcNS_11char_traitsIcEENS2_IcEEEEP5ModelEEPvEEEEEEEELi1ELb0EE5__getB8ue170006Ev, symObjAddr: 0xD2EC, symBinAddr: 0x10000EEE4, symSize: 0x14 }
  - { offsetInCU: 0x32993, offset: 0x32993, size: 0x8, addend: 0x0, symName: __ZNSt3__116allocator_traitsINS_9allocatorIPNS_16__hash_node_baseIPNS_11__hash_nodeINS_17__hash_value_typeINS_12basic_stringIcNS_11char_traitsIcEENS1_IcEEEEP5ModelEEPvEEEEEEE10deallocateB8ue170006ERSI_PSH_m, symObjAddr: 0xD300, symBinAddr: 0x10000EEF8, symSize: 0x34 }
  - { offsetInCU: 0x329D5, offset: 0x329D5, size: 0x8, addend: 0x0, symName: __ZNSt3__125__bucket_list_deallocatorINS_9allocatorIPNS_16__hash_node_baseIPNS_11__hash_nodeINS_17__hash_value_typeINS_12basic_stringIcNS_11char_traitsIcEENS1_IcEEEEP5ModelEEPvEEEEEEE7__allocB8ue170006Ev, symObjAddr: 0xD334, symBinAddr: 0x10000EF2C, symSize: 0x24 }
  - { offsetInCU: 0x329FB, offset: 0x329FB, size: 0x8, addend: 0x0, symName: __ZNSt3__125__bucket_list_deallocatorINS_9allocatorIPNS_16__hash_node_baseIPNS_11__hash_nodeINS_17__hash_value_typeINS_12basic_stringIcNS_11char_traitsIcEENS1_IcEEEEP5ModelEEPvEEEEEEE4sizeB8ue170006Ev, symObjAddr: 0xD358, symBinAddr: 0x10000EF50, symSize: 0x24 }
  - { offsetInCU: 0x32A21, offset: 0x32A21, size: 0x8, addend: 0x0, symName: __ZNSt3__19allocatorIPNS_16__hash_node_baseIPNS_11__hash_nodeINS_17__hash_value_typeINS_12basic_stringIcNS_11char_traitsIcEENS0_IcEEEEP5ModelEEPvEEEEE10deallocateB8ue170006EPSG_m, symObjAddr: 0xD37C, symBinAddr: 0x10000EF74, symSize: 0x4C }
  - { offsetInCU: 0x32A63, offset: 0x32A63, size: 0x8, addend: 0x0, symName: __ZNSt3__117__compressed_pairImNS_9allocatorIPNS_16__hash_node_baseIPNS_11__hash_nodeINS_17__hash_value_typeINS_12basic_stringIcNS_11char_traitsIcEENS1_IcEEEEP5ModelEEPvEEEEEEE6secondB8ue170006Ev, symObjAddr: 0xD3C8, symBinAddr: 0x10000EFC0, symSize: 0x24 }
  - { offsetInCU: 0x32A89, offset: 0x32A89, size: 0x8, addend: 0x0, symName: __ZNSt3__122__compressed_pair_elemINS_9allocatorIPNS_16__hash_node_baseIPNS_11__hash_nodeINS_17__hash_value_typeINS_12basic_stringIcNS_11char_traitsIcEENS1_IcEEEEP5ModelEEPvEEEEEELi1ELb1EE5__getB8ue170006Ev, symObjAddr: 0xD3EC, symBinAddr: 0x10000EFE4, symSize: 0x14 }
  - { offsetInCU: 0x32AAF, offset: 0x32AAF, size: 0x8, addend: 0x0, symName: __ZNSt3__117__compressed_pairImNS_9allocatorIPNS_16__hash_node_baseIPNS_11__hash_nodeINS_17__hash_value_typeINS_12basic_stringIcNS_11char_traitsIcEENS1_IcEEEEP5ModelEEPvEEEEEEE5firstB8ue170006Ev, symObjAddr: 0xD400, symBinAddr: 0x10000EFF8, symSize: 0x24 }
  - { offsetInCU: 0x32AD5, offset: 0x32AD5, size: 0x8, addend: 0x0, symName: __ZNSt3__122__compressed_pair_elemImLi0ELb0EE5__getB8ue170006Ev, symObjAddr: 0xD424, symBinAddr: 0x10000F01C, symSize: 0x14 }
  - { offsetInCU: 0x32AFB, offset: 0x32AFB, size: 0x8, addend: 0x0, symName: __ZNSt3__113unordered_mapINS_12basic_stringIcNS_11char_traitsIcEENS_9allocatorIcEEEEP9BasicMeshNS_4hashIS6_EENS_8equal_toIS6_EENS4_INS_4pairIKS6_S8_EEEEED2B8ue170006Ev, symObjAddr: 0xD438, symBinAddr: 0x10000F030, symSize: 0x2C }
  - { offsetInCU: 0x32B25, offset: 0x32B25, size: 0x8, addend: 0x0, symName: __ZNSt3__112__hash_tableINS_17__hash_value_typeINS_12basic_stringIcNS_11char_traitsIcEENS_9allocatorIcEEEEP9BasicMeshEENS_22__unordered_map_hasherIS7_SA_NS_4hashIS7_EENS_8equal_toIS7_EELb1EEENS_21__unordered_map_equalIS7_SA_SF_SD_Lb1EEENS5_ISA_EEED1Ev, symObjAddr: 0xD464, symBinAddr: 0x10000F05C, symSize: 0x2C }
  - { offsetInCU: 0x32B51, offset: 0x32B51, size: 0x8, addend: 0x0, symName: __ZNSt3__112__hash_tableINS_17__hash_value_typeINS_12basic_stringIcNS_11char_traitsIcEENS_9allocatorIcEEEEP9BasicMeshEENS_22__unordered_map_hasherIS7_SA_NS_4hashIS7_EENS_8equal_toIS7_EELb1EEENS_21__unordered_map_equalIS7_SA_SF_SD_Lb1EEENS5_ISA_EEED2Ev, symObjAddr: 0xD490, symBinAddr: 0x10000F088, symSize: 0x88 }
  - { offsetInCU: 0x32B7D, offset: 0x32B7D, size: 0x8, addend: 0x0, symName: __ZNSt3__112__hash_tableINS_17__hash_value_typeINS_12basic_stringIcNS_11char_traitsIcEENS_9allocatorIcEEEEP9BasicMeshEENS_22__unordered_map_hasherIS7_SA_NS_4hashIS7_EENS_8equal_toIS7_EELb1EEENS_21__unordered_map_equalIS7_SA_SF_SD_Lb1EEENS5_ISA_EEE17__deallocate_nodeEPNS_16__hash_node_baseIPNS_11__hash_nodeISA_PvEEEE, symObjAddr: 0xD518, symBinAddr: 0x10000F110, symSize: 0xF8 }
  - { offsetInCU: 0x32BE8, offset: 0x32BE8, size: 0x8, addend: 0x0, symName: __ZNSt3__117__compressed_pairINS_16__hash_node_baseIPNS_11__hash_nodeINS_17__hash_value_typeINS_12basic_stringIcNS_11char_traitsIcEENS_9allocatorIcEEEEP9BasicMeshEEPvEEEENS7_ISE_EEE5firstB8ue170006Ev, symObjAddr: 0xD610, symBinAddr: 0x10000F208, symSize: 0x24 }
  - { offsetInCU: 0x32C0E, offset: 0x32C0E, size: 0x8, addend: 0x0, symName: __ZNSt3__110unique_ptrIA_PNS_16__hash_node_baseIPNS_11__hash_nodeINS_17__hash_value_typeINS_12basic_stringIcNS_11char_traitsIcEENS_9allocatorIcEEEEP9BasicMeshEEPvEEEENS_25__bucket_list_deallocatorINS7_ISH_EEEEED1B8ue170006Ev, symObjAddr: 0xD634, symBinAddr: 0x10000F22C, symSize: 0x2C }
  - { offsetInCU: 0x32C38, offset: 0x32C38, size: 0x8, addend: 0x0, symName: __ZNSt3__112__hash_tableINS_17__hash_value_typeINS_12basic_stringIcNS_11char_traitsIcEENS_9allocatorIcEEEEP9BasicMeshEENS_22__unordered_map_hasherIS7_SA_NS_4hashIS7_EENS_8equal_toIS7_EELb1EEENS_21__unordered_map_equalIS7_SA_SF_SD_Lb1EEENS5_ISA_EEE12__node_allocB8ue170006Ev, symObjAddr: 0xD660, symBinAddr: 0x10000F258, symSize: 0x28 }
  - { offsetInCU: 0x32C5E, offset: 0x32C5E, size: 0x8, addend: 0x0, symName: __ZNSt3__116__hash_node_baseIPNS_11__hash_nodeINS_17__hash_value_typeINS_12basic_stringIcNS_11char_traitsIcEENS_9allocatorIcEEEEP9BasicMeshEEPvEEE8__upcastB8ue170006Ev, symObjAddr: 0xD688, symBinAddr: 0x10000F280, symSize: 0x24 }
  - { offsetInCU: 0x32C89, offset: 0x32C89, size: 0x8, addend: 0x0, symName: __ZNSt3__116allocator_traitsINS_9allocatorINS_11__hash_nodeINS_17__hash_value_typeINS_12basic_stringIcNS_11char_traitsIcEENS1_IcEEEEP9BasicMeshEEPvEEEEE7destroyB8ue170006INS_4pairIKS8_SA_EEvvEEvRSE_PT_, symObjAddr: 0xD6AC, symBinAddr: 0x10000F2A4, symSize: 0x28 }
  - { offsetInCU: 0x32CC3, offset: 0x32CC3, size: 0x8, addend: 0x0, symName: __ZNSt3__122__hash_key_value_typesINS_17__hash_value_typeINS_12basic_stringIcNS_11char_traitsIcEENS_9allocatorIcEEEEP9BasicMeshEEE9__get_ptrB8ue170006ERSA_, symObjAddr: 0xD6D4, symBinAddr: 0x10000F2CC, symSize: 0x24 }
  - { offsetInCU: 0x32CE6, offset: 0x32CE6, size: 0x8, addend: 0x0, symName: __ZNSt3__116allocator_traitsINS_9allocatorINS_11__hash_nodeINS_17__hash_value_typeINS_12basic_stringIcNS_11char_traitsIcEENS1_IcEEEEP9BasicMeshEEPvEEEEE10deallocateB8ue170006ERSE_PSD_m, symObjAddr: 0xD6F8, symBinAddr: 0x10000F2F0, symSize: 0x34 }
  - { offsetInCU: 0x32D28, offset: 0x32D28, size: 0x8, addend: 0x0, symName: __ZNSt3__117__compressed_pairINS_16__hash_node_baseIPNS_11__hash_nodeINS_17__hash_value_typeINS_12basic_stringIcNS_11char_traitsIcEENS_9allocatorIcEEEEP9BasicMeshEEPvEEEENS7_ISE_EEE6secondB8ue170006Ev, symObjAddr: 0xD72C, symBinAddr: 0x10000F324, symSize: 0x24 }
  - { offsetInCU: 0x32D4E, offset: 0x32D4E, size: 0x8, addend: 0x0, symName: __ZNSt3__122__compressed_pair_elemINS_9allocatorINS_11__hash_nodeINS_17__hash_value_typeINS_12basic_stringIcNS_11char_traitsIcEENS1_IcEEEEP9BasicMeshEEPvEEEELi1ELb1EE5__getB8ue170006Ev, symObjAddr: 0xD750, symBinAddr: 0x10000F348, symSize: 0x14 }
  - { offsetInCU: 0x32D74, offset: 0x32D74, size: 0x8, addend: 0x0, symName: __ZNSt3__114pointer_traitsIPNS_16__hash_node_baseIPNS_11__hash_nodeINS_17__hash_value_typeINS_12basic_stringIcNS_11char_traitsIcEENS_9allocatorIcEEEEP9BasicMeshEEPvEEEEE10pointer_toB8ue170006ERSG_, symObjAddr: 0xD764, symBinAddr: 0x10000F35C, symSize: 0x14 }
  - { offsetInCU: 0x32D97, offset: 0x32D97, size: 0x8, addend: 0x0, symName: __ZNSt3__14pairIKNS_12basic_stringIcNS_11char_traitsIcEENS_9allocatorIcEEEEP9BasicMeshED1Ev, symObjAddr: 0xD778, symBinAddr: 0x10000F370, symSize: 0x2C }
  - { offsetInCU: 0x32DC3, offset: 0x32DC3, size: 0x8, addend: 0x0, symName: __ZNSt3__14pairIKNS_12basic_stringIcNS_11char_traitsIcEENS_9allocatorIcEEEEP9BasicMeshED2Ev, symObjAddr: 0xD7A4, symBinAddr: 0x10000F39C, symSize: 0x2C }
  - { offsetInCU: 0x32DEF, offset: 0x32DEF, size: 0x8, addend: 0x0, symName: __ZNSt3__117__hash_value_typeINS_12basic_stringIcNS_11char_traitsIcEENS_9allocatorIcEEEEP9BasicMeshE11__get_valueB8ue170006Ev, symObjAddr: 0xD7D0, symBinAddr: 0x10000F3C8, symSize: 0x24 }
  - { offsetInCU: 0x32E15, offset: 0x32E15, size: 0x8, addend: 0x0, symName: __ZNSt3__19allocatorINS_11__hash_nodeINS_17__hash_value_typeINS_12basic_stringIcNS_11char_traitsIcEENS0_IcEEEEP9BasicMeshEEPvEEE10deallocateB8ue170006EPSC_m, symObjAddr: 0xD82C, symBinAddr: 0x10000F424, symSize: 0x50 }
  - { offsetInCU: 0x32E57, offset: 0x32E57, size: 0x8, addend: 0x0, symName: __ZNSt3__122__compressed_pair_elemINS_16__hash_node_baseIPNS_11__hash_nodeINS_17__hash_value_typeINS_12basic_stringIcNS_11char_traitsIcEENS_9allocatorIcEEEEP9BasicMeshEEPvEEEELi0ELb0EE5__getB8ue170006Ev, symObjAddr: 0xD87C, symBinAddr: 0x10000F474, symSize: 0x14 }
  - { offsetInCU: 0x32E7D, offset: 0x32E7D, size: 0x8, addend: 0x0, symName: __ZNSt3__110unique_ptrIA_PNS_16__hash_node_baseIPNS_11__hash_nodeINS_17__hash_value_typeINS_12basic_stringIcNS_11char_traitsIcEENS_9allocatorIcEEEEP9BasicMeshEEPvEEEENS_25__bucket_list_deallocatorINS7_ISH_EEEEED2B8ue170006Ev, symObjAddr: 0xD890, symBinAddr: 0x10000F488, symSize: 0x30 }
  - { offsetInCU: 0x32EA7, offset: 0x32EA7, size: 0x8, addend: 0x0, symName: __ZNSt3__110unique_ptrIA_PNS_16__hash_node_baseIPNS_11__hash_nodeINS_17__hash_value_typeINS_12basic_stringIcNS_11char_traitsIcEENS_9allocatorIcEEEEP9BasicMeshEEPvEEEENS_25__bucket_list_deallocatorINS7_ISH_EEEEE5resetB8ue170006EDn, symObjAddr: 0xD8C0, symBinAddr: 0x10000F4B8, symSize: 0xE0 }
  - { offsetInCU: 0x32EE7, offset: 0x32EE7, size: 0x8, addend: 0x0, symName: __ZNSt3__117__compressed_pairIPPNS_16__hash_node_baseIPNS_11__hash_nodeINS_17__hash_value_typeINS_12basic_stringIcNS_11char_traitsIcEENS_9allocatorIcEEEEP9BasicMeshEEPvEEEENS_25__bucket_list_deallocatorINS7_ISH_EEEEE5firstB8ue170006Ev, symObjAddr: 0xD9A0, symBinAddr: 0x10000F598, symSize: 0x24 }
  - { offsetInCU: 0x32F0D, offset: 0x32F0D, size: 0x8, addend: 0x0, symName: __ZNSt3__117__compressed_pairIPPNS_16__hash_node_baseIPNS_11__hash_nodeINS_17__hash_value_typeINS_12basic_stringIcNS_11char_traitsIcEENS_9allocatorIcEEEEP9BasicMeshEEPvEEEENS_25__bucket_list_deallocatorINS7_ISH_EEEEE6secondB8ue170006Ev, symObjAddr: 0xD9C4, symBinAddr: 0x10000F5BC, symSize: 0x28 }
  - { offsetInCU: 0x32F33, offset: 0x32F33, size: 0x8, addend: 0x0, symName: __ZNSt3__125__bucket_list_deallocatorINS_9allocatorIPNS_16__hash_node_baseIPNS_11__hash_nodeINS_17__hash_value_typeINS_12basic_stringIcNS_11char_traitsIcEENS1_IcEEEEP9BasicMeshEEPvEEEEEEEclB8ue170006EPSH_, symObjAddr: 0xD9EC, symBinAddr: 0x10000F5E4, symSize: 0x98 }
  - { offsetInCU: 0x32F68, offset: 0x32F68, size: 0x8, addend: 0x0, symName: __ZNSt3__122__compressed_pair_elemIPPNS_16__hash_node_baseIPNS_11__hash_nodeINS_17__hash_value_typeINS_12basic_stringIcNS_11char_traitsIcEENS_9allocatorIcEEEEP9BasicMeshEEPvEEEELi0ELb0EE5__getB8ue170006Ev, symObjAddr: 0xDA84, symBinAddr: 0x10000F67C, symSize: 0x14 }
  - { offsetInCU: 0x32F8E, offset: 0x32F8E, size: 0x8, addend: 0x0, symName: __ZNSt3__122__compressed_pair_elemINS_25__bucket_list_deallocatorINS_9allocatorIPNS_16__hash_node_baseIPNS_11__hash_nodeINS_17__hash_value_typeINS_12basic_stringIcNS_11char_traitsIcEENS2_IcEEEEP9BasicMeshEEPvEEEEEEEELi1ELb0EE5__getB8ue170006Ev, symObjAddr: 0xDA98, symBinAddr: 0x10000F690, symSize: 0x14 }
  - { offsetInCU: 0x32FB4, offset: 0x32FB4, size: 0x8, addend: 0x0, symName: __ZNSt3__116allocator_traitsINS_9allocatorIPNS_16__hash_node_baseIPNS_11__hash_nodeINS_17__hash_value_typeINS_12basic_stringIcNS_11char_traitsIcEENS1_IcEEEEP9BasicMeshEEPvEEEEEEE10deallocateB8ue170006ERSI_PSH_m, symObjAddr: 0xDAAC, symBinAddr: 0x10000F6A4, symSize: 0x34 }
  - { offsetInCU: 0x32FF6, offset: 0x32FF6, size: 0x8, addend: 0x0, symName: __ZNSt3__125__bucket_list_deallocatorINS_9allocatorIPNS_16__hash_node_baseIPNS_11__hash_nodeINS_17__hash_value_typeINS_12basic_stringIcNS_11char_traitsIcEENS1_IcEEEEP9BasicMeshEEPvEEEEEEE7__allocB8ue170006Ev, symObjAddr: 0xDAE0, symBinAddr: 0x10000F6D8, symSize: 0x24 }
  - { offsetInCU: 0x3301C, offset: 0x3301C, size: 0x8, addend: 0x0, symName: __ZNSt3__125__bucket_list_deallocatorINS_9allocatorIPNS_16__hash_node_baseIPNS_11__hash_nodeINS_17__hash_value_typeINS_12basic_stringIcNS_11char_traitsIcEENS1_IcEEEEP9BasicMeshEEPvEEEEEEE4sizeB8ue170006Ev, symObjAddr: 0xDB04, symBinAddr: 0x10000F6FC, symSize: 0x24 }
  - { offsetInCU: 0x33042, offset: 0x33042, size: 0x8, addend: 0x0, symName: __ZNSt3__19allocatorIPNS_16__hash_node_baseIPNS_11__hash_nodeINS_17__hash_value_typeINS_12basic_stringIcNS_11char_traitsIcEENS0_IcEEEEP9BasicMeshEEPvEEEEE10deallocateB8ue170006EPSG_m, symObjAddr: 0xDB28, symBinAddr: 0x10000F720, symSize: 0x4C }
  - { offsetInCU: 0x33084, offset: 0x33084, size: 0x8, addend: 0x0, symName: __ZNSt3__117__compressed_pairImNS_9allocatorIPNS_16__hash_node_baseIPNS_11__hash_nodeINS_17__hash_value_typeINS_12basic_stringIcNS_11char_traitsIcEENS1_IcEEEEP9BasicMeshEEPvEEEEEEE6secondB8ue170006Ev, symObjAddr: 0xDB74, symBinAddr: 0x10000F76C, symSize: 0x24 }
  - { offsetInCU: 0x330AA, offset: 0x330AA, size: 0x8, addend: 0x0, symName: __ZNSt3__122__compressed_pair_elemINS_9allocatorIPNS_16__hash_node_baseIPNS_11__hash_nodeINS_17__hash_value_typeINS_12basic_stringIcNS_11char_traitsIcEENS1_IcEEEEP9BasicMeshEEPvEEEEEELi1ELb1EE5__getB8ue170006Ev, symObjAddr: 0xDB98, symBinAddr: 0x10000F790, symSize: 0x14 }
  - { offsetInCU: 0x330D0, offset: 0x330D0, size: 0x8, addend: 0x0, symName: __ZNSt3__117__compressed_pairImNS_9allocatorIPNS_16__hash_node_baseIPNS_11__hash_nodeINS_17__hash_value_typeINS_12basic_stringIcNS_11char_traitsIcEENS1_IcEEEEP9BasicMeshEEPvEEEEEEE5firstB8ue170006Ev, symObjAddr: 0xDBAC, symBinAddr: 0x10000F7A4, symSize: 0x24 }
  - { offsetInCU: 0x330F6, offset: 0x330F6, size: 0x8, addend: 0x0, symName: __ZN8SObjectsD2Ev, symObjAddr: 0xDBD0, symBinAddr: 0x10000F7C8, symSize: 0x2C }
  - { offsetInCU: 0x33120, offset: 0x33120, size: 0x8, addend: 0x0, symName: __ZN6SkyboxD2Ev, symObjAddr: 0xDBFC, symBinAddr: 0x10000F7F4, symSize: 0xAC }
  - { offsetInCU: 0x3314F, offset: 0x3314F, size: 0x8, addend: 0x0, symName: __ZN3TexD1Ev, symObjAddr: 0xDCA8, symBinAddr: 0x10000F8A0, symSize: 0x2C }
  - { offsetInCU: 0x3317B, offset: 0x3317B, size: 0x8, addend: 0x0, symName: __ZNSt3__16vectorINS_12basic_stringIcNS_11char_traitsIcEENS_9allocatorIcEEEENS4_IS6_EEED1B8ue170006Ev, symObjAddr: 0xDCD4, symBinAddr: 0x10000F8CC, symSize: 0x2C }
  - { offsetInCU: 0x331A5, offset: 0x331A5, size: 0x8, addend: 0x0, symName: __ZN3TexD2Ev, symObjAddr: 0xDD00, symBinAddr: 0x10000F8F8, symSize: 0x30 }
  - { offsetInCU: 0x331D1, offset: 0x331D1, size: 0x8, addend: 0x0, symName: __ZNSt3__16vectorINS_12basic_stringIcNS_11char_traitsIcEENS_9allocatorIcEEEENS4_IS6_EEED2B8ue170006Ev, symObjAddr: 0xDD30, symBinAddr: 0x10000F928, symSize: 0x1F8 }
  - { offsetInCU: 0x331FC, offset: 0x331FC, size: 0x8, addend: 0x0, symName: __ZNSt3__16vectorINS_12basic_stringIcNS_11char_traitsIcEENS_9allocatorIcEEEENS4_IS6_EEE16__destroy_vectorC1B8ue170006ERS8_, symObjAddr: 0xDF28, symBinAddr: 0x10000FB20, symSize: 0x34 }
  - { offsetInCU: 0x33235, offset: 0x33235, size: 0x8, addend: 0x0, symName: __ZNSt3__16vectorINS_12basic_stringIcNS_11char_traitsIcEENS_9allocatorIcEEEENS4_IS6_EEE16__destroy_vectorclB8ue170006Ev, symObjAddr: 0xDF5C, symBinAddr: 0x10000FB54, symSize: 0x228 }
  - { offsetInCU: 0x3325B, offset: 0x3325B, size: 0x8, addend: 0x0, symName: __ZNSt3__16vectorINS_12basic_stringIcNS_11char_traitsIcEENS_9allocatorIcEEEENS4_IS6_EEE16__destroy_vectorC2B8ue170006ERS8_, symObjAddr: 0xE184, symBinAddr: 0x10000FD7C, symSize: 0x70 }
  - { offsetInCU: 0x33294, offset: 0x33294, size: 0x8, addend: 0x0, symName: __ZNSt3__16vectorINS_12basic_stringIcNS_11char_traitsIcEENS_9allocatorIcEEEENS4_IS6_EEE7__clearB8ue170006Ev, symObjAddr: 0xE1F4, symBinAddr: 0x10000FDEC, symSize: 0x64 }
  - { offsetInCU: 0x332BA, offset: 0x332BA, size: 0x8, addend: 0x0, symName: __ZNKSt3__16vectorINS_12basic_stringIcNS_11char_traitsIcEENS_9allocatorIcEEEENS4_IS6_EEE17__annotate_deleteB8ue170006Ev, symObjAddr: 0xE258, symBinAddr: 0x10000FE50, symSize: 0xE8 }
  - { offsetInCU: 0x332E0, offset: 0x332E0, size: 0x8, addend: 0x0, symName: __ZNSt3__116allocator_traitsINS_9allocatorINS_12basic_stringIcNS_11char_traitsIcEENS1_IcEEEEEEE10deallocateB8ue170006ERS7_PS6_m, symObjAddr: 0xE340, symBinAddr: 0x10000FF38, symSize: 0x34 }
  - { offsetInCU: 0x33322, offset: 0x33322, size: 0x8, addend: 0x0, symName: __ZNSt3__16vectorINS_12basic_stringIcNS_11char_traitsIcEENS_9allocatorIcEEEENS4_IS6_EEE7__allocB8ue170006Ev, symObjAddr: 0xE374, symBinAddr: 0x10000FF6C, symSize: 0x28 }
  - { offsetInCU: 0x33348, offset: 0x33348, size: 0x8, addend: 0x0, symName: __ZNKSt3__16vectorINS_12basic_stringIcNS_11char_traitsIcEENS_9allocatorIcEEEENS4_IS6_EEE8capacityB8ue170006Ev, symObjAddr: 0xE39C, symBinAddr: 0x10000FF94, symSize: 0xBC }
  - { offsetInCU: 0x3336E, offset: 0x3336E, size: 0x8, addend: 0x0, symName: __ZNSt3__16vectorINS_12basic_stringIcNS_11char_traitsIcEENS_9allocatorIcEEEENS4_IS6_EEE22__base_destruct_at_endB8ue170006EPS6_, symObjAddr: 0xE458, symBinAddr: 0x100010050, symSize: 0x114 }
  - { offsetInCU: 0x333B2, offset: 0x333B2, size: 0x8, addend: 0x0, symName: __ZNSt3__116allocator_traitsINS_9allocatorINS_12basic_stringIcNS_11char_traitsIcEENS1_IcEEEEEEE7destroyB8ue170006IS6_vEEvRS7_PT_, symObjAddr: 0xE56C, symBinAddr: 0x100010164, symSize: 0x2C }
  - { offsetInCU: 0x333EF, offset: 0x333EF, size: 0x8, addend: 0x0, symName: __ZNSt3__19allocatorINS_12basic_stringIcNS_11char_traitsIcEENS0_IcEEEEE7destroyB8ue170006EPS5_, symObjAddr: 0xE5AC, symBinAddr: 0x1000101A4, symSize: 0x28 }
  - { offsetInCU: 0x33423, offset: 0x33423, size: 0x8, addend: 0x0, symName: __ZNKSt3__16vectorINS_12basic_stringIcNS_11char_traitsIcEENS_9allocatorIcEEEENS4_IS6_EEE31__annotate_contiguous_containerEPKvSA_SA_SA_, symObjAddr: 0xE5D4, symBinAddr: 0x1000101CC, symSize: 0x58 }
  - { offsetInCU: 0x33485, offset: 0x33485, size: 0x8, addend: 0x0, symName: __ZNKSt3__16vectorINS_12basic_stringIcNS_11char_traitsIcEENS_9allocatorIcEEEENS4_IS6_EEE4dataB8ue170006Ev, symObjAddr: 0xE62C, symBinAddr: 0x100010224, symSize: 0x64 }
  - { offsetInCU: 0x334AB, offset: 0x334AB, size: 0x8, addend: 0x0, symName: __ZNKSt3__16vectorINS_12basic_stringIcNS_11char_traitsIcEENS_9allocatorIcEEEENS4_IS6_EEE4sizeB8ue170006Ev, symObjAddr: 0xE690, symBinAddr: 0x100010288, symSize: 0xB0 }
  - { offsetInCU: 0x334D1, offset: 0x334D1, size: 0x8, addend: 0x0, symName: __ZNSt3__19allocatorINS_12basic_stringIcNS_11char_traitsIcEENS0_IcEEEEE10deallocateB8ue170006EPS5_m, symObjAddr: 0xE740, symBinAddr: 0x100010338, symSize: 0x50 }
  - { offsetInCU: 0x33513, offset: 0x33513, size: 0x8, addend: 0x0, symName: __ZNSt3__117__compressed_pairIPNS_12basic_stringIcNS_11char_traitsIcEENS_9allocatorIcEEEENS4_IS6_EEE6secondB8ue170006Ev, symObjAddr: 0xE790, symBinAddr: 0x100010388, symSize: 0x24 }
  - { offsetInCU: 0x33539, offset: 0x33539, size: 0x8, addend: 0x0, symName: __ZNSt3__122__compressed_pair_elemINS_9allocatorINS_12basic_stringIcNS_11char_traitsIcEENS1_IcEEEEEELi1ELb1EE5__getB8ue170006Ev, symObjAddr: 0xE7B4, symBinAddr: 0x1000103AC, symSize: 0x14 }
  - { offsetInCU: 0x3355F, offset: 0x3355F, size: 0x8, addend: 0x0, symName: __ZNKSt3__16vectorINS_12basic_stringIcNS_11char_traitsIcEENS_9allocatorIcEEEENS4_IS6_EEE9__end_capB8ue170006Ev, symObjAddr: 0xE7C8, symBinAddr: 0x1000103C0, symSize: 0x28 }
  - { offsetInCU: 0x33585, offset: 0x33585, size: 0x8, addend: 0x0, symName: __ZNKSt3__117__compressed_pairIPNS_12basic_stringIcNS_11char_traitsIcEENS_9allocatorIcEEEENS4_IS6_EEE5firstB8ue170006Ev, symObjAddr: 0xE7F0, symBinAddr: 0x1000103E8, symSize: 0x24 }
  - { offsetInCU: 0x335AB, offset: 0x335AB, size: 0x8, addend: 0x0, symName: __ZNKSt3__122__compressed_pair_elemIPNS_12basic_stringIcNS_11char_traitsIcEENS_9allocatorIcEEEELi0ELb0EE5__getB8ue170006Ev, symObjAddr: 0xE814, symBinAddr: 0x10001040C, symSize: 0x14 }
  - { offsetInCU: 0x335D1, offset: 0x335D1, size: 0x8, addend: 0x0, symName: __ZN7TerrainD2Ev, symObjAddr: 0xE828, symBinAddr: 0x100010420, symSize: 0x60 }
  - { offsetInCU: 0x33600, offset: 0x33600, size: 0x8, addend: 0x0, symName: __ZN8MaterialD1Ev, symObjAddr: 0xE888, symBinAddr: 0x100010480, symSize: 0x2C }
  - { offsetInCU: 0x3362C, offset: 0x3362C, size: 0x8, addend: 0x0, symName: __ZNSt3__113unordered_mapINS_12basic_stringIcNS_11char_traitsIcEENS_9allocatorIcEEEE14VertexQuadrantNS_4hashIS6_EENS_8equal_toIS6_EENS4_INS_4pairIKS6_S7_EEEEED1B8ue170006Ev, symObjAddr: 0xE8B4, symBinAddr: 0x1000104AC, symSize: 0x2C }
  - { offsetInCU: 0x33656, offset: 0x33656, size: 0x8, addend: 0x0, symName: __ZNSt3__16vectorI6VertexNS_9allocatorIS1_EEED1B8ue170006Ev, symObjAddr: 0xE8E0, symBinAddr: 0x1000104D8, symSize: 0x2C }
  - { offsetInCU: 0x33680, offset: 0x33680, size: 0x8, addend: 0x0, symName: __ZN8MaterialD2Ev, symObjAddr: 0xE90C, symBinAddr: 0x100010504, symSize: 0x30 }
  - { offsetInCU: 0x336AC, offset: 0x336AC, size: 0x8, addend: 0x0, symName: __ZNSt3__16vectorIP9Texture2DNS_9allocatorIS2_EEED1B8ue170006Ev, symObjAddr: 0xE93C, symBinAddr: 0x100010534, symSize: 0x2C }
  - { offsetInCU: 0x336D6, offset: 0x336D6, size: 0x8, addend: 0x0, symName: __ZNSt3__16vectorIP9Texture2DNS_9allocatorIS2_EEED2B8ue170006Ev, symObjAddr: 0xE968, symBinAddr: 0x100010560, symSize: 0x1F8 }
  - { offsetInCU: 0x33701, offset: 0x33701, size: 0x8, addend: 0x0, symName: __ZNSt3__16vectorIP9Texture2DNS_9allocatorIS2_EEE16__destroy_vectorC1B8ue170006ERS5_, symObjAddr: 0xEB60, symBinAddr: 0x100010758, symSize: 0x34 }
  - { offsetInCU: 0x3373A, offset: 0x3373A, size: 0x8, addend: 0x0, symName: __ZNSt3__16vectorIP9Texture2DNS_9allocatorIS2_EEE16__destroy_vectorclB8ue170006Ev, symObjAddr: 0xEB94, symBinAddr: 0x10001078C, symSize: 0x228 }
  - { offsetInCU: 0x33760, offset: 0x33760, size: 0x8, addend: 0x0, symName: __ZNSt3__16vectorIP9Texture2DNS_9allocatorIS2_EEE16__destroy_vectorC2B8ue170006ERS5_, symObjAddr: 0xEDBC, symBinAddr: 0x1000109B4, symSize: 0x70 }
  - { offsetInCU: 0x33799, offset: 0x33799, size: 0x8, addend: 0x0, symName: __ZNSt3__16vectorIP9Texture2DNS_9allocatorIS2_EEE7__clearB8ue170006Ev, symObjAddr: 0xEE2C, symBinAddr: 0x100010A24, symSize: 0x64 }
  - { offsetInCU: 0x337BF, offset: 0x337BF, size: 0x8, addend: 0x0, symName: __ZNKSt3__16vectorIP9Texture2DNS_9allocatorIS2_EEE17__annotate_deleteB8ue170006Ev, symObjAddr: 0xEE90, symBinAddr: 0x100010A88, symSize: 0xCC }
  - { offsetInCU: 0x337E5, offset: 0x337E5, size: 0x8, addend: 0x0, symName: __ZNSt3__116allocator_traitsINS_9allocatorIP9Texture2DEEE10deallocateB8ue170006ERS4_PS3_m, symObjAddr: 0xEF5C, symBinAddr: 0x100010B54, symSize: 0x34 }
  - { offsetInCU: 0x33827, offset: 0x33827, size: 0x8, addend: 0x0, symName: __ZNSt3__16vectorIP9Texture2DNS_9allocatorIS2_EEE7__allocB8ue170006Ev, symObjAddr: 0xEF90, symBinAddr: 0x100010B88, symSize: 0x28 }
  - { offsetInCU: 0x3384D, offset: 0x3384D, size: 0x8, addend: 0x0, symName: __ZNKSt3__16vectorIP9Texture2DNS_9allocatorIS2_EEE8capacityB8ue170006Ev, symObjAddr: 0xEFB8, symBinAddr: 0x100010BB0, symSize: 0xBC }
  - { offsetInCU: 0x33873, offset: 0x33873, size: 0x8, addend: 0x0, symName: __ZNSt3__16vectorIP9Texture2DNS_9allocatorIS2_EEE22__base_destruct_at_endB8ue170006EPS2_, symObjAddr: 0xF074, symBinAddr: 0x100010C6C, symSize: 0x114 }
  - { offsetInCU: 0x338B7, offset: 0x338B7, size: 0x8, addend: 0x0, symName: __ZNSt3__116allocator_traitsINS_9allocatorIP9Texture2DEEE7destroyB8ue170006IS3_vEEvRS4_PT_, symObjAddr: 0xF188, symBinAddr: 0x100010D80, symSize: 0x2C }
  - { offsetInCU: 0x338F4, offset: 0x338F4, size: 0x8, addend: 0x0, symName: __ZNSt3__19allocatorIP9Texture2DE7destroyB8ue170006EPS2_, symObjAddr: 0xF1C8, symBinAddr: 0x100010DC0, symSize: 0x14 }
  - { offsetInCU: 0x33928, offset: 0x33928, size: 0x8, addend: 0x0, symName: __ZNKSt3__16vectorIP9Texture2DNS_9allocatorIS2_EEE31__annotate_contiguous_containerEPKvS7_S7_S7_, symObjAddr: 0xF1DC, symBinAddr: 0x100010DD4, symSize: 0x58 }
  - { offsetInCU: 0x3398A, offset: 0x3398A, size: 0x8, addend: 0x0, symName: __ZNKSt3__16vectorIP9Texture2DNS_9allocatorIS2_EEE4dataB8ue170006Ev, symObjAddr: 0xF234, symBinAddr: 0x100010E2C, symSize: 0x64 }
  - { offsetInCU: 0x339B0, offset: 0x339B0, size: 0x8, addend: 0x0, symName: __ZNKSt3__16vectorIP9Texture2DNS_9allocatorIS2_EEE4sizeB8ue170006Ev, symObjAddr: 0xF298, symBinAddr: 0x100010E90, symSize: 0xB0 }
  - { offsetInCU: 0x339D6, offset: 0x339D6, size: 0x8, addend: 0x0, symName: __ZNSt3__19allocatorIP9Texture2DE10deallocateB8ue170006EPS2_m, symObjAddr: 0xF348, symBinAddr: 0x100010F40, symSize: 0x4C }
  - { offsetInCU: 0x33A18, offset: 0x33A18, size: 0x8, addend: 0x0, symName: __ZNSt3__117__compressed_pairIPP9Texture2DNS_9allocatorIS2_EEE6secondB8ue170006Ev, symObjAddr: 0xF394, symBinAddr: 0x100010F8C, symSize: 0x24 }
  - { offsetInCU: 0x33A3E, offset: 0x33A3E, size: 0x8, addend: 0x0, symName: __ZNSt3__122__compressed_pair_elemINS_9allocatorIP9Texture2DEELi1ELb1EE5__getB8ue170006Ev, symObjAddr: 0xF3B8, symBinAddr: 0x100010FB0, symSize: 0x14 }
  - { offsetInCU: 0x33A64, offset: 0x33A64, size: 0x8, addend: 0x0, symName: __ZNKSt3__16vectorIP9Texture2DNS_9allocatorIS2_EEE9__end_capB8ue170006Ev, symObjAddr: 0xF3CC, symBinAddr: 0x100010FC4, symSize: 0x28 }
  - { offsetInCU: 0x33A8A, offset: 0x33A8A, size: 0x8, addend: 0x0, symName: __ZNKSt3__117__compressed_pairIPP9Texture2DNS_9allocatorIS2_EEE5firstB8ue170006Ev, symObjAddr: 0xF3F4, symBinAddr: 0x100010FEC, symSize: 0x24 }
  - { offsetInCU: 0x33AB0, offset: 0x33AB0, size: 0x8, addend: 0x0, symName: __ZNKSt3__122__compressed_pair_elemIPP9Texture2DLi0ELb0EE5__getB8ue170006Ev, symObjAddr: 0xF418, symBinAddr: 0x100011010, symSize: 0x14 }
  - { offsetInCU: 0x33AD6, offset: 0x33AD6, size: 0x8, addend: 0x0, symName: __ZNSt3__113unordered_mapINS_12basic_stringIcNS_11char_traitsIcEENS_9allocatorIcEEEE14VertexQuadrantNS_4hashIS6_EENS_8equal_toIS6_EENS4_INS_4pairIKS6_S7_EEEEED2B8ue170006Ev, symObjAddr: 0xF42C, symBinAddr: 0x100011024, symSize: 0x2C }
  - { offsetInCU: 0x33B00, offset: 0x33B00, size: 0x8, addend: 0x0, symName: __ZNSt3__112__hash_tableINS_17__hash_value_typeINS_12basic_stringIcNS_11char_traitsIcEENS_9allocatorIcEEEE14VertexQuadrantEENS_22__unordered_map_hasherIS7_S9_NS_4hashIS7_EENS_8equal_toIS7_EELb1EEENS_21__unordered_map_equalIS7_S9_SE_SC_Lb1EEENS5_IS9_EEED1Ev, symObjAddr: 0xF458, symBinAddr: 0x100011050, symSize: 0x2C }
  - { offsetInCU: 0x33B2C, offset: 0x33B2C, size: 0x8, addend: 0x0, symName: __ZNSt3__112__hash_tableINS_17__hash_value_typeINS_12basic_stringIcNS_11char_traitsIcEENS_9allocatorIcEEEE14VertexQuadrantEENS_22__unordered_map_hasherIS7_S9_NS_4hashIS7_EENS_8equal_toIS7_EELb1EEENS_21__unordered_map_equalIS7_S9_SE_SC_Lb1EEENS5_IS9_EEED2Ev, symObjAddr: 0xF484, symBinAddr: 0x10001107C, symSize: 0x88 }
  - { offsetInCU: 0x33B58, offset: 0x33B58, size: 0x8, addend: 0x0, symName: __ZNSt3__112__hash_tableINS_17__hash_value_typeINS_12basic_stringIcNS_11char_traitsIcEENS_9allocatorIcEEEE14VertexQuadrantEENS_22__unordered_map_hasherIS7_S9_NS_4hashIS7_EENS_8equal_toIS7_EELb1EEENS_21__unordered_map_equalIS7_S9_SE_SC_Lb1EEENS5_IS9_EEE17__deallocate_nodeEPNS_16__hash_node_baseIPNS_11__hash_nodeIS9_PvEEEE, symObjAddr: 0xF50C, symBinAddr: 0x100011104, symSize: 0xF8 }
  - { offsetInCU: 0x33BC3, offset: 0x33BC3, size: 0x8, addend: 0x0, symName: __ZNSt3__117__compressed_pairINS_16__hash_node_baseIPNS_11__hash_nodeINS_17__hash_value_typeINS_12basic_stringIcNS_11char_traitsIcEENS_9allocatorIcEEEE14VertexQuadrantEEPvEEEENS7_ISD_EEE5firstB8ue170006Ev, symObjAddr: 0xF604, symBinAddr: 0x1000111FC, symSize: 0x24 }
  - { offsetInCU: 0x33BE9, offset: 0x33BE9, size: 0x8, addend: 0x0, symName: __ZNSt3__110unique_ptrIA_PNS_16__hash_node_baseIPNS_11__hash_nodeINS_17__hash_value_typeINS_12basic_stringIcNS_11char_traitsIcEENS_9allocatorIcEEEE14VertexQuadrantEEPvEEEENS_25__bucket_list_deallocatorINS7_ISG_EEEEED1B8ue170006Ev, symObjAddr: 0xF628, symBinAddr: 0x100011220, symSize: 0x2C }
  - { offsetInCU: 0x33C13, offset: 0x33C13, size: 0x8, addend: 0x0, symName: __ZNSt3__112__hash_tableINS_17__hash_value_typeINS_12basic_stringIcNS_11char_traitsIcEENS_9allocatorIcEEEE14VertexQuadrantEENS_22__unordered_map_hasherIS7_S9_NS_4hashIS7_EENS_8equal_toIS7_EELb1EEENS_21__unordered_map_equalIS7_S9_SE_SC_Lb1EEENS5_IS9_EEE12__node_allocB8ue170006Ev, symObjAddr: 0xF654, symBinAddr: 0x10001124C, symSize: 0x28 }
  - { offsetInCU: 0x33C39, offset: 0x33C39, size: 0x8, addend: 0x0, symName: __ZNSt3__116__hash_node_baseIPNS_11__hash_nodeINS_17__hash_value_typeINS_12basic_stringIcNS_11char_traitsIcEENS_9allocatorIcEEEE14VertexQuadrantEEPvEEE8__upcastB8ue170006Ev, symObjAddr: 0xF67C, symBinAddr: 0x100011274, symSize: 0x24 }
  - { offsetInCU: 0x33C64, offset: 0x33C64, size: 0x8, addend: 0x0, symName: __ZNSt3__116allocator_traitsINS_9allocatorINS_11__hash_nodeINS_17__hash_value_typeINS_12basic_stringIcNS_11char_traitsIcEENS1_IcEEEE14VertexQuadrantEEPvEEEEE7destroyB8ue170006INS_4pairIKS8_S9_EEvvEEvRSD_PT_, symObjAddr: 0xF6A0, symBinAddr: 0x100011298, symSize: 0x28 }
  - { offsetInCU: 0x33C9E, offset: 0x33C9E, size: 0x8, addend: 0x0, symName: __ZNSt3__122__hash_key_value_typesINS_17__hash_value_typeINS_12basic_stringIcNS_11char_traitsIcEENS_9allocatorIcEEEE14VertexQuadrantEEE9__get_ptrB8ue170006ERS9_, symObjAddr: 0xF6C8, symBinAddr: 0x1000112C0, symSize: 0x24 }
  - { offsetInCU: 0x33CC1, offset: 0x33CC1, size: 0x8, addend: 0x0, symName: __ZNSt3__116allocator_traitsINS_9allocatorINS_11__hash_nodeINS_17__hash_value_typeINS_12basic_stringIcNS_11char_traitsIcEENS1_IcEEEE14VertexQuadrantEEPvEEEEE10deallocateB8ue170006ERSD_PSC_m, symObjAddr: 0xF6EC, symBinAddr: 0x1000112E4, symSize: 0x34 }
  - { offsetInCU: 0x33D03, offset: 0x33D03, size: 0x8, addend: 0x0, symName: __ZNSt3__117__compressed_pairINS_16__hash_node_baseIPNS_11__hash_nodeINS_17__hash_value_typeINS_12basic_stringIcNS_11char_traitsIcEENS_9allocatorIcEEEE14VertexQuadrantEEPvEEEENS7_ISD_EEE6secondB8ue170006Ev, symObjAddr: 0xF720, symBinAddr: 0x100011318, symSize: 0x24 }
  - { offsetInCU: 0x33D29, offset: 0x33D29, size: 0x8, addend: 0x0, symName: __ZNSt3__122__compressed_pair_elemINS_9allocatorINS_11__hash_nodeINS_17__hash_value_typeINS_12basic_stringIcNS_11char_traitsIcEENS1_IcEEEE14VertexQuadrantEEPvEEEELi1ELb1EE5__getB8ue170006Ev, symObjAddr: 0xF744, symBinAddr: 0x10001133C, symSize: 0x14 }
  - { offsetInCU: 0x33D4F, offset: 0x33D4F, size: 0x8, addend: 0x0, symName: __ZNSt3__114pointer_traitsIPNS_16__hash_node_baseIPNS_11__hash_nodeINS_17__hash_value_typeINS_12basic_stringIcNS_11char_traitsIcEENS_9allocatorIcEEEE14VertexQuadrantEEPvEEEEE10pointer_toB8ue170006ERSF_, symObjAddr: 0xF758, symBinAddr: 0x100011350, symSize: 0x14 }
  - { offsetInCU: 0x33D72, offset: 0x33D72, size: 0x8, addend: 0x0, symName: __ZNSt3__14pairIKNS_12basic_stringIcNS_11char_traitsIcEENS_9allocatorIcEEEE14VertexQuadrantED1Ev, symObjAddr: 0xF76C, symBinAddr: 0x100011364, symSize: 0x2C }
  - { offsetInCU: 0x33D9E, offset: 0x33D9E, size: 0x8, addend: 0x0, symName: __ZNSt3__14pairIKNS_12basic_stringIcNS_11char_traitsIcEENS_9allocatorIcEEEE14VertexQuadrantED2Ev, symObjAddr: 0xF798, symBinAddr: 0x100011390, symSize: 0x38 }
  - { offsetInCU: 0x33DCF, offset: 0x33DCF, size: 0x8, addend: 0x0, symName: __ZN14VertexQuadrantD1Ev, symObjAddr: 0xF7D0, symBinAddr: 0x1000113C8, symSize: 0x2C }
  - { offsetInCU: 0x33DFB, offset: 0x33DFB, size: 0x8, addend: 0x0, symName: __ZN14VertexQuadrantD2Ev, symObjAddr: 0xF7FC, symBinAddr: 0x1000113F4, symSize: 0x2C }
  - { offsetInCU: 0x33E27, offset: 0x33E27, size: 0x8, addend: 0x0, symName: __ZNSt3__117__hash_value_typeINS_12basic_stringIcNS_11char_traitsIcEENS_9allocatorIcEEEE14VertexQuadrantE11__get_valueB8ue170006Ev, symObjAddr: 0xF828, symBinAddr: 0x100011420, symSize: 0x24 }
  - { offsetInCU: 0x33E4D, offset: 0x33E4D, size: 0x8, addend: 0x0, symName: __ZNSt3__19allocatorINS_11__hash_nodeINS_17__hash_value_typeINS_12basic_stringIcNS_11char_traitsIcEENS0_IcEEEE14VertexQuadrantEEPvEEE10deallocateB8ue170006EPSB_m, symObjAddr: 0xF884, symBinAddr: 0x10001147C, symSize: 0x4C }
  - { offsetInCU: 0x33E8F, offset: 0x33E8F, size: 0x8, addend: 0x0, symName: __ZNSt3__122__compressed_pair_elemINS_16__hash_node_baseIPNS_11__hash_nodeINS_17__hash_value_typeINS_12basic_stringIcNS_11char_traitsIcEENS_9allocatorIcEEEE14VertexQuadrantEEPvEEEELi0ELb0EE5__getB8ue170006Ev, symObjAddr: 0xF8D0, symBinAddr: 0x1000114C8, symSize: 0x14 }
  - { offsetInCU: 0x33EB5, offset: 0x33EB5, size: 0x8, addend: 0x0, symName: __ZNSt3__110unique_ptrIA_PNS_16__hash_node_baseIPNS_11__hash_nodeINS_17__hash_value_typeINS_12basic_stringIcNS_11char_traitsIcEENS_9allocatorIcEEEE14VertexQuadrantEEPvEEEENS_25__bucket_list_deallocatorINS7_ISG_EEEEED2B8ue170006Ev, symObjAddr: 0xF8E4, symBinAddr: 0x1000114DC, symSize: 0x30 }
  - { offsetInCU: 0x33EDF, offset: 0x33EDF, size: 0x8, addend: 0x0, symName: __ZNSt3__110unique_ptrIA_PNS_16__hash_node_baseIPNS_11__hash_nodeINS_17__hash_value_typeINS_12basic_stringIcNS_11char_traitsIcEENS_9allocatorIcEEEE14VertexQuadrantEEPvEEEENS_25__bucket_list_deallocatorINS7_ISG_EEEEE5resetB8ue170006EDn, symObjAddr: 0xF914, symBinAddr: 0x10001150C, symSize: 0xE0 }
  - { offsetInCU: 0x33F1F, offset: 0x33F1F, size: 0x8, addend: 0x0, symName: __ZNSt3__117__compressed_pairIPPNS_16__hash_node_baseIPNS_11__hash_nodeINS_17__hash_value_typeINS_12basic_stringIcNS_11char_traitsIcEENS_9allocatorIcEEEE14VertexQuadrantEEPvEEEENS_25__bucket_list_deallocatorINS7_ISG_EEEEE5firstB8ue170006Ev, symObjAddr: 0xF9F4, symBinAddr: 0x1000115EC, symSize: 0x24 }
  - { offsetInCU: 0x33F45, offset: 0x33F45, size: 0x8, addend: 0x0, symName: __ZNSt3__117__compressed_pairIPPNS_16__hash_node_baseIPNS_11__hash_nodeINS_17__hash_value_typeINS_12basic_stringIcNS_11char_traitsIcEENS_9allocatorIcEEEE14VertexQuadrantEEPvEEEENS_25__bucket_list_deallocatorINS7_ISG_EEEEE6secondB8ue170006Ev, symObjAddr: 0xFA18, symBinAddr: 0x100011610, symSize: 0x28 }
  - { offsetInCU: 0x33F6B, offset: 0x33F6B, size: 0x8, addend: 0x0, symName: __ZNSt3__125__bucket_list_deallocatorINS_9allocatorIPNS_16__hash_node_baseIPNS_11__hash_nodeINS_17__hash_value_typeINS_12basic_stringIcNS_11char_traitsIcEENS1_IcEEEE14VertexQuadrantEEPvEEEEEEEclB8ue170006EPSG_, symObjAddr: 0xFA40, symBinAddr: 0x100011638, symSize: 0x98 }
  - { offsetInCU: 0x33FA0, offset: 0x33FA0, size: 0x8, addend: 0x0, symName: __ZNSt3__122__compressed_pair_elemIPPNS_16__hash_node_baseIPNS_11__hash_nodeINS_17__hash_value_typeINS_12basic_stringIcNS_11char_traitsIcEENS_9allocatorIcEEEE14VertexQuadrantEEPvEEEELi0ELb0EE5__getB8ue170006Ev, symObjAddr: 0xFAD8, symBinAddr: 0x1000116D0, symSize: 0x14 }
  - { offsetInCU: 0x33FC6, offset: 0x33FC6, size: 0x8, addend: 0x0, symName: __ZNSt3__122__compressed_pair_elemINS_25__bucket_list_deallocatorINS_9allocatorIPNS_16__hash_node_baseIPNS_11__hash_nodeINS_17__hash_value_typeINS_12basic_stringIcNS_11char_traitsIcEENS2_IcEEEE14VertexQuadrantEEPvEEEEEEEELi1ELb0EE5__getB8ue170006Ev, symObjAddr: 0xFAEC, symBinAddr: 0x1000116E4, symSize: 0x14 }
  - { offsetInCU: 0x33FEC, offset: 0x33FEC, size: 0x8, addend: 0x0, symName: __ZNSt3__116allocator_traitsINS_9allocatorIPNS_16__hash_node_baseIPNS_11__hash_nodeINS_17__hash_value_typeINS_12basic_stringIcNS_11char_traitsIcEENS1_IcEEEE14VertexQuadrantEEPvEEEEEEE10deallocateB8ue170006ERSH_PSG_m, symObjAddr: 0xFB00, symBinAddr: 0x1000116F8, symSize: 0x34 }
  - { offsetInCU: 0x3402E, offset: 0x3402E, size: 0x8, addend: 0x0, symName: __ZNSt3__125__bucket_list_deallocatorINS_9allocatorIPNS_16__hash_node_baseIPNS_11__hash_nodeINS_17__hash_value_typeINS_12basic_stringIcNS_11char_traitsIcEENS1_IcEEEE14VertexQuadrantEEPvEEEEEEE7__allocB8ue170006Ev, symObjAddr: 0xFB34, symBinAddr: 0x10001172C, symSize: 0x24 }
  - { offsetInCU: 0x34054, offset: 0x34054, size: 0x8, addend: 0x0, symName: __ZNSt3__125__bucket_list_deallocatorINS_9allocatorIPNS_16__hash_node_baseIPNS_11__hash_nodeINS_17__hash_value_typeINS_12basic_stringIcNS_11char_traitsIcEENS1_IcEEEE14VertexQuadrantEEPvEEEEEEE4sizeB8ue170006Ev, symObjAddr: 0xFB58, symBinAddr: 0x100011750, symSize: 0x24 }
  - { offsetInCU: 0x3407A, offset: 0x3407A, size: 0x8, addend: 0x0, symName: __ZNSt3__19allocatorIPNS_16__hash_node_baseIPNS_11__hash_nodeINS_17__hash_value_typeINS_12basic_stringIcNS_11char_traitsIcEENS0_IcEEEE14VertexQuadrantEEPvEEEEE10deallocateB8ue170006EPSF_m, symObjAddr: 0xFB7C, symBinAddr: 0x100011774, symSize: 0x4C }
  - { offsetInCU: 0x340BC, offset: 0x340BC, size: 0x8, addend: 0x0, symName: __ZNSt3__117__compressed_pairImNS_9allocatorIPNS_16__hash_node_baseIPNS_11__hash_nodeINS_17__hash_value_typeINS_12basic_stringIcNS_11char_traitsIcEENS1_IcEEEE14VertexQuadrantEEPvEEEEEEE6secondB8ue170006Ev, symObjAddr: 0xFBC8, symBinAddr: 0x1000117C0, symSize: 0x24 }
  - { offsetInCU: 0x340E2, offset: 0x340E2, size: 0x8, addend: 0x0, symName: __ZNSt3__122__compressed_pair_elemINS_9allocatorIPNS_16__hash_node_baseIPNS_11__hash_nodeINS_17__hash_value_typeINS_12basic_stringIcNS_11char_traitsIcEENS1_IcEEEE14VertexQuadrantEEPvEEEEEELi1ELb1EE5__getB8ue170006Ev, symObjAddr: 0xFBEC, symBinAddr: 0x1000117E4, symSize: 0x14 }
  - { offsetInCU: 0x34108, offset: 0x34108, size: 0x8, addend: 0x0, symName: __ZNSt3__117__compressed_pairImNS_9allocatorIPNS_16__hash_node_baseIPNS_11__hash_nodeINS_17__hash_value_typeINS_12basic_stringIcNS_11char_traitsIcEENS1_IcEEEE14VertexQuadrantEEPvEEEEEEE5firstB8ue170006Ev, symObjAddr: 0xFC00, symBinAddr: 0x1000117F8, symSize: 0x24 }
  - { offsetInCU: 0x3412E, offset: 0x3412E, size: 0x8, addend: 0x0, symName: __ZNSt3__16vectorI6VertexNS_9allocatorIS1_EEED2B8ue170006Ev, symObjAddr: 0xFC24, symBinAddr: 0x10001181C, symSize: 0x1F8 }
  - { offsetInCU: 0x34159, offset: 0x34159, size: 0x8, addend: 0x0, symName: __ZNSt3__16vectorI6VertexNS_9allocatorIS1_EEE16__destroy_vectorC1B8ue170006ERS4_, symObjAddr: 0xFE1C, symBinAddr: 0x100011A14, symSize: 0x34 }
  - { offsetInCU: 0x34192, offset: 0x34192, size: 0x8, addend: 0x0, symName: __ZNSt3__16vectorI6VertexNS_9allocatorIS1_EEE16__destroy_vectorclB8ue170006Ev, symObjAddr: 0xFE50, symBinAddr: 0x100011A48, symSize: 0x228 }
  - { offsetInCU: 0x341B8, offset: 0x341B8, size: 0x8, addend: 0x0, symName: __ZNSt3__16vectorI6VertexNS_9allocatorIS1_EEE16__destroy_vectorC2B8ue170006ERS4_, symObjAddr: 0x10078, symBinAddr: 0x100011C70, symSize: 0x70 }
  - { offsetInCU: 0x341F1, offset: 0x341F1, size: 0x8, addend: 0x0, symName: __ZNSt3__16vectorI6VertexNS_9allocatorIS1_EEE7__clearB8ue170006Ev, symObjAddr: 0x100E8, symBinAddr: 0x100011CE0, symSize: 0x64 }
  - { offsetInCU: 0x34217, offset: 0x34217, size: 0x8, addend: 0x0, symName: __ZNKSt3__16vectorI6VertexNS_9allocatorIS1_EEE17__annotate_deleteB8ue170006Ev, symObjAddr: 0x1014C, symBinAddr: 0x100011D44, symSize: 0xE8 }
  - { offsetInCU: 0x3423D, offset: 0x3423D, size: 0x8, addend: 0x0, symName: __ZNSt3__116allocator_traitsINS_9allocatorI6VertexEEE10deallocateB8ue170006ERS3_PS2_m, symObjAddr: 0x10234, symBinAddr: 0x100011E2C, symSize: 0x34 }
  - { offsetInCU: 0x3427F, offset: 0x3427F, size: 0x8, addend: 0x0, symName: __ZNSt3__16vectorI6VertexNS_9allocatorIS1_EEE7__allocB8ue170006Ev, symObjAddr: 0x10268, symBinAddr: 0x100011E60, symSize: 0x28 }
  - { offsetInCU: 0x342A5, offset: 0x342A5, size: 0x8, addend: 0x0, symName: __ZNKSt3__16vectorI6VertexNS_9allocatorIS1_EEE8capacityB8ue170006Ev, symObjAddr: 0x10290, symBinAddr: 0x100011E88, symSize: 0xBC }
  - { offsetInCU: 0x342CB, offset: 0x342CB, size: 0x8, addend: 0x0, symName: __ZNSt3__16vectorI6VertexNS_9allocatorIS1_EEE22__base_destruct_at_endB8ue170006EPS1_, symObjAddr: 0x1034C, symBinAddr: 0x100011F44, symSize: 0x114 }
  - { offsetInCU: 0x3430F, offset: 0x3430F, size: 0x8, addend: 0x0, symName: __ZNSt3__116allocator_traitsINS_9allocatorI6VertexEEE7destroyB8ue170006IS2_vEEvRS3_PT_, symObjAddr: 0x10460, symBinAddr: 0x100012058, symSize: 0x2C }
  - { offsetInCU: 0x3434C, offset: 0x3434C, size: 0x8, addend: 0x0, symName: __ZNSt3__19allocatorI6VertexE7destroyB8ue170006EPS1_, symObjAddr: 0x104A0, symBinAddr: 0x100012098, symSize: 0x14 }
  - { offsetInCU: 0x34380, offset: 0x34380, size: 0x8, addend: 0x0, symName: __ZNKSt3__16vectorI6VertexNS_9allocatorIS1_EEE31__annotate_contiguous_containerEPKvS6_S6_S6_, symObjAddr: 0x104B4, symBinAddr: 0x1000120AC, symSize: 0x58 }
  - { offsetInCU: 0x343E2, offset: 0x343E2, size: 0x8, addend: 0x0, symName: __ZNKSt3__16vectorI6VertexNS_9allocatorIS1_EEE4dataB8ue170006Ev, symObjAddr: 0x1050C, symBinAddr: 0x100012104, symSize: 0x64 }
  - { offsetInCU: 0x34408, offset: 0x34408, size: 0x8, addend: 0x0, symName: __ZNKSt3__16vectorI6VertexNS_9allocatorIS1_EEE4sizeB8ue170006Ev, symObjAddr: 0x10570, symBinAddr: 0x100012168, symSize: 0xB0 }
  - { offsetInCU: 0x3442E, offset: 0x3442E, size: 0x8, addend: 0x0, symName: __ZNSt3__19allocatorI6VertexE10deallocateB8ue170006EPS1_m, symObjAddr: 0x10620, symBinAddr: 0x100012218, symSize: 0x50 }
  - { offsetInCU: 0x34470, offset: 0x34470, size: 0x8, addend: 0x0, symName: __ZNSt3__117__compressed_pairIP6VertexNS_9allocatorIS1_EEE6secondB8ue170006Ev, symObjAddr: 0x10670, symBinAddr: 0x100012268, symSize: 0x24 }
  - { offsetInCU: 0x34496, offset: 0x34496, size: 0x8, addend: 0x0, symName: __ZNSt3__122__compressed_pair_elemINS_9allocatorI6VertexEELi1ELb1EE5__getB8ue170006Ev, symObjAddr: 0x10694, symBinAddr: 0x10001228C, symSize: 0x14 }
  - { offsetInCU: 0x344BC, offset: 0x344BC, size: 0x8, addend: 0x0, symName: __ZNKSt3__16vectorI6VertexNS_9allocatorIS1_EEE9__end_capB8ue170006Ev, symObjAddr: 0x106A8, symBinAddr: 0x1000122A0, symSize: 0x28 }
  - { offsetInCU: 0x344E2, offset: 0x344E2, size: 0x8, addend: 0x0, symName: __ZNKSt3__117__compressed_pairIP6VertexNS_9allocatorIS1_EEE5firstB8ue170006Ev, symObjAddr: 0x106D0, symBinAddr: 0x1000122C8, symSize: 0x24 }
  - { offsetInCU: 0x34508, offset: 0x34508, size: 0x8, addend: 0x0, symName: __ZNKSt3__122__compressed_pair_elemIP6VertexLi0ELb0EE5__getB8ue170006Ev, symObjAddr: 0x106F4, symBinAddr: 0x1000122EC, symSize: 0x14 }
  - { offsetInCU: 0x3452E, offset: 0x3452E, size: 0x8, addend: 0x0, symName: __ZN16STextureResourceD2Ev, symObjAddr: 0x10708, symBinAddr: 0x100012300, symSize: 0x88 }
  - { offsetInCU: 0x34558, offset: 0x34558, size: 0x8, addend: 0x0, symName: __ZN9UResourceI9Texture2DED2Ev, symObjAddr: 0x10790, symBinAddr: 0x100012388, symSize: 0x80 }
  - { offsetInCU: 0x34584, offset: 0x34584, size: 0x8, addend: 0x0, symName: __ZNSt3__113unordered_mapINS_12basic_stringIcNS_11char_traitsIcEENS_9allocatorIcEEEEP9Texture2DNS_4hashIS6_EENS_8equal_toIS6_EENS4_INS_4pairIKS6_S8_EEEEED1B8ue170006Ev, symObjAddr: 0x10810, symBinAddr: 0x100012408, symSize: 0x2C }
  - { offsetInCU: 0x345AE, offset: 0x345AE, size: 0x8, addend: 0x0, symName: __ZN9UResourceI9Texture2DE15GetAllResourcesEv, symObjAddr: 0x1083C, symBinAddr: 0x100012434, symSize: 0x3C }
  - { offsetInCU: 0x345D4, offset: 0x345D4, size: 0x8, addend: 0x0, symName: __ZNSt3__113unordered_mapINS_12basic_stringIcNS_11char_traitsIcEENS_9allocatorIcEEEEP9Texture2DNS_4hashIS6_EENS_8equal_toIS6_EENS4_INS_4pairIKS6_S8_EEEEED2B8ue170006Ev, symObjAddr: 0x10878, symBinAddr: 0x100012470, symSize: 0x2C }
  - { offsetInCU: 0x345FE, offset: 0x345FE, size: 0x8, addend: 0x0, symName: __ZNSt3__112__hash_tableINS_17__hash_value_typeINS_12basic_stringIcNS_11char_traitsIcEENS_9allocatorIcEEEEP9Texture2DEENS_22__unordered_map_hasherIS7_SA_NS_4hashIS7_EENS_8equal_toIS7_EELb1EEENS_21__unordered_map_equalIS7_SA_SF_SD_Lb1EEENS5_ISA_EEED1Ev, symObjAddr: 0x108A4, symBinAddr: 0x10001249C, symSize: 0x2C }
  - { offsetInCU: 0x3462A, offset: 0x3462A, size: 0x8, addend: 0x0, symName: __ZNSt3__112__hash_tableINS_17__hash_value_typeINS_12basic_stringIcNS_11char_traitsIcEENS_9allocatorIcEEEEP9Texture2DEENS_22__unordered_map_hasherIS7_SA_NS_4hashIS7_EENS_8equal_toIS7_EELb1EEENS_21__unordered_map_equalIS7_SA_SF_SD_Lb1EEENS5_ISA_EEED2Ev, symObjAddr: 0x108D0, symBinAddr: 0x1000124C8, symSize: 0x88 }
  - { offsetInCU: 0x34656, offset: 0x34656, size: 0x8, addend: 0x0, symName: __ZNSt3__112__hash_tableINS_17__hash_value_typeINS_12basic_stringIcNS_11char_traitsIcEENS_9allocatorIcEEEEP9Texture2DEENS_22__unordered_map_hasherIS7_SA_NS_4hashIS7_EENS_8equal_toIS7_EELb1EEENS_21__unordered_map_equalIS7_SA_SF_SD_Lb1EEENS5_ISA_EEE17__deallocate_nodeEPNS_16__hash_node_baseIPNS_11__hash_nodeISA_PvEEEE, symObjAddr: 0x10958, symBinAddr: 0x100012550, symSize: 0xF8 }
  - { offsetInCU: 0x346C1, offset: 0x346C1, size: 0x8, addend: 0x0, symName: __ZNSt3__117__compressed_pairINS_16__hash_node_baseIPNS_11__hash_nodeINS_17__hash_value_typeINS_12basic_stringIcNS_11char_traitsIcEENS_9allocatorIcEEEEP9Texture2DEEPvEEEENS7_ISE_EEE5firstB8ue170006Ev, symObjAddr: 0x10A50, symBinAddr: 0x100012648, symSize: 0x24 }
  - { offsetInCU: 0x346E7, offset: 0x346E7, size: 0x8, addend: 0x0, symName: __ZNSt3__110unique_ptrIA_PNS_16__hash_node_baseIPNS_11__hash_nodeINS_17__hash_value_typeINS_12basic_stringIcNS_11char_traitsIcEENS_9allocatorIcEEEEP9Texture2DEEPvEEEENS_25__bucket_list_deallocatorINS7_ISH_EEEEED1B8ue170006Ev, symObjAddr: 0x10A74, symBinAddr: 0x10001266C, symSize: 0x2C }
  - { offsetInCU: 0x34711, offset: 0x34711, size: 0x8, addend: 0x0, symName: __ZNSt3__112__hash_tableINS_17__hash_value_typeINS_12basic_stringIcNS_11char_traitsIcEENS_9allocatorIcEEEEP9Texture2DEENS_22__unordered_map_hasherIS7_SA_NS_4hashIS7_EENS_8equal_toIS7_EELb1EEENS_21__unordered_map_equalIS7_SA_SF_SD_Lb1EEENS5_ISA_EEE12__node_allocB8ue170006Ev, symObjAddr: 0x10AA0, symBinAddr: 0x100012698, symSize: 0x28 }
  - { offsetInCU: 0x34737, offset: 0x34737, size: 0x8, addend: 0x0, symName: __ZNSt3__116__hash_node_baseIPNS_11__hash_nodeINS_17__hash_value_typeINS_12basic_stringIcNS_11char_traitsIcEENS_9allocatorIcEEEEP9Texture2DEEPvEEE8__upcastB8ue170006Ev, symObjAddr: 0x10AC8, symBinAddr: 0x1000126C0, symSize: 0x24 }
  - { offsetInCU: 0x3475D, offset: 0x3475D, size: 0x8, addend: 0x0, symName: __ZNSt3__116allocator_traitsINS_9allocatorINS_11__hash_nodeINS_17__hash_value_typeINS_12basic_stringIcNS_11char_traitsIcEENS1_IcEEEEP9Texture2DEEPvEEEEE7destroyB8ue170006INS_4pairIKS8_SA_EEvvEEvRSE_PT_, symObjAddr: 0x10AEC, symBinAddr: 0x1000126E4, symSize: 0x28 }
  - { offsetInCU: 0x34797, offset: 0x34797, size: 0x8, addend: 0x0, symName: __ZNSt3__122__hash_key_value_typesINS_17__hash_value_typeINS_12basic_stringIcNS_11char_traitsIcEENS_9allocatorIcEEEEP9Texture2DEEE9__get_ptrB8ue170006ERSA_, symObjAddr: 0x10B14, symBinAddr: 0x10001270C, symSize: 0x24 }
  - { offsetInCU: 0x347BA, offset: 0x347BA, size: 0x8, addend: 0x0, symName: __ZNSt3__116allocator_traitsINS_9allocatorINS_11__hash_nodeINS_17__hash_value_typeINS_12basic_stringIcNS_11char_traitsIcEENS1_IcEEEEP9Texture2DEEPvEEEEE10deallocateB8ue170006ERSE_PSD_m, symObjAddr: 0x10B38, symBinAddr: 0x100012730, symSize: 0x34 }
  - { offsetInCU: 0x347FC, offset: 0x347FC, size: 0x8, addend: 0x0, symName: __ZNSt3__117__compressed_pairINS_16__hash_node_baseIPNS_11__hash_nodeINS_17__hash_value_typeINS_12basic_stringIcNS_11char_traitsIcEENS_9allocatorIcEEEEP9Texture2DEEPvEEEENS7_ISE_EEE6secondB8ue170006Ev, symObjAddr: 0x10B6C, symBinAddr: 0x100012764, symSize: 0x24 }
  - { offsetInCU: 0x34822, offset: 0x34822, size: 0x8, addend: 0x0, symName: __ZNSt3__122__compressed_pair_elemINS_9allocatorINS_11__hash_nodeINS_17__hash_value_typeINS_12basic_stringIcNS_11char_traitsIcEENS1_IcEEEEP9Texture2DEEPvEEEELi1ELb1EE5__getB8ue170006Ev, symObjAddr: 0x10B90, symBinAddr: 0x100012788, symSize: 0x14 }
  - { offsetInCU: 0x34848, offset: 0x34848, size: 0x8, addend: 0x0, symName: __ZNSt3__114pointer_traitsIPNS_16__hash_node_baseIPNS_11__hash_nodeINS_17__hash_value_typeINS_12basic_stringIcNS_11char_traitsIcEENS_9allocatorIcEEEEP9Texture2DEEPvEEEEE10pointer_toB8ue170006ERSG_, symObjAddr: 0x10BA4, symBinAddr: 0x10001279C, symSize: 0x14 }
  - { offsetInCU: 0x3486B, offset: 0x3486B, size: 0x8, addend: 0x0, symName: __ZNSt3__14pairIKNS_12basic_stringIcNS_11char_traitsIcEENS_9allocatorIcEEEEP9Texture2DED1Ev, symObjAddr: 0x10BB8, symBinAddr: 0x1000127B0, symSize: 0x2C }
  - { offsetInCU: 0x34897, offset: 0x34897, size: 0x8, addend: 0x0, symName: __ZNSt3__14pairIKNS_12basic_stringIcNS_11char_traitsIcEENS_9allocatorIcEEEEP9Texture2DED2Ev, symObjAddr: 0x10BE4, symBinAddr: 0x1000127DC, symSize: 0x2C }
  - { offsetInCU: 0x348C3, offset: 0x348C3, size: 0x8, addend: 0x0, symName: __ZNSt3__117__hash_value_typeINS_12basic_stringIcNS_11char_traitsIcEENS_9allocatorIcEEEEP9Texture2DE11__get_valueB8ue170006Ev, symObjAddr: 0x10C10, symBinAddr: 0x100012808, symSize: 0x24 }
  - { offsetInCU: 0x348E9, offset: 0x348E9, size: 0x8, addend: 0x0, symName: __ZNSt3__19allocatorINS_11__hash_nodeINS_17__hash_value_typeINS_12basic_stringIcNS_11char_traitsIcEENS0_IcEEEEP9Texture2DEEPvEEE10deallocateB8ue170006EPSC_m, symObjAddr: 0x10C6C, symBinAddr: 0x100012864, symSize: 0x50 }
  - { offsetInCU: 0x3492B, offset: 0x3492B, size: 0x8, addend: 0x0, symName: __ZNSt3__122__compressed_pair_elemINS_16__hash_node_baseIPNS_11__hash_nodeINS_17__hash_value_typeINS_12basic_stringIcNS_11char_traitsIcEENS_9allocatorIcEEEEP9Texture2DEEPvEEEELi0ELb0EE5__getB8ue170006Ev, symObjAddr: 0x10CBC, symBinAddr: 0x1000128B4, symSize: 0x14 }
  - { offsetInCU: 0x34951, offset: 0x34951, size: 0x8, addend: 0x0, symName: __ZNSt3__110unique_ptrIA_PNS_16__hash_node_baseIPNS_11__hash_nodeINS_17__hash_value_typeINS_12basic_stringIcNS_11char_traitsIcEENS_9allocatorIcEEEEP9Texture2DEEPvEEEENS_25__bucket_list_deallocatorINS7_ISH_EEEEED2B8ue170006Ev, symObjAddr: 0x10CD0, symBinAddr: 0x1000128C8, symSize: 0x30 }
  - { offsetInCU: 0x3497B, offset: 0x3497B, size: 0x8, addend: 0x0, symName: __ZNSt3__110unique_ptrIA_PNS_16__hash_node_baseIPNS_11__hash_nodeINS_17__hash_value_typeINS_12basic_stringIcNS_11char_traitsIcEENS_9allocatorIcEEEEP9Texture2DEEPvEEEENS_25__bucket_list_deallocatorINS7_ISH_EEEEE5resetB8ue170006EDn, symObjAddr: 0x10D00, symBinAddr: 0x1000128F8, symSize: 0xE0 }
  - { offsetInCU: 0x349BB, offset: 0x349BB, size: 0x8, addend: 0x0, symName: __ZNSt3__117__compressed_pairIPPNS_16__hash_node_baseIPNS_11__hash_nodeINS_17__hash_value_typeINS_12basic_stringIcNS_11char_traitsIcEENS_9allocatorIcEEEEP9Texture2DEEPvEEEENS_25__bucket_list_deallocatorINS7_ISH_EEEEE5firstB8ue170006Ev, symObjAddr: 0x10DE0, symBinAddr: 0x1000129D8, symSize: 0x24 }
  - { offsetInCU: 0x349E1, offset: 0x349E1, size: 0x8, addend: 0x0, symName: __ZNSt3__117__compressed_pairIPPNS_16__hash_node_baseIPNS_11__hash_nodeINS_17__hash_value_typeINS_12basic_stringIcNS_11char_traitsIcEENS_9allocatorIcEEEEP9Texture2DEEPvEEEENS_25__bucket_list_deallocatorINS7_ISH_EEEEE6secondB8ue170006Ev, symObjAddr: 0x10E04, symBinAddr: 0x1000129FC, symSize: 0x28 }
  - { offsetInCU: 0x34A07, offset: 0x34A07, size: 0x8, addend: 0x0, symName: __ZNSt3__125__bucket_list_deallocatorINS_9allocatorIPNS_16__hash_node_baseIPNS_11__hash_nodeINS_17__hash_value_typeINS_12basic_stringIcNS_11char_traitsIcEENS1_IcEEEEP9Texture2DEEPvEEEEEEEclB8ue170006EPSH_, symObjAddr: 0x10E2C, symBinAddr: 0x100012A24, symSize: 0x98 }
  - { offsetInCU: 0x34A3C, offset: 0x34A3C, size: 0x8, addend: 0x0, symName: __ZNSt3__122__compressed_pair_elemIPPNS_16__hash_node_baseIPNS_11__hash_nodeINS_17__hash_value_typeINS_12basic_stringIcNS_11char_traitsIcEENS_9allocatorIcEEEEP9Texture2DEEPvEEEELi0ELb0EE5__getB8ue170006Ev, symObjAddr: 0x10EC4, symBinAddr: 0x100012ABC, symSize: 0x14 }
  - { offsetInCU: 0x34A62, offset: 0x34A62, size: 0x8, addend: 0x0, symName: __ZNSt3__122__compressed_pair_elemINS_25__bucket_list_deallocatorINS_9allocatorIPNS_16__hash_node_baseIPNS_11__hash_nodeINS_17__hash_value_typeINS_12basic_stringIcNS_11char_traitsIcEENS2_IcEEEEP9Texture2DEEPvEEEEEEEELi1ELb0EE5__getB8ue170006Ev, symObjAddr: 0x10ED8, symBinAddr: 0x100012AD0, symSize: 0x14 }
  - { offsetInCU: 0x34A88, offset: 0x34A88, size: 0x8, addend: 0x0, symName: __ZNSt3__116allocator_traitsINS_9allocatorIPNS_16__hash_node_baseIPNS_11__hash_nodeINS_17__hash_value_typeINS_12basic_stringIcNS_11char_traitsIcEENS1_IcEEEEP9Texture2DEEPvEEEEEEE10deallocateB8ue170006ERSI_PSH_m, symObjAddr: 0x10EEC, symBinAddr: 0x100012AE4, symSize: 0x34 }
  - { offsetInCU: 0x34ACA, offset: 0x34ACA, size: 0x8, addend: 0x0, symName: __ZNSt3__125__bucket_list_deallocatorINS_9allocatorIPNS_16__hash_node_baseIPNS_11__hash_nodeINS_17__hash_value_typeINS_12basic_stringIcNS_11char_traitsIcEENS1_IcEEEEP9Texture2DEEPvEEEEEEE7__allocB8ue170006Ev, symObjAddr: 0x10F20, symBinAddr: 0x100012B18, symSize: 0x24 }
  - { offsetInCU: 0x34AF0, offset: 0x34AF0, size: 0x8, addend: 0x0, symName: __ZNSt3__125__bucket_list_deallocatorINS_9allocatorIPNS_16__hash_node_baseIPNS_11__hash_nodeINS_17__hash_value_typeINS_12basic_stringIcNS_11char_traitsIcEENS1_IcEEEEP9Texture2DEEPvEEEEEEE4sizeB8ue170006Ev, symObjAddr: 0x10F44, symBinAddr: 0x100012B3C, symSize: 0x24 }
  - { offsetInCU: 0x34B16, offset: 0x34B16, size: 0x8, addend: 0x0, symName: __ZNSt3__19allocatorIPNS_16__hash_node_baseIPNS_11__hash_nodeINS_17__hash_value_typeINS_12basic_stringIcNS_11char_traitsIcEENS0_IcEEEEP9Texture2DEEPvEEEEE10deallocateB8ue170006EPSG_m, symObjAddr: 0x10F68, symBinAddr: 0x100012B60, symSize: 0x4C }
  - { offsetInCU: 0x34B58, offset: 0x34B58, size: 0x8, addend: 0x0, symName: __ZNSt3__117__compressed_pairImNS_9allocatorIPNS_16__hash_node_baseIPNS_11__hash_nodeINS_17__hash_value_typeINS_12basic_stringIcNS_11char_traitsIcEENS1_IcEEEEP9Texture2DEEPvEEEEEEE6secondB8ue170006Ev, symObjAddr: 0x10FB4, symBinAddr: 0x100012BAC, symSize: 0x24 }
  - { offsetInCU: 0x34B7E, offset: 0x34B7E, size: 0x8, addend: 0x0, symName: __ZNSt3__122__compressed_pair_elemINS_9allocatorIPNS_16__hash_node_baseIPNS_11__hash_nodeINS_17__hash_value_typeINS_12basic_stringIcNS_11char_traitsIcEENS1_IcEEEEP9Texture2DEEPvEEEEEELi1ELb1EE5__getB8ue170006Ev, symObjAddr: 0x10FD8, symBinAddr: 0x100012BD0, symSize: 0x14 }
  - { offsetInCU: 0x34BA4, offset: 0x34BA4, size: 0x8, addend: 0x0, symName: __ZNSt3__117__compressed_pairImNS_9allocatorIPNS_16__hash_node_baseIPNS_11__hash_nodeINS_17__hash_value_typeINS_12basic_stringIcNS_11char_traitsIcEENS1_IcEEEEP9Texture2DEEPvEEEEEEE5firstB8ue170006Ev, symObjAddr: 0x10FEC, symBinAddr: 0x100012BE4, symSize: 0x24 }
  - { offsetInCU: 0x34BCA, offset: 0x34BCA, size: 0x8, addend: 0x0, symName: __ZNSt3__113unordered_mapINS_12basic_stringIcNS_11char_traitsIcEENS_9allocatorIcEEEEP9Texture2DNS_4hashIS6_EENS_8equal_toIS6_EENS4_INS_4pairIKS6_S8_EEEEEC1ERKSH_, symObjAddr: 0x11010, symBinAddr: 0x100012C08, symSize: 0x34 }
  - { offsetInCU: 0x34C05, offset: 0x34C05, size: 0x8, addend: 0x0, symName: __ZNSt3__113unordered_mapINS_12basic_stringIcNS_11char_traitsIcEENS_9allocatorIcEEEEP9Texture2DNS_4hashIS6_EENS_8equal_toIS6_EENS4_INS_4pairIKS6_S8_EEEEEC2ERKSH_, symObjAddr: 0x11044, symBinAddr: 0x100012C3C, symSize: 0x3D0 }
  - { offsetInCU: 0x34C42, offset: 0x34C42, size: 0x8, addend: 0x0, symName: __ZNSt3__112__hash_tableINS_17__hash_value_typeINS_12basic_stringIcNS_11char_traitsIcEENS_9allocatorIcEEEEP9Texture2DEENS_22__unordered_map_hasherIS7_SA_NS_4hashIS7_EENS_8equal_toIS7_EELb1EEENS_21__unordered_map_equalIS7_SA_SF_SD_Lb1EEENS5_ISA_EEEC1ERKSK_, symObjAddr: 0x11414, symBinAddr: 0x10001300C, symSize: 0x34 }
  - { offsetInCU: 0x34C7D, offset: 0x34C7D, size: 0x8, addend: 0x0, symName: __ZNSt3__112__hash_tableINS_17__hash_value_typeINS_12basic_stringIcNS_11char_traitsIcEENS_9allocatorIcEEEEP9Texture2DEENS_22__unordered_map_hasherIS7_SA_NS_4hashIS7_EENS_8equal_toIS7_EELb1EEENS_21__unordered_map_equalIS7_SA_SF_SD_Lb1EEENS5_ISA_EEE15__rehash_uniqueB8ue170006Em, symObjAddr: 0x11448, symBinAddr: 0x100013040, symSize: 0x2C }
  - { offsetInCU: 0x34CB2, offset: 0x34CB2, size: 0x8, addend: 0x0, symName: __ZNKSt3__113unordered_mapINS_12basic_stringIcNS_11char_traitsIcEENS_9allocatorIcEEEEP9Texture2DNS_4hashIS6_EENS_8equal_toIS6_EENS4_INS_4pairIKS6_S8_EEEEE12bucket_countB8ue170006Ev, symObjAddr: 0x11474, symBinAddr: 0x10001306C, symSize: 0x24 }
  - { offsetInCU: 0x34CD8, offset: 0x34CD8, size: 0x8, addend: 0x0, symName: __ZNSt3__113unordered_mapINS_12basic_stringIcNS_11char_traitsIcEENS_9allocatorIcEEEEP9Texture2DNS_4hashIS6_EENS_8equal_toIS6_EENS4_INS_4pairIKS6_S8_EEEEE6insertINS_25__hash_map_const_iteratorINS_21__hash_const_iteratorIPNS_11__hash_nodeINS_17__hash_value_typeIS6_S8_EEPvEEEEEEEEvT_ST_, symObjAddr: 0x11498, symBinAddr: 0x100013090, symSize: 0x310 }
  - { offsetInCU: 0x34D30, offset: 0x34D30, size: 0x8, addend: 0x0, symName: __ZNKSt3__113unordered_mapINS_12basic_stringIcNS_11char_traitsIcEENS_9allocatorIcEEEEP9Texture2DNS_4hashIS6_EENS_8equal_toIS6_EENS4_INS_4pairIKS6_S8_EEEEE5beginB8ue170006Ev, symObjAddr: 0x117A8, symBinAddr: 0x1000133A0, symSize: 0x2B4 }
  - { offsetInCU: 0x34D57, offset: 0x34D57, size: 0x8, addend: 0x0, symName: __ZNKSt3__113unordered_mapINS_12basic_stringIcNS_11char_traitsIcEENS_9allocatorIcEEEEP9Texture2DNS_4hashIS6_EENS_8equal_toIS6_EENS4_INS_4pairIKS6_S8_EEEEE3endB8ue170006Ev, symObjAddr: 0x11A5C, symBinAddr: 0x100013654, symSize: 0x2B4 }
  - { offsetInCU: 0x34D7E, offset: 0x34D7E, size: 0x8, addend: 0x0, symName: __ZNSt3__112__hash_tableINS_17__hash_value_typeINS_12basic_stringIcNS_11char_traitsIcEENS_9allocatorIcEEEEP9Texture2DEENS_22__unordered_map_hasherIS7_SA_NS_4hashIS7_EENS_8equal_toIS7_EELb1EEENS_21__unordered_map_equalIS7_SA_SF_SD_Lb1EEENS5_ISA_EEEC2ERKSK_, symObjAddr: 0x11D10, symBinAddr: 0x100013908, symSize: 0x460 }
  - { offsetInCU: 0x34DC5, offset: 0x34DC5, size: 0x8, addend: 0x0, symName: __ZNSt3__116allocator_traitsINS_9allocatorIPNS_16__hash_node_baseIPNS_11__hash_nodeINS_17__hash_value_typeINS_12basic_stringIcNS_11char_traitsIcEENS1_IcEEEEP9Texture2DEEPvEEEEEEE37select_on_container_copy_constructionB8ue170006ISI_vvEESI_RKSI_, symObjAddr: 0x12170, symBinAddr: 0x100013D68, symSize: 0x10 }
  - { offsetInCU: 0x34DF4, offset: 0x34DF4, size: 0x8, addend: 0x0, symName: __ZNKSt3__110unique_ptrIA_PNS_16__hash_node_baseIPNS_11__hash_nodeINS_17__hash_value_typeINS_12basic_stringIcNS_11char_traitsIcEENS_9allocatorIcEEEEP9Texture2DEEPvEEEENS_25__bucket_list_deallocatorINS7_ISH_EEEEE11get_deleterB8ue170006Ev, symObjAddr: 0x12180, symBinAddr: 0x100013D78, symSize: 0x24 }
  - { offsetInCU: 0x34E1A, offset: 0x34E1A, size: 0x8, addend: 0x0, symName: __ZNKSt3__125__bucket_list_deallocatorINS_9allocatorIPNS_16__hash_node_baseIPNS_11__hash_nodeINS_17__hash_value_typeINS_12basic_stringIcNS_11char_traitsIcEENS1_IcEEEEP9Texture2DEEPvEEEEEEE7__allocB8ue170006Ev, symObjAddr: 0x121A4, symBinAddr: 0x100013D9C, symSize: 0x24 }
  - { offsetInCU: 0x34E40, offset: 0x34E40, size: 0x8, addend: 0x0, symName: __ZNSt3__125__bucket_list_deallocatorINS_9allocatorIPNS_16__hash_node_baseIPNS_11__hash_nodeINS_17__hash_value_typeINS_12basic_stringIcNS_11char_traitsIcEENS1_IcEEEEP9Texture2DEEPvEEEEEEEC1B8ue170006ERKSI_m, symObjAddr: 0x121C8, symBinAddr: 0x100013DC0, symSize: 0x3C }
  - { offsetInCU: 0x34E88, offset: 0x34E88, size: 0x8, addend: 0x0, symName: __ZNSt3__110unique_ptrIA_PNS_16__hash_node_baseIPNS_11__hash_nodeINS_17__hash_value_typeINS_12basic_stringIcNS_11char_traitsIcEENS_9allocatorIcEEEEP9Texture2DEEPvEEEENS_25__bucket_list_deallocatorINS7_ISH_EEEEEC1B8ue170006ILb1EvEEDnNS_16__dependent_typeINS_27__unique_ptr_deleter_sfinaeISL_EEXT_EE20__good_rval_ref_typeE, symObjAddr: 0x12204, symBinAddr: 0x100013DFC, symSize: 0x3C }
  - { offsetInCU: 0x34EE1, offset: 0x34EE1, size: 0x8, addend: 0x0, symName: __ZNSt3__116allocator_traitsINS_9allocatorINS_11__hash_nodeINS_17__hash_value_typeINS_12basic_stringIcNS_11char_traitsIcEENS1_IcEEEEP9Texture2DEEPvEEEEE37select_on_container_copy_constructionB8ue170006ISE_vvEESE_RKSE_, symObjAddr: 0x12240, symBinAddr: 0x100013E38, symSize: 0x10 }
  - { offsetInCU: 0x34F10, offset: 0x34F10, size: 0x8, addend: 0x0, symName: __ZNKSt3__112__hash_tableINS_17__hash_value_typeINS_12basic_stringIcNS_11char_traitsIcEENS_9allocatorIcEEEEP9Texture2DEENS_22__unordered_map_hasherIS7_SA_NS_4hashIS7_EENS_8equal_toIS7_EELb1EEENS_21__unordered_map_equalIS7_SA_SF_SD_Lb1EEENS5_ISA_EEE12__node_allocB8ue170006Ev, symObjAddr: 0x12250, symBinAddr: 0x100013E48, symSize: 0x28 }
  - { offsetInCU: 0x34F3B, offset: 0x34F3B, size: 0x8, addend: 0x0, symName: __ZNSt3__117__compressed_pairINS_16__hash_node_baseIPNS_11__hash_nodeINS_17__hash_value_typeINS_12basic_stringIcNS_11char_traitsIcEENS_9allocatorIcEEEEP9Texture2DEEPvEEEENS7_ISE_EEEC1B8ue170006INS_18__default_init_tagESH_EEOT_OT0_, symObjAddr: 0x12278, symBinAddr: 0x100013E70, symSize: 0x3C }
  - { offsetInCU: 0x34F93, offset: 0x34F93, size: 0x8, addend: 0x0, symName: __ZNKSt3__112__hash_tableINS_17__hash_value_typeINS_12basic_stringIcNS_11char_traitsIcEENS_9allocatorIcEEEEP9Texture2DEENS_22__unordered_map_hasherIS7_SA_NS_4hashIS7_EENS_8equal_toIS7_EELb1EEENS_21__unordered_map_equalIS7_SA_SF_SD_Lb1EEENS5_ISA_EEE13hash_functionB8ue170006Ev, symObjAddr: 0x122B4, symBinAddr: 0x100013EAC, symSize: 0x28 }
  - { offsetInCU: 0x34FBE, offset: 0x34FBE, size: 0x8, addend: 0x0, symName: __ZNSt3__117__compressed_pairImNS_22__unordered_map_hasherINS_12basic_stringIcNS_11char_traitsIcEENS_9allocatorIcEEEENS_17__hash_value_typeIS7_P9Texture2DEENS_4hashIS7_EENS_8equal_toIS7_EELb1EEEEC1B8ue170006IiRKSG_EEOT_OT0_, symObjAddr: 0x122DC, symBinAddr: 0x100013ED4, symSize: 0x3C }
  - { offsetInCU: 0x35016, offset: 0x35016, size: 0x8, addend: 0x0, symName: __ZNKSt3__117__compressed_pairIPPNS_16__hash_node_baseIPNS_11__hash_nodeINS_17__hash_value_typeINS_12basic_stringIcNS_11char_traitsIcEENS_9allocatorIcEEEEP9Texture2DEEPvEEEENS_25__bucket_list_deallocatorINS7_ISH_EEEEE6secondB8ue170006Ev, symObjAddr: 0x12318, symBinAddr: 0x100013F10, symSize: 0x28 }
  - { offsetInCU: 0x3503C, offset: 0x3503C, size: 0x8, addend: 0x0, symName: __ZNKSt3__122__compressed_pair_elemINS_25__bucket_list_deallocatorINS_9allocatorIPNS_16__hash_node_baseIPNS_11__hash_nodeINS_17__hash_value_typeINS_12basic_stringIcNS_11char_traitsIcEENS2_IcEEEEP9Texture2DEEPvEEEEEEEELi1ELb0EE5__getB8ue170006Ev, symObjAddr: 0x12340, symBinAddr: 0x100013F38, symSize: 0x14 }
  - { offsetInCU: 0x35062, offset: 0x35062, size: 0x8, addend: 0x0, symName: __ZNKSt3__117__compressed_pairImNS_9allocatorIPNS_16__hash_node_baseIPNS_11__hash_nodeINS_17__hash_value_typeINS_12basic_stringIcNS_11char_traitsIcEENS1_IcEEEEP9Texture2DEEPvEEEEEEE6secondB8ue170006Ev, symObjAddr: 0x12354, symBinAddr: 0x100013F4C, symSize: 0x24 }
  - { offsetInCU: 0x35088, offset: 0x35088, size: 0x8, addend: 0x0, symName: __ZNKSt3__122__compressed_pair_elemINS_9allocatorIPNS_16__hash_node_baseIPNS_11__hash_nodeINS_17__hash_value_typeINS_12basic_stringIcNS_11char_traitsIcEENS1_IcEEEEP9Texture2DEEPvEEEEEELi1ELb1EE5__getB8ue170006Ev, symObjAddr: 0x12378, symBinAddr: 0x100013F70, symSize: 0x14 }
  - { offsetInCU: 0x350AE, offset: 0x350AE, size: 0x8, addend: 0x0, symName: __ZNSt3__125__bucket_list_deallocatorINS_9allocatorIPNS_16__hash_node_baseIPNS_11__hash_nodeINS_17__hash_value_typeINS_12basic_stringIcNS_11char_traitsIcEENS1_IcEEEEP9Texture2DEEPvEEEEEEEC2B8ue170006ERKSI_m, symObjAddr: 0x1238C, symBinAddr: 0x100013F84, symSize: 0x214 }
  - { offsetInCU: 0x350FC, offset: 0x350FC, size: 0x8, addend: 0x0, symName: __ZNSt3__117__compressed_pairImNS_9allocatorIPNS_16__hash_node_baseIPNS_11__hash_nodeINS_17__hash_value_typeINS_12basic_stringIcNS_11char_traitsIcEENS1_IcEEEEP9Texture2DEEPvEEEEEEEC1B8ue170006IRmRKSI_EEOT_OT0_, symObjAddr: 0x125A0, symBinAddr: 0x100014198, symSize: 0x3C }
  - { offsetInCU: 0x35154, offset: 0x35154, size: 0x8, addend: 0x0, symName: __ZNSt3__117__compressed_pairImNS_9allocatorIPNS_16__hash_node_baseIPNS_11__hash_nodeINS_17__hash_value_typeINS_12basic_stringIcNS_11char_traitsIcEENS1_IcEEEEP9Texture2DEEPvEEEEEEEC2B8ue170006IRmRKSI_EEOT_OT0_, symObjAddr: 0x125DC, symBinAddr: 0x1000141D4, symSize: 0x44 }
  - { offsetInCU: 0x351AC, offset: 0x351AC, size: 0x8, addend: 0x0, symName: __ZNSt3__122__compressed_pair_elemImLi0ELb0EEC2B8ue170006IRmvEEOT_, symObjAddr: 0x12620, symBinAddr: 0x100014218, symSize: 0xB0 }
  - { offsetInCU: 0x351EE, offset: 0x351EE, size: 0x8, addend: 0x0, symName: __ZNSt3__122__compressed_pair_elemINS_9allocatorIPNS_16__hash_node_baseIPNS_11__hash_nodeINS_17__hash_value_typeINS_12basic_stringIcNS_11char_traitsIcEENS1_IcEEEEP9Texture2DEEPvEEEEEELi1ELb1EEC2B8ue170006IRKSI_vEEOT_, symObjAddr: 0x126D0, symBinAddr: 0x1000142C8, symSize: 0x18 }
  - { offsetInCU: 0x35230, offset: 0x35230, size: 0x8, addend: 0x0, symName: __ZNSt3__110unique_ptrIA_PNS_16__hash_node_baseIPNS_11__hash_nodeINS_17__hash_value_typeINS_12basic_stringIcNS_11char_traitsIcEENS_9allocatorIcEEEEP9Texture2DEEPvEEEENS_25__bucket_list_deallocatorINS7_ISH_EEEEEC2B8ue170006ILb1EvEEDnNS_16__dependent_typeINS_27__unique_ptr_deleter_sfinaeISL_EEXT_EE20__good_rval_ref_typeE, symObjAddr: 0x126E8, symBinAddr: 0x1000142E0, symSize: 0x22C }
  - { offsetInCU: 0x35282, offset: 0x35282, size: 0x8, addend: 0x0, symName: __ZNSt3__117__compressed_pairIPPNS_16__hash_node_baseIPNS_11__hash_nodeINS_17__hash_value_typeINS_12basic_stringIcNS_11char_traitsIcEENS_9allocatorIcEEEEP9Texture2DEEPvEEEENS_25__bucket_list_deallocatorINS7_ISH_EEEEEC1B8ue170006IDnSL_EEOT_OT0_, symObjAddr: 0x12914, symBinAddr: 0x10001450C, symSize: 0x3C }
  - { offsetInCU: 0x352DA, offset: 0x352DA, size: 0x8, addend: 0x0, symName: __ZNSt3__117__compressed_pairIPPNS_16__hash_node_baseIPNS_11__hash_nodeINS_17__hash_value_typeINS_12basic_stringIcNS_11char_traitsIcEENS_9allocatorIcEEEEP9Texture2DEEPvEEEENS_25__bucket_list_deallocatorINS7_ISH_EEEEEC2B8ue170006IDnSL_EEOT_OT0_, symObjAddr: 0x12950, symBinAddr: 0x100014548, symSize: 0x48 }
  - { offsetInCU: 0x35332, offset: 0x35332, size: 0x8, addend: 0x0, symName: __ZNSt3__122__compressed_pair_elemIPPNS_16__hash_node_baseIPNS_11__hash_nodeINS_17__hash_value_typeINS_12basic_stringIcNS_11char_traitsIcEENS_9allocatorIcEEEEP9Texture2DEEPvEEEELi0ELb0EEC2B8ue170006IDnvEEOT_, symObjAddr: 0x12998, symBinAddr: 0x100014590, symSize: 0x64 }
  - { offsetInCU: 0x35374, offset: 0x35374, size: 0x8, addend: 0x0, symName: __ZNSt3__122__compressed_pair_elemINS_25__bucket_list_deallocatorINS_9allocatorIPNS_16__hash_node_baseIPNS_11__hash_nodeINS_17__hash_value_typeINS_12basic_stringIcNS_11char_traitsIcEENS2_IcEEEEP9Texture2DEEPvEEEEEEEELi1ELb0EEC2B8ue170006ISK_vEEOT_, symObjAddr: 0x129FC, symBinAddr: 0x1000145F4, symSize: 0x34 }
  - { offsetInCU: 0x353B6, offset: 0x353B6, size: 0x8, addend: 0x0, symName: __ZNSt3__125__bucket_list_deallocatorINS_9allocatorIPNS_16__hash_node_baseIPNS_11__hash_nodeINS_17__hash_value_typeINS_12basic_stringIcNS_11char_traitsIcEENS1_IcEEEEP9Texture2DEEPvEEEEEEEC1B8ue170006EOSJ_, symObjAddr: 0x12A30, symBinAddr: 0x100014628, symSize: 0x34 }
  - { offsetInCU: 0x353EF, offset: 0x353EF, size: 0x8, addend: 0x0, symName: __ZNSt3__125__bucket_list_deallocatorINS_9allocatorIPNS_16__hash_node_baseIPNS_11__hash_nodeINS_17__hash_value_typeINS_12basic_stringIcNS_11char_traitsIcEENS1_IcEEEEP9Texture2DEEPvEEEEEEEC2B8ue170006EOSJ_, symObjAddr: 0x12A64, symBinAddr: 0x10001465C, symSize: 0x88 }
  - { offsetInCU: 0x35428, offset: 0x35428, size: 0x8, addend: 0x0, symName: __ZNKSt3__117__compressed_pairINS_16__hash_node_baseIPNS_11__hash_nodeINS_17__hash_value_typeINS_12basic_stringIcNS_11char_traitsIcEENS_9allocatorIcEEEEP9Texture2DEEPvEEEENS7_ISE_EEE6secondB8ue170006Ev, symObjAddr: 0x12AEC, symBinAddr: 0x1000146E4, symSize: 0x24 }
  - { offsetInCU: 0x3544E, offset: 0x3544E, size: 0x8, addend: 0x0, symName: __ZNKSt3__122__compressed_pair_elemINS_9allocatorINS_11__hash_nodeINS_17__hash_value_typeINS_12basic_stringIcNS_11char_traitsIcEENS1_IcEEEEP9Texture2DEEPvEEEELi1ELb1EE5__getB8ue170006Ev, symObjAddr: 0x12B10, symBinAddr: 0x100014708, symSize: 0x14 }
  - { offsetInCU: 0x35474, offset: 0x35474, size: 0x8, addend: 0x0, symName: __ZNSt3__117__compressed_pairINS_16__hash_node_baseIPNS_11__hash_nodeINS_17__hash_value_typeINS_12basic_stringIcNS_11char_traitsIcEENS_9allocatorIcEEEEP9Texture2DEEPvEEEENS7_ISE_EEEC2B8ue170006INS_18__default_init_tagESH_EEOT_OT0_, symObjAddr: 0x12B24, symBinAddr: 0x10001471C, symSize: 0x40 }
  - { offsetInCU: 0x354CC, offset: 0x354CC, size: 0x8, addend: 0x0, symName: __ZNSt3__122__compressed_pair_elemINS_16__hash_node_baseIPNS_11__hash_nodeINS_17__hash_value_typeINS_12basic_stringIcNS_11char_traitsIcEENS_9allocatorIcEEEEP9Texture2DEEPvEEEELi0ELb0EEC2B8ue170006ENS_18__default_init_tagE, symObjAddr: 0x12B64, symBinAddr: 0x10001475C, symSize: 0x2C }
  - { offsetInCU: 0x35501, offset: 0x35501, size: 0x8, addend: 0x0, symName: __ZNSt3__122__compressed_pair_elemINS_9allocatorINS_11__hash_nodeINS_17__hash_value_typeINS_12basic_stringIcNS_11char_traitsIcEENS1_IcEEEEP9Texture2DEEPvEEEELi1ELb1EEC2B8ue170006ISE_vEEOT_, symObjAddr: 0x12B90, symBinAddr: 0x100014788, symSize: 0x18 }
  - { offsetInCU: 0x35543, offset: 0x35543, size: 0x8, addend: 0x0, symName: __ZNSt3__116__hash_node_baseIPNS_11__hash_nodeINS_17__hash_value_typeINS_12basic_stringIcNS_11char_traitsIcEENS_9allocatorIcEEEEP9Texture2DEEPvEEEC1B8ue170006Ev, symObjAddr: 0x12BA8, symBinAddr: 0x1000147A0, symSize: 0x2C }
  - { offsetInCU: 0x3556D, offset: 0x3556D, size: 0x8, addend: 0x0, symName: __ZNSt3__116__hash_node_baseIPNS_11__hash_nodeINS_17__hash_value_typeINS_12basic_stringIcNS_11char_traitsIcEENS_9allocatorIcEEEEP9Texture2DEEPvEEEC2B8ue170006Ev, symObjAddr: 0x12BD4, symBinAddr: 0x1000147CC, symSize: 0x60 }
  - { offsetInCU: 0x35597, offset: 0x35597, size: 0x8, addend: 0x0, symName: __ZNKSt3__117__compressed_pairImNS_22__unordered_map_hasherINS_12basic_stringIcNS_11char_traitsIcEENS_9allocatorIcEEEENS_17__hash_value_typeIS7_P9Texture2DEENS_4hashIS7_EENS_8equal_toIS7_EELb1EEEE6secondB8ue170006Ev, symObjAddr: 0x12C34, symBinAddr: 0x10001482C, symSize: 0x24 }
  - { offsetInCU: 0x355BD, offset: 0x355BD, size: 0x8, addend: 0x0, symName: __ZNKSt3__122__compressed_pair_elemINS_22__unordered_map_hasherINS_12basic_stringIcNS_11char_traitsIcEENS_9allocatorIcEEEENS_17__hash_value_typeIS7_P9Texture2DEENS_4hashIS7_EENS_8equal_toIS7_EELb1EEELi1ELb1EE5__getB8ue170006Ev, symObjAddr: 0x12C58, symBinAddr: 0x100014850, symSize: 0x14 }
  - { offsetInCU: 0x355E3, offset: 0x355E3, size: 0x8, addend: 0x0, symName: __ZNSt3__117__compressed_pairImNS_22__unordered_map_hasherINS_12basic_stringIcNS_11char_traitsIcEENS_9allocatorIcEEEENS_17__hash_value_typeIS7_P9Texture2DEENS_4hashIS7_EENS_8equal_toIS7_EELb1EEEEC2B8ue170006IiRKSG_EEOT_OT0_, symObjAddr: 0x12C6C, symBinAddr: 0x100014864, symSize: 0x44 }
  - { offsetInCU: 0x3563B, offset: 0x3563B, size: 0x8, addend: 0x0, symName: __ZNSt3__122__compressed_pair_elemImLi0ELb0EEC2B8ue170006IivEEOT_, symObjAddr: 0x12CB0, symBinAddr: 0x1000148A8, symSize: 0xD8 }
  - { offsetInCU: 0x3567D, offset: 0x3567D, size: 0x8, addend: 0x0, symName: __ZNSt3__122__compressed_pair_elemINS_22__unordered_map_hasherINS_12basic_stringIcNS_11char_traitsIcEENS_9allocatorIcEEEENS_17__hash_value_typeIS7_P9Texture2DEENS_4hashIS7_EENS_8equal_toIS7_EELb1EEELi1ELb1EEC2B8ue170006IRKSG_vEEOT_, symObjAddr: 0x12D88, symBinAddr: 0x100014980, symSize: 0x18 }
  - { offsetInCU: 0x356BF, offset: 0x356BF, size: 0x8, addend: 0x0, symName: __ZNSt3__112__hash_tableINS_17__hash_value_typeINS_12basic_stringIcNS_11char_traitsIcEENS_9allocatorIcEEEEP9Texture2DEENS_22__unordered_map_hasherIS7_SA_NS_4hashIS7_EENS_8equal_toIS7_EELb1EEENS_21__unordered_map_equalIS7_SA_SF_SD_Lb1EEENS5_ISA_EEE8__rehashILb1EEEvm, symObjAddr: 0x12DA0, symBinAddr: 0x100014998, symSize: 0x784 }
  - { offsetInCU: 0x35715, offset: 0x35715, size: 0x8, addend: 0x0, symName: __ZNKSt3__112__hash_tableINS_17__hash_value_typeINS_12basic_stringIcNS_11char_traitsIcEENS_9allocatorIcEEEEP9Texture2DEENS_22__unordered_map_hasherIS7_SA_NS_4hashIS7_EENS_8equal_toIS7_EELb1EEENS_21__unordered_map_equalIS7_SA_SF_SD_Lb1EEENS5_ISA_EEE12bucket_countB8ue170006Ev, symObjAddr: 0x13524, symBinAddr: 0x10001511C, symSize: 0x28 }
  - { offsetInCU: 0x3573B, offset: 0x3573B, size: 0x8, addend: 0x0, symName: __ZNSt3__112__hash_tableINS_17__hash_value_typeINS_12basic_stringIcNS_11char_traitsIcEENS_9allocatorIcEEEEP9Texture2DEENS_22__unordered_map_hasherIS7_SA_NS_4hashIS7_EENS_8equal_toIS7_EELb1EEENS_21__unordered_map_equalIS7_SA_SF_SD_Lb1EEENS5_ISA_EEE11__do_rehashILb1EEEvm, symObjAddr: 0x1354C, symBinAddr: 0x100015144, symSize: 0x5BC }
  - { offsetInCU: 0x3581F, offset: 0x3581F, size: 0x8, addend: 0x0, symName: __Z4ceilB8ue170006f, symObjAddr: 0x13BF0, symBinAddr: 0x1000157E8, symSize: 0x18 }
  - { offsetInCU: 0x3584E, offset: 0x3584E, size: 0x8, addend: 0x0, symName: __ZNSt3__112__hash_tableINS_17__hash_value_typeINS_12basic_stringIcNS_11char_traitsIcEENS_9allocatorIcEEEEP9Texture2DEENS_22__unordered_map_hasherIS7_SA_NS_4hashIS7_EENS_8equal_toIS7_EELb1EEENS_21__unordered_map_equalIS7_SA_SF_SD_Lb1EEENS5_ISA_EEE4sizeB8ue170006Ev, symObjAddr: 0x13C08, symBinAddr: 0x100015800, symSize: 0x28 }
  - { offsetInCU: 0x35874, offset: 0x35874, size: 0x8, addend: 0x0, symName: __ZNSt3__112__hash_tableINS_17__hash_value_typeINS_12basic_stringIcNS_11char_traitsIcEENS_9allocatorIcEEEEP9Texture2DEENS_22__unordered_map_hasherIS7_SA_NS_4hashIS7_EENS_8equal_toIS7_EELb1EEENS_21__unordered_map_equalIS7_SA_SF_SD_Lb1EEENS5_ISA_EEE15max_load_factorB8ue170006Ev, symObjAddr: 0x13C30, symBinAddr: 0x100015828, symSize: 0x28 }
  - { offsetInCU: 0x3589A, offset: 0x3589A, size: 0x8, addend: 0x0, symName: __ZNKSt3__125__bucket_list_deallocatorINS_9allocatorIPNS_16__hash_node_baseIPNS_11__hash_nodeINS_17__hash_value_typeINS_12basic_stringIcNS_11char_traitsIcEENS1_IcEEEEP9Texture2DEEPvEEEEEEE4sizeB8ue170006Ev, symObjAddr: 0x13C58, symBinAddr: 0x100015850, symSize: 0x6C }
  - { offsetInCU: 0x358C0, offset: 0x358C0, size: 0x8, addend: 0x0, symName: __ZNKSt3__117__compressed_pairImNS_9allocatorIPNS_16__hash_node_baseIPNS_11__hash_nodeINS_17__hash_value_typeINS_12basic_stringIcNS_11char_traitsIcEENS1_IcEEEEP9Texture2DEEPvEEEEEEE5firstB8ue170006Ev, symObjAddr: 0x13CC4, symBinAddr: 0x1000158BC, symSize: 0x24 }
  - { offsetInCU: 0x358E6, offset: 0x358E6, size: 0x8, addend: 0x0, symName: __ZNKSt3__122__compressed_pair_elemImLi0ELb0EE5__getB8ue170006Ev, symObjAddr: 0x13CE8, symBinAddr: 0x1000158E0, symSize: 0x14 }
  - { offsetInCU: 0x3590C, offset: 0x3590C, size: 0x8, addend: 0x0, symName: __ZNSt3__110unique_ptrIA_PNS_16__hash_node_baseIPNS_11__hash_nodeINS_17__hash_value_typeINS_12basic_stringIcNS_11char_traitsIcEENS_9allocatorIcEEEEP9Texture2DEEPvEEEENS_25__bucket_list_deallocatorINS7_ISH_EEEEE11get_deleterB8ue170006Ev, symObjAddr: 0x13CFC, symBinAddr: 0x1000158F4, symSize: 0x24 }
  - { offsetInCU: 0x35932, offset: 0x35932, size: 0x8, addend: 0x0, symName: __ZNSt3__110unique_ptrIA_PNS_16__hash_node_baseIPNS_11__hash_nodeINS_17__hash_value_typeINS_12basic_stringIcNS_11char_traitsIcEENS_9allocatorIcEEEEP9Texture2DEEPvEEEENS_25__bucket_list_deallocatorINS7_ISH_EEEEE5resetB8ue170006IPSH_EENS_9enable_ifIXsr28_CheckArrayPointerConversionIT_EE5valueEvE4typeESQ_, symObjAddr: 0x13D20, symBinAddr: 0x100015918, symSize: 0xEC }
  - { offsetInCU: 0x3597F, offset: 0x3597F, size: 0x8, addend: 0x0, symName: __ZNSt3__116allocator_traitsINS_9allocatorIPNS_16__hash_node_baseIPNS_11__hash_nodeINS_17__hash_value_typeINS_12basic_stringIcNS_11char_traitsIcEENS1_IcEEEEP9Texture2DEEPvEEEEEEE8allocateB8ue170006ERSI_m, symObjAddr: 0x13E0C, symBinAddr: 0x100015A04, symSize: 0x2C }
  - { offsetInCU: 0x359B2, offset: 0x359B2, size: 0x8, addend: 0x0, symName: __ZNKSt3__110unique_ptrIA_PNS_16__hash_node_baseIPNS_11__hash_nodeINS_17__hash_value_typeINS_12basic_stringIcNS_11char_traitsIcEENS_9allocatorIcEEEEP9Texture2DEEPvEEEENS_25__bucket_list_deallocatorINS7_ISH_EEEEEixB8ue170006Em, symObjAddr: 0x13E38, symBinAddr: 0x100015A30, symSize: 0x78 }
  - { offsetInCU: 0x359E7, offset: 0x359E7, size: 0x8, addend: 0x0, symName: __ZNSt3__116__hash_node_baseIPNS_11__hash_nodeINS_17__hash_value_typeINS_12basic_stringIcNS_11char_traitsIcEENS_9allocatorIcEEEEP9Texture2DEEPvEEE5__ptrB8ue170006Ev, symObjAddr: 0x13EB0, symBinAddr: 0x100015AA8, symSize: 0x24 }
  - { offsetInCU: 0x35A0D, offset: 0x35A0D, size: 0x8, addend: 0x0, symName: __ZNKSt3__116__hash_node_baseIPNS_11__hash_nodeINS_17__hash_value_typeINS_12basic_stringIcNS_11char_traitsIcEENS_9allocatorIcEEEEP9Texture2DEEPvEEE6__hashB8ue170006Ev, symObjAddr: 0x13F6C, symBinAddr: 0x100015B64, symSize: 0x64 }
  - { offsetInCU: 0x35A33, offset: 0x35A33, size: 0x8, addend: 0x0, symName: __ZNSt3__19allocatorIPNS_16__hash_node_baseIPNS_11__hash_nodeINS_17__hash_value_typeINS_12basic_stringIcNS_11char_traitsIcEENS0_IcEEEEP9Texture2DEEPvEEEEE8allocateB8ue170006Em, symObjAddr: 0x13FD0, symBinAddr: 0x100015BC8, symSize: 0x5C }
  - { offsetInCU: 0x35A67, offset: 0x35A67, size: 0x8, addend: 0x0, symName: __ZNSt3__116allocator_traitsINS_9allocatorIPNS_16__hash_node_baseIPNS_11__hash_nodeINS_17__hash_value_typeINS_12basic_stringIcNS_11char_traitsIcEENS1_IcEEEEP9Texture2DEEPvEEEEEEE8max_sizeB8ue170006ISI_vEEmRKSI_, symObjAddr: 0x1402C, symBinAddr: 0x100015C24, symSize: 0x24 }
  - { offsetInCU: 0x35A95, offset: 0x35A95, size: 0x8, addend: 0x0, symName: __ZNKSt3__19allocatorIPNS_16__hash_node_baseIPNS_11__hash_nodeINS_17__hash_value_typeINS_12basic_stringIcNS_11char_traitsIcEENS0_IcEEEEP9Texture2DEEPvEEEEE8max_sizeB8ue170006Ev, symObjAddr: 0x14050, symBinAddr: 0x100015C48, symSize: 0x14 }
  - { offsetInCU: 0x35ABB, offset: 0x35ABB, size: 0x8, addend: 0x0, symName: __ZNKSt3__117__compressed_pairIPPNS_16__hash_node_baseIPNS_11__hash_nodeINS_17__hash_value_typeINS_12basic_stringIcNS_11char_traitsIcEENS_9allocatorIcEEEEP9Texture2DEEPvEEEENS_25__bucket_list_deallocatorINS7_ISH_EEEEE5firstB8ue170006Ev, symObjAddr: 0x14064, symBinAddr: 0x100015C5C, symSize: 0x24 }
  - { offsetInCU: 0x35AE1, offset: 0x35AE1, size: 0x8, addend: 0x0, symName: __ZNKSt3__122__compressed_pair_elemIPPNS_16__hash_node_baseIPNS_11__hash_nodeINS_17__hash_value_typeINS_12basic_stringIcNS_11char_traitsIcEENS_9allocatorIcEEEEP9Texture2DEEPvEEEELi0ELb0EE5__getB8ue170006Ev, symObjAddr: 0x14088, symBinAddr: 0x100015C80, symSize: 0x14 }
  - { offsetInCU: 0x35B07, offset: 0x35B07, size: 0x8, addend: 0x0, symName: __ZNSt3__117__compressed_pairImNS_22__unordered_map_hasherINS_12basic_stringIcNS_11char_traitsIcEENS_9allocatorIcEEEENS_17__hash_value_typeIS7_P9Texture2DEENS_4hashIS7_EENS_8equal_toIS7_EELb1EEEE5firstB8ue170006Ev, symObjAddr: 0x142A0, symBinAddr: 0x100015E98, symSize: 0x24 }
  - { offsetInCU: 0x35B2D, offset: 0x35B2D, size: 0x8, addend: 0x0, symName: __ZNSt3__117__compressed_pairIfNS_21__unordered_map_equalINS_12basic_stringIcNS_11char_traitsIcEENS_9allocatorIcEEEENS_17__hash_value_typeIS7_P9Texture2DEENS_8equal_toIS7_EENS_4hashIS7_EELb1EEEE5firstB8ue170006Ev, symObjAddr: 0x142C4, symBinAddr: 0x100015EBC, symSize: 0x24 }
  - { offsetInCU: 0x35B53, offset: 0x35B53, size: 0x8, addend: 0x0, symName: __ZNSt3__122__compressed_pair_elemIfLi0ELb0EE5__getB8ue170006Ev, symObjAddr: 0x142E8, symBinAddr: 0x100015EE0, symSize: 0x14 }
  - { offsetInCU: 0x35B79, offset: 0x35B79, size: 0x8, addend: 0x0, symName: __ZNSt3__112__hash_tableINS_17__hash_value_typeINS_12basic_stringIcNS_11char_traitsIcEENS_9allocatorIcEEEEP9Texture2DEENS_22__unordered_map_hasherIS7_SA_NS_4hashIS7_EENS_8equal_toIS7_EELb1EEENS_21__unordered_map_equalIS7_SA_SF_SD_Lb1EEENS5_ISA_EEE15__insert_uniqueB8ue170006ERKNS_4pairIKS7_S9_EE, symObjAddr: 0x1432C, symBinAddr: 0x100015F24, symSize: 0x238 }
  - { offsetInCU: 0x35BB0, offset: 0x35BB0, size: 0x8, addend: 0x0, symName: __ZNKSt3__125__hash_map_const_iteratorINS_21__hash_const_iteratorIPNS_11__hash_nodeINS_17__hash_value_typeINS_12basic_stringIcNS_11char_traitsIcEENS_9allocatorIcEEEEP9Texture2DEEPvEEEEEdeB8ue170006Ev, symObjAddr: 0x14564, symBinAddr: 0x10001615C, symSize: 0x28 }
  - { offsetInCU: 0x35BD6, offset: 0x35BD6, size: 0x8, addend: 0x0, symName: __ZNSt3__125__hash_map_const_iteratorINS_21__hash_const_iteratorIPNS_11__hash_nodeINS_17__hash_value_typeINS_12basic_stringIcNS_11char_traitsIcEENS_9allocatorIcEEEEP9Texture2DEEPvEEEEEppB8ue170006Ev, symObjAddr: 0x1458C, symBinAddr: 0x100016184, symSize: 0x2C }
  - { offsetInCU: 0x35BFC, offset: 0x35BFC, size: 0x8, addend: 0x0, symName: __ZNSt3__112__hash_tableINS_17__hash_value_typeINS_12basic_stringIcNS_11char_traitsIcEENS_9allocatorIcEEEEP9Texture2DEENS_22__unordered_map_hasherIS7_SA_NS_4hashIS7_EENS_8equal_toIS7_EELb1EEENS_21__unordered_map_equalIS7_SA_SF_SD_Lb1EEENS5_ISA_EEE25__emplace_unique_key_argsIS7_JRKNS_4pairIKS7_S9_EEEEENSM_INS_15__hash_iteratorIPNS_11__hash_nodeISA_PvEEEEbEERKT_DpOT0_, symObjAddr: 0x146A4, symBinAddr: 0x10001629C, symSize: 0xDD0 }
  - { offsetInCU: 0x35CE7, offset: 0x35CE7, size: 0x8, addend: 0x0, symName: __ZNSt3__122__hash_key_value_typesINS_17__hash_value_typeINS_12basic_stringIcNS_11char_traitsIcEENS_9allocatorIcEEEEP9Texture2DEEE9__get_keyB8ue170006ERKNS_4pairIKS7_S9_EE, symObjAddr: 0x15474, symBinAddr: 0x10001706C, symSize: 0x14 }
  - { offsetInCU: 0x35D0A, offset: 0x35D0A, size: 0x8, addend: 0x0, symName: __ZNSt3__112__hash_tableINS_17__hash_value_typeINS_12basic_stringIcNS_11char_traitsIcEENS_9allocatorIcEEEEP9Texture2DEENS_22__unordered_map_hasherIS7_SA_NS_4hashIS7_EENS_8equal_toIS7_EELb1EEENS_21__unordered_map_equalIS7_SA_SF_SD_Lb1EEENS5_ISA_EEE13hash_functionB8ue170006Ev, symObjAddr: 0x15488, symBinAddr: 0x100017080, symSize: 0x28 }
  - { offsetInCU: 0x35D30, offset: 0x35D30, size: 0x8, addend: 0x0, symName: __ZNKSt3__122__unordered_map_hasherINS_12basic_stringIcNS_11char_traitsIcEENS_9allocatorIcEEEENS_17__hash_value_typeIS6_P9Texture2DEENS_4hashIS6_EENS_8equal_toIS6_EELb1EEclB8ue170006ERKS6_, symObjAddr: 0x154B0, symBinAddr: 0x1000170A8, symSize: 0x2C }
  - { offsetInCU: 0x35D65, offset: 0x35D65, size: 0x8, addend: 0x0, symName: __ZNSt3__112__hash_tableINS_17__hash_value_typeINS_12basic_stringIcNS_11char_traitsIcEENS_9allocatorIcEEEEP9Texture2DEENS_22__unordered_map_hasherIS7_SA_NS_4hashIS7_EENS_8equal_toIS7_EELb1EEENS_21__unordered_map_equalIS7_SA_SF_SD_Lb1EEENS5_ISA_EEE6key_eqB8ue170006Ev, symObjAddr: 0x154DC, symBinAddr: 0x1000170D4, symSize: 0x28 }
  - { offsetInCU: 0x35D8B, offset: 0x35D8B, size: 0x8, addend: 0x0, symName: __ZNKSt3__121__unordered_map_equalINS_12basic_stringIcNS_11char_traitsIcEENS_9allocatorIcEEEENS_17__hash_value_typeIS6_P9Texture2DEENS_8equal_toIS6_EENS_4hashIS6_EELb1EEclB8ue170006ERKSA_RKS6_, symObjAddr: 0x15504, symBinAddr: 0x1000170FC, symSize: 0x48 }
  - { offsetInCU: 0x35DCF, offset: 0x35DCF, size: 0x8, addend: 0x0, symName: __ZNSt3__112__hash_tableINS_17__hash_value_typeINS_12basic_stringIcNS_11char_traitsIcEENS_9allocatorIcEEEEP9Texture2DEENS_22__unordered_map_hasherIS7_SA_NS_4hashIS7_EENS_8equal_toIS7_EELb1EEENS_21__unordered_map_equalIS7_SA_SF_SD_Lb1EEENS5_ISA_EEE21__construct_node_hashIRKNS_4pairIKS7_S9_EEJEEENS_10unique_ptrINS_11__hash_nodeISA_PvEENS_22__hash_node_destructorINS5_ISU_EEEEEEmOT_DpOT0_, symObjAddr: 0x1554C, symBinAddr: 0x100017144, symSize: 0x418 }
  - { offsetInCU: 0x35E47, offset: 0x35E47, size: 0x8, addend: 0x0, symName: __ZNKSt3__110unique_ptrINS_11__hash_nodeINS_17__hash_value_typeINS_12basic_stringIcNS_11char_traitsIcEENS_9allocatorIcEEEEP9Texture2DEEPvEENS_22__hash_node_destructorINS6_ISD_EEEEEptB8ue170006Ev, symObjAddr: 0x15964, symBinAddr: 0x10001755C, symSize: 0x6C }
  - { offsetInCU: 0x35E6D, offset: 0x35E6D, size: 0x8, addend: 0x0, symName: __ZNKSt3__110unique_ptrINS_11__hash_nodeINS_17__hash_value_typeINS_12basic_stringIcNS_11char_traitsIcEENS_9allocatorIcEEEEP9Texture2DEEPvEENS_22__hash_node_destructorINS6_ISD_EEEEE3getB8ue170006Ev, symObjAddr: 0x159D0, symBinAddr: 0x1000175C8, symSize: 0x6C }
  - { offsetInCU: 0x35E93, offset: 0x35E93, size: 0x8, addend: 0x0, symName: __ZNSt3__110unique_ptrINS_11__hash_nodeINS_17__hash_value_typeINS_12basic_stringIcNS_11char_traitsIcEENS_9allocatorIcEEEEP9Texture2DEEPvEENS_22__hash_node_destructorINS6_ISD_EEEEE7releaseB8ue170006Ev, symObjAddr: 0x15A3C, symBinAddr: 0x100017634, symSize: 0xB8 }
  - { offsetInCU: 0x35EC8, offset: 0x35EC8, size: 0x8, addend: 0x0, symName: __ZNSt3__110unique_ptrINS_11__hash_nodeINS_17__hash_value_typeINS_12basic_stringIcNS_11char_traitsIcEENS_9allocatorIcEEEEP9Texture2DEEPvEENS_22__hash_node_destructorINS6_ISD_EEEEED1B8ue170006Ev, symObjAddr: 0x15AF4, symBinAddr: 0x1000176EC, symSize: 0x2C }
  - { offsetInCU: 0x35EF2, offset: 0x35EF2, size: 0x8, addend: 0x0, symName: __ZNSt3__115__hash_iteratorIPNS_11__hash_nodeINS_17__hash_value_typeINS_12basic_stringIcNS_11char_traitsIcEENS_9allocatorIcEEEEP9Texture2DEEPvEEEC1B8ue170006EPNS_16__hash_node_baseISE_EE, symObjAddr: 0x15B20, symBinAddr: 0x100017718, symSize: 0x34 }
  - { offsetInCU: 0x35F35, offset: 0x35F35, size: 0x8, addend: 0x0, symName: __ZNSt3__14pairINS_15__hash_iteratorIPNS_11__hash_nodeINS_17__hash_value_typeINS_12basic_stringIcNS_11char_traitsIcEENS_9allocatorIcEEEEP9Texture2DEEPvEEEEbEC1B8ue170006ISG_RbLSD_0EEEOT_OT0_, symObjAddr: 0x15B54, symBinAddr: 0x10001774C, symSize: 0x3C }
  - { offsetInCU: 0x35F93, offset: 0x35F93, size: 0x8, addend: 0x0, symName: __ZNSt3__117__compressed_pairImNS_22__unordered_map_hasherINS_12basic_stringIcNS_11char_traitsIcEENS_9allocatorIcEEEENS_17__hash_value_typeIS7_P9Texture2DEENS_4hashIS7_EENS_8equal_toIS7_EELb1EEEE6secondB8ue170006Ev, symObjAddr: 0x15B90, symBinAddr: 0x100017788, symSize: 0x24 }
  - { offsetInCU: 0x35FB9, offset: 0x35FB9, size: 0x8, addend: 0x0, symName: __ZNSt3__122__compressed_pair_elemINS_22__unordered_map_hasherINS_12basic_stringIcNS_11char_traitsIcEENS_9allocatorIcEEEENS_17__hash_value_typeIS7_P9Texture2DEENS_4hashIS7_EENS_8equal_toIS7_EELb1EEELi1ELb1EE5__getB8ue170006Ev, symObjAddr: 0x15BB4, symBinAddr: 0x1000177AC, symSize: 0x14 }
  - { offsetInCU: 0x35FDF, offset: 0x35FDF, size: 0x8, addend: 0x0, symName: __ZNKSt3__113__string_hashIcNS_9allocatorIcEEEclB8ue170006ERKNS_12basic_stringIcNS_11char_traitsIcEES2_EE, symObjAddr: 0x15BC8, symBinAddr: 0x1000177C0, symSize: 0x70 }
  - { offsetInCU: 0x36014, offset: 0x36014, size: 0x8, addend: 0x0, symName: __ZNKSt3__112basic_stringIcNS_11char_traitsIcEENS_9allocatorIcEEE4dataB8ue170006Ev, symObjAddr: 0x15E24, symBinAddr: 0x100017A1C, symSize: 0x28 }
  - { offsetInCU: 0x3603A, offset: 0x3603A, size: 0x8, addend: 0x0, symName: __ZNKSt3__112basic_stringIcNS_11char_traitsIcEENS_9allocatorIcEEE4sizeB8ue170006Ev, symObjAddr: 0x15E4C, symBinAddr: 0x100017A44, symSize: 0x54 }
  - { offsetInCU: 0x36060, offset: 0x36060, size: 0x8, addend: 0x0, symName: __ZNKSt3__121__murmur2_or_cityhashImLm64EEclB8ue170006EPKvm, symObjAddr: 0x15EA0, symBinAddr: 0x100017A98, symSize: 0xE04 }
  - { offsetInCU: 0x3610C, offset: 0x3610C, size: 0x8, addend: 0x0, symName: __ZNSt3__121__murmur2_or_cityhashImLm64EE18__hash_len_0_to_16B8ue170006EPKcm, symObjAddr: 0x16CA4, symBinAddr: 0x10001889C, symSize: 0x2D8 }
  - { offsetInCU: 0x361E5, offset: 0x361E5, size: 0x8, addend: 0x0, symName: __ZNSt3__121__murmur2_or_cityhashImLm64EE19__hash_len_17_to_32B8ue170006EPKcm, symObjAddr: 0x16F7C, symBinAddr: 0x100018B74, symSize: 0x130 }
  - { offsetInCU: 0x3624E, offset: 0x3624E, size: 0x8, addend: 0x0, symName: __ZNSt3__121__murmur2_or_cityhashImLm64EE19__hash_len_33_to_64B8ue170006EPKcm, symObjAddr: 0x170AC, symBinAddr: 0x100018CA4, symSize: 0x2B8 }
  - { offsetInCU: 0x36303, offset: 0x36303, size: 0x8, addend: 0x0, symName: __ZNSt3__121__murmur2_or_cityhashImLm64EE13__hash_len_16B8ue170006Emm, symObjAddr: 0x17578, symBinAddr: 0x100019170, symSize: 0x80 }
  - { offsetInCU: 0x3635E, offset: 0x3635E, size: 0x8, addend: 0x0, symName: __ZNSt3__121__murmur2_or_cityhashImLm64EE29__weak_hash_len_32_with_seedsB8ue170006EPKcmm, symObjAddr: 0x175F8, symBinAddr: 0x1000191F0, symSize: 0x270 }
  - { offsetInCU: 0x363A0, offset: 0x363A0, size: 0x8, addend: 0x0, symName: __ZNSt3__121__murmur2_or_cityhashImLm64EE8__rotateB8ue170006Emi, symObjAddr: 0x17868, symBinAddr: 0x100019460, symSize: 0x64 }
  - { offsetInCU: 0x363D1, offset: 0x363D1, size: 0x8, addend: 0x0, symName: __ZNSt3__14pairImmEaSB8ue170006EOS1_, symObjAddr: 0x178CC, symBinAddr: 0x1000194C4, symSize: 0x134 }
  - { offsetInCU: 0x36406, offset: 0x36406, size: 0x8, addend: 0x0, symName: __ZNSt3__121__murmur2_or_cityhashImLm64EE11__shift_mixB8ue170006Em, symObjAddr: 0x17B34, symBinAddr: 0x10001972C, symSize: 0x1C }
  - { offsetInCU: 0x36429, offset: 0x36429, size: 0x8, addend: 0x0, symName: __ZNSt3__121__murmur2_or_cityhashImLm64EE22__rotate_by_at_least_1B8ue170006Emi, symObjAddr: 0x17B50, symBinAddr: 0x100019748, symSize: 0x38 }
  - { offsetInCU: 0x3645A, offset: 0x3645A, size: 0x8, addend: 0x0, symName: __ZNSt3__121__murmur2_or_cityhashImLm64EE29__weak_hash_len_32_with_seedsB8ue170006Emmmmmm, symObjAddr: 0x17DC8, symBinAddr: 0x1000199C0, symSize: 0x398 }
  - { offsetInCU: 0x364DD, offset: 0x364DD, size: 0x8, addend: 0x0, symName: __ZNSt3__14pairImmEC1B8ue170006ImmLPv0EEEOT_OT0_, symObjAddr: 0x18160, symBinAddr: 0x100019D58, symSize: 0x3C }
  - { offsetInCU: 0x3653B, offset: 0x3653B, size: 0x8, addend: 0x0, symName: __ZNSt3__14pairImmEC2B8ue170006ImmLPv0EEEOT_OT0_, symObjAddr: 0x1819C, symBinAddr: 0x100019D94, symSize: 0x138 }
  - { offsetInCU: 0x36599, offset: 0x36599, size: 0x8, addend: 0x0, symName: __ZNKSt3__112basic_stringIcNS_11char_traitsIcEENS_9allocatorIcEEE13__get_pointerB8ue170006Ev, symObjAddr: 0x182E8, symBinAddr: 0x100019EE0, symSize: 0x54 }
  - { offsetInCU: 0x365BF, offset: 0x365BF, size: 0x8, addend: 0x0, symName: __ZNKSt3__112basic_stringIcNS_11char_traitsIcEENS_9allocatorIcEEE9__is_longB8ue170006Ev, symObjAddr: 0x1833C, symBinAddr: 0x100019F34, symSize: 0xA4 }
  - { offsetInCU: 0x365E5, offset: 0x365E5, size: 0x8, addend: 0x0, symName: __ZNKSt3__112basic_stringIcNS_11char_traitsIcEENS_9allocatorIcEEE18__get_long_pointerB8ue170006Ev, symObjAddr: 0x183E0, symBinAddr: 0x100019FD8, symSize: 0x6C }
  - { offsetInCU: 0x3660B, offset: 0x3660B, size: 0x8, addend: 0x0, symName: __ZNKSt3__112basic_stringIcNS_11char_traitsIcEENS_9allocatorIcEEE19__get_short_pointerB8ue170006Ev, symObjAddr: 0x1844C, symBinAddr: 0x10001A044, symSize: 0x28 }
  - { offsetInCU: 0x36631, offset: 0x36631, size: 0x8, addend: 0x0, symName: __ZNKSt3__117__compressed_pairINS_12basic_stringIcNS_11char_traitsIcEENS_9allocatorIcEEE5__repES5_E5firstB8ue170006Ev, symObjAddr: 0x18474, symBinAddr: 0x10001A06C, symSize: 0x24 }
  - { offsetInCU: 0x36657, offset: 0x36657, size: 0x8, addend: 0x0, symName: __ZNKSt3__122__compressed_pair_elemINS_12basic_stringIcNS_11char_traitsIcEENS_9allocatorIcEEE5__repELi0ELb0EE5__getB8ue170006Ev, symObjAddr: 0x18498, symBinAddr: 0x10001A090, symSize: 0x14 }
  - { offsetInCU: 0x3667D, offset: 0x3667D, size: 0x8, addend: 0x0, symName: __ZNSt3__114pointer_traitsIPKcE10pointer_toB8ue170006ERS1_, symObjAddr: 0x184AC, symBinAddr: 0x10001A0A4, symSize: 0x14 }
  - { offsetInCU: 0x366A0, offset: 0x366A0, size: 0x8, addend: 0x0, symName: __ZNKSt3__112basic_stringIcNS_11char_traitsIcEENS_9allocatorIcEEE15__get_long_sizeB8ue170006Ev, symObjAddr: 0x184C0, symBinAddr: 0x10001A0B8, symSize: 0x70 }
  - { offsetInCU: 0x366C6, offset: 0x366C6, size: 0x8, addend: 0x0, symName: __ZNKSt3__112basic_stringIcNS_11char_traitsIcEENS_9allocatorIcEEE16__get_short_sizeB8ue170006Ev, symObjAddr: 0x18530, symBinAddr: 0x10001A128, symSize: 0xA0 }
  - { offsetInCU: 0x366EC, offset: 0x366EC, size: 0x8, addend: 0x0, symName: __ZNSt3__117__compressed_pairIfNS_21__unordered_map_equalINS_12basic_stringIcNS_11char_traitsIcEENS_9allocatorIcEEEENS_17__hash_value_typeIS7_P9Texture2DEENS_8equal_toIS7_EENS_4hashIS7_EELb1EEEE6secondB8ue170006Ev, symObjAddr: 0x185D0, symBinAddr: 0x10001A1C8, symSize: 0x24 }
  - { offsetInCU: 0x36712, offset: 0x36712, size: 0x8, addend: 0x0, symName: __ZNSt3__122__compressed_pair_elemINS_21__unordered_map_equalINS_12basic_stringIcNS_11char_traitsIcEENS_9allocatorIcEEEENS_17__hash_value_typeIS7_P9Texture2DEENS_8equal_toIS7_EENS_4hashIS7_EELb1EEELi1ELb1EE5__getB8ue170006Ev, symObjAddr: 0x185F4, symBinAddr: 0x10001A1EC, symSize: 0x14 }
  - { offsetInCU: 0x36738, offset: 0x36738, size: 0x8, addend: 0x0, symName: __ZNKSt3__18equal_toINS_12basic_stringIcNS_11char_traitsIcEENS_9allocatorIcEEEEEclB8ue170006ERKS6_S9_, symObjAddr: 0x18608, symBinAddr: 0x10001A200, symSize: 0x34 }
  - { offsetInCU: 0x3677C, offset: 0x3677C, size: 0x8, addend: 0x0, symName: __ZNKSt3__117__hash_value_typeINS_12basic_stringIcNS_11char_traitsIcEENS_9allocatorIcEEEEP9Texture2DE11__get_valueB8ue170006Ev, symObjAddr: 0x1863C, symBinAddr: 0x10001A234, symSize: 0x24 }
  - { offsetInCU: 0x367A2, offset: 0x367A2, size: 0x8, addend: 0x0, symName: __ZNSt3__111char_traitsIcE7compareB8ue170006EPKcS3_m, symObjAddr: 0x18894, symBinAddr: 0x10001A48C, symSize: 0x34 }
  - { offsetInCU: 0x367E1, offset: 0x367E1, size: 0x8, addend: 0x0, symName: __ZNSt3__116allocator_traitsINS_9allocatorINS_11__hash_nodeINS_17__hash_value_typeINS_12basic_stringIcNS_11char_traitsIcEENS1_IcEEEEP9Texture2DEEPvEEEEE8allocateB8ue170006ERSE_m, symObjAddr: 0x18900, symBinAddr: 0x10001A4F8, symSize: 0x2C }
  - { offsetInCU: 0x36814, offset: 0x36814, size: 0x8, addend: 0x0, symName: __ZNSt3__122__hash_node_destructorINS_9allocatorINS_11__hash_nodeINS_17__hash_value_typeINS_12basic_stringIcNS_11char_traitsIcEENS1_IcEEEEP9Texture2DEEPvEEEEEC1B8ue170006ERSE_b, symObjAddr: 0x1892C, symBinAddr: 0x10001A524, symSize: 0x48 }
  - { offsetInCU: 0x36861, offset: 0x36861, size: 0x8, addend: 0x0, symName: __ZNSt3__110unique_ptrINS_11__hash_nodeINS_17__hash_value_typeINS_12basic_stringIcNS_11char_traitsIcEENS_9allocatorIcEEEEP9Texture2DEEPvEENS_22__hash_node_destructorINS6_ISD_EEEEEC1B8ue170006ILb1EvEEPSD_NS_16__dependent_typeINS_27__unique_ptr_deleter_sfinaeISG_EEXT_EE20__good_rval_ref_typeE, symObjAddr: 0x18974, symBinAddr: 0x10001A56C, symSize: 0x3C }
  - { offsetInCU: 0x368B2, offset: 0x368B2, size: 0x8, addend: 0x0, symName: __ZNSt3__116allocator_traitsINS_9allocatorINS_11__hash_nodeINS_17__hash_value_typeINS_12basic_stringIcNS_11char_traitsIcEENS1_IcEEEEP9Texture2DEEPvEEEEE9constructB8ue170006INS_4pairIKS8_SA_EEJRKSJ_EvEEvRSE_PT_DpOT0_, symObjAddr: 0x189B0, symBinAddr: 0x10001A5A8, symSize: 0x34 }
  - { offsetInCU: 0x36909, offset: 0x36909, size: 0x8, addend: 0x0, symName: __ZNSt3__110unique_ptrINS_11__hash_nodeINS_17__hash_value_typeINS_12basic_stringIcNS_11char_traitsIcEENS_9allocatorIcEEEEP9Texture2DEEPvEENS_22__hash_node_destructorINS6_ISD_EEEEE11get_deleterB8ue170006Ev, symObjAddr: 0x189E4, symBinAddr: 0x10001A5DC, symSize: 0x24 }
  - { offsetInCU: 0x3692F, offset: 0x3692F, size: 0x8, addend: 0x0, symName: __ZNSt3__19allocatorINS_11__hash_nodeINS_17__hash_value_typeINS_12basic_stringIcNS_11char_traitsIcEENS0_IcEEEEP9Texture2DEEPvEEE8allocateB8ue170006Em, symObjAddr: 0x18A08, symBinAddr: 0x10001A600, symSize: 0x60 }
  - { offsetInCU: 0x36963, offset: 0x36963, size: 0x8, addend: 0x0, symName: __ZNSt3__116allocator_traitsINS_9allocatorINS_11__hash_nodeINS_17__hash_value_typeINS_12basic_stringIcNS_11char_traitsIcEENS1_IcEEEEP9Texture2DEEPvEEEEE8max_sizeB8ue170006ISE_vEEmRKSE_, symObjAddr: 0x18A68, symBinAddr: 0x10001A660, symSize: 0x24 }
  - { offsetInCU: 0x36991, offset: 0x36991, size: 0x8, addend: 0x0, symName: __ZNKSt3__19allocatorINS_11__hash_nodeINS_17__hash_value_typeINS_12basic_stringIcNS_11char_traitsIcEENS0_IcEEEEP9Texture2DEEPvEEE8max_sizeB8ue170006Ev, symObjAddr: 0x18A8C, symBinAddr: 0x10001A684, symSize: 0x18 }
  - { offsetInCU: 0x369B7, offset: 0x369B7, size: 0x8, addend: 0x0, symName: __ZNSt3__122__hash_node_destructorINS_9allocatorINS_11__hash_nodeINS_17__hash_value_typeINS_12basic_stringIcNS_11char_traitsIcEENS1_IcEEEEP9Texture2DEEPvEEEEEC2B8ue170006ERSE_b, symObjAddr: 0x18AA4, symBinAddr: 0x10001A69C, symSize: 0xF0 }
  - { offsetInCU: 0x369FF, offset: 0x369FF, size: 0x8, addend: 0x0, symName: __ZNSt3__110unique_ptrINS_11__hash_nodeINS_17__hash_value_typeINS_12basic_stringIcNS_11char_traitsIcEENS_9allocatorIcEEEEP9Texture2DEEPvEENS_22__hash_node_destructorINS6_ISD_EEEEEC2B8ue170006ILb1EvEEPSD_NS_16__dependent_typeINS_27__unique_ptr_deleter_sfinaeISG_EEXT_EE20__good_rval_ref_typeE, symObjAddr: 0x18B94, symBinAddr: 0x10001A78C, symSize: 0x21C }
  - { offsetInCU: 0x36A56, offset: 0x36A56, size: 0x8, addend: 0x0, symName: __ZNSt3__117__compressed_pairIPNS_11__hash_nodeINS_17__hash_value_typeINS_12basic_stringIcNS_11char_traitsIcEENS_9allocatorIcEEEEP9Texture2DEEPvEENS_22__hash_node_destructorINS6_ISD_EEEEEC1B8ue170006IRSE_SH_EEOT_OT0_, symObjAddr: 0x18DB0, symBinAddr: 0x10001A9A8, symSize: 0x3C }
  - { offsetInCU: 0x36AAE, offset: 0x36AAE, size: 0x8, addend: 0x0, symName: __ZNSt3__117__compressed_pairIPNS_11__hash_nodeINS_17__hash_value_typeINS_12basic_stringIcNS_11char_traitsIcEENS_9allocatorIcEEEEP9Texture2DEEPvEENS_22__hash_node_destructorINS6_ISD_EEEEEC2B8ue170006IRSE_SH_EEOT_OT0_, symObjAddr: 0x18DEC, symBinAddr: 0x10001A9E4, symSize: 0x48 }
  - { offsetInCU: 0x36B06, offset: 0x36B06, size: 0x8, addend: 0x0, symName: __ZNSt3__122__compressed_pair_elemIPNS_11__hash_nodeINS_17__hash_value_typeINS_12basic_stringIcNS_11char_traitsIcEENS_9allocatorIcEEEEP9Texture2DEEPvEELi0ELb0EEC2B8ue170006IRSE_vEEOT_, symObjAddr: 0x18E34, symBinAddr: 0x10001AA2C, symSize: 0xB0 }
  - { offsetInCU: 0x36B48, offset: 0x36B48, size: 0x8, addend: 0x0, symName: __ZNSt3__122__compressed_pair_elemINS_22__hash_node_destructorINS_9allocatorINS_11__hash_nodeINS_17__hash_value_typeINS_12basic_stringIcNS_11char_traitsIcEENS2_IcEEEEP9Texture2DEEPvEEEEEELi1ELb0EEC2B8ue170006ISG_vEEOT_, symObjAddr: 0x18EE4, symBinAddr: 0x10001AADC, symSize: 0x38 }
  - { offsetInCU: 0x36B8A, offset: 0x36B8A, size: 0x8, addend: 0x0, symName: __ZNSt3__19allocatorINS_11__hash_nodeINS_17__hash_value_typeINS_12basic_stringIcNS_11char_traitsIcEENS0_IcEEEEP9Texture2DEEPvEEE9constructB8ue170006INS_4pairIKS7_S9_EEJRKSH_EEEvPT_DpOT0_, symObjAddr: 0x18F1C, symBinAddr: 0x10001AB14, symSize: 0x30 }
  - { offsetInCU: 0x36BE0, offset: 0x36BE0, size: 0x8, addend: 0x0, symName: __ZNSt3__14pairIKNS_12basic_stringIcNS_11char_traitsIcEENS_9allocatorIcEEEEP9Texture2DEC1B8ue170006ERKSA_, symObjAddr: 0x18F4C, symBinAddr: 0x10001AB44, symSize: 0x34 }
  - { offsetInCU: 0x36C15, offset: 0x36C15, size: 0x8, addend: 0x0, symName: __ZNSt3__14pairIKNS_12basic_stringIcNS_11char_traitsIcEENS_9allocatorIcEEEEP9Texture2DEC2B8ue170006ERKSA_, symObjAddr: 0x18F80, symBinAddr: 0x10001AB78, symSize: 0xCC }
  - { offsetInCU: 0x36C4A, offset: 0x36C4A, size: 0x8, addend: 0x0, symName: __ZNSt3__117__compressed_pairIPNS_11__hash_nodeINS_17__hash_value_typeINS_12basic_stringIcNS_11char_traitsIcEENS_9allocatorIcEEEEP9Texture2DEEPvEENS_22__hash_node_destructorINS6_ISD_EEEEE6secondB8ue170006Ev, symObjAddr: 0x1904C, symBinAddr: 0x10001AC44, symSize: 0x28 }
  - { offsetInCU: 0x36C70, offset: 0x36C70, size: 0x8, addend: 0x0, symName: __ZNSt3__122__compressed_pair_elemINS_22__hash_node_destructorINS_9allocatorINS_11__hash_nodeINS_17__hash_value_typeINS_12basic_stringIcNS_11char_traitsIcEENS2_IcEEEEP9Texture2DEEPvEEEEEELi1ELb0EE5__getB8ue170006Ev, symObjAddr: 0x19074, symBinAddr: 0x10001AC6C, symSize: 0x14 }
  - { offsetInCU: 0x36C96, offset: 0x36C96, size: 0x8, addend: 0x0, symName: __ZNKSt3__117__compressed_pairIPNS_11__hash_nodeINS_17__hash_value_typeINS_12basic_stringIcNS_11char_traitsIcEENS_9allocatorIcEEEEP9Texture2DEEPvEENS_22__hash_node_destructorINS6_ISD_EEEEE5firstB8ue170006Ev, symObjAddr: 0x19088, symBinAddr: 0x10001AC80, symSize: 0x24 }
  - { offsetInCU: 0x36CBC, offset: 0x36CBC, size: 0x8, addend: 0x0, symName: __ZNKSt3__122__compressed_pair_elemIPNS_11__hash_nodeINS_17__hash_value_typeINS_12basic_stringIcNS_11char_traitsIcEENS_9allocatorIcEEEEP9Texture2DEEPvEELi0ELb0EE5__getB8ue170006Ev, symObjAddr: 0x190AC, symBinAddr: 0x10001ACA4, symSize: 0x14 }
  - { offsetInCU: 0x36CE2, offset: 0x36CE2, size: 0x8, addend: 0x0, symName: __ZNSt3__117__compressed_pairIPNS_11__hash_nodeINS_17__hash_value_typeINS_12basic_stringIcNS_11char_traitsIcEENS_9allocatorIcEEEEP9Texture2DEEPvEENS_22__hash_node_destructorINS6_ISD_EEEEE5firstB8ue170006Ev, symObjAddr: 0x190C0, symBinAddr: 0x10001ACB8, symSize: 0x24 }
  - { offsetInCU: 0x36D08, offset: 0x36D08, size: 0x8, addend: 0x0, symName: __ZNSt3__122__compressed_pair_elemIPNS_11__hash_nodeINS_17__hash_value_typeINS_12basic_stringIcNS_11char_traitsIcEENS_9allocatorIcEEEEP9Texture2DEEPvEELi0ELb0EE5__getB8ue170006Ev, symObjAddr: 0x190E4, symBinAddr: 0x10001ACDC, symSize: 0x14 }
  - { offsetInCU: 0x36D2E, offset: 0x36D2E, size: 0x8, addend: 0x0, symName: __ZNSt3__110unique_ptrINS_11__hash_nodeINS_17__hash_value_typeINS_12basic_stringIcNS_11char_traitsIcEENS_9allocatorIcEEEEP9Texture2DEEPvEENS_22__hash_node_destructorINS6_ISD_EEEEED2B8ue170006Ev, symObjAddr: 0x190F8, symBinAddr: 0x10001ACF0, symSize: 0x30 }
  - { offsetInCU: 0x36D58, offset: 0x36D58, size: 0x8, addend: 0x0, symName: __ZNSt3__110unique_ptrINS_11__hash_nodeINS_17__hash_value_typeINS_12basic_stringIcNS_11char_traitsIcEENS_9allocatorIcEEEEP9Texture2DEEPvEENS_22__hash_node_destructorINS6_ISD_EEEEE5resetB8ue170006EPSD_, symObjAddr: 0x19128, symBinAddr: 0x10001AD20, symSize: 0xEC }
  - { offsetInCU: 0x36D9C, offset: 0x36D9C, size: 0x8, addend: 0x0, symName: __ZNSt3__122__hash_node_destructorINS_9allocatorINS_11__hash_nodeINS_17__hash_value_typeINS_12basic_stringIcNS_11char_traitsIcEENS1_IcEEEEP9Texture2DEEPvEEEEEclB8ue170006EPSD_, symObjAddr: 0x19214, symBinAddr: 0x10001AE0C, symSize: 0x164 }
  - { offsetInCU: 0x36DD1, offset: 0x36DD1, size: 0x8, addend: 0x0, symName: __ZNSt3__115__hash_iteratorIPNS_11__hash_nodeINS_17__hash_value_typeINS_12basic_stringIcNS_11char_traitsIcEENS_9allocatorIcEEEEP9Texture2DEEPvEEEC2B8ue170006EPNS_16__hash_node_baseISE_EE, symObjAddr: 0x19378, symBinAddr: 0x10001AF70, symSize: 0x70 }
  - { offsetInCU: 0x36E0A, offset: 0x36E0A, size: 0x8, addend: 0x0, symName: __ZNSt3__14pairINS_15__hash_iteratorIPNS_11__hash_nodeINS_17__hash_value_typeINS_12basic_stringIcNS_11char_traitsIcEENS_9allocatorIcEEEEP9Texture2DEEPvEEEEbEC2B8ue170006ISG_RbLSD_0EEEOT_OT0_, symObjAddr: 0x193E8, symBinAddr: 0x10001AFE0, symSize: 0x120 }
  - { offsetInCU: 0x36E68, offset: 0x36E68, size: 0x8, addend: 0x0, symName: __ZNKSt3__121__hash_const_iteratorIPNS_11__hash_nodeINS_17__hash_value_typeINS_12basic_stringIcNS_11char_traitsIcEENS_9allocatorIcEEEEP9Texture2DEEPvEEEptB8ue170006Ev, symObjAddr: 0x19508, symBinAddr: 0x10001B100, symSize: 0x6C }
  - { offsetInCU: 0x36E8E, offset: 0x36E8E, size: 0x8, addend: 0x0, symName: __ZNSt3__114pointer_traitsIPKNS_17__hash_value_typeINS_12basic_stringIcNS_11char_traitsIcEENS_9allocatorIcEEEEP9Texture2DEEE10pointer_toB8ue170006ERSB_, symObjAddr: 0x19574, symBinAddr: 0x10001B16C, symSize: 0x14 }
  - { offsetInCU: 0x36EB1, offset: 0x36EB1, size: 0x8, addend: 0x0, symName: __ZNSt3__121__hash_const_iteratorIPNS_11__hash_nodeINS_17__hash_value_typeINS_12basic_stringIcNS_11char_traitsIcEENS_9allocatorIcEEEEP9Texture2DEEPvEEEppB8ue170006Ev, symObjAddr: 0x19588, symBinAddr: 0x10001B180, symSize: 0xDC }
  - { offsetInCU: 0x36ED7, offset: 0x36ED7, size: 0x8, addend: 0x0, symName: __ZNKSt3__112__hash_tableINS_17__hash_value_typeINS_12basic_stringIcNS_11char_traitsIcEENS_9allocatorIcEEEEP9Texture2DEENS_22__unordered_map_hasherIS7_SA_NS_4hashIS7_EENS_8equal_toIS7_EELb1EEENS_21__unordered_map_equalIS7_SA_SF_SD_Lb1EEENS5_ISA_EEE5beginEv, symObjAddr: 0x19664, symBinAddr: 0x10001B25C, symSize: 0x23C }
  - { offsetInCU: 0x36F00, offset: 0x36F00, size: 0x8, addend: 0x0, symName: __ZNSt3__125__hash_map_const_iteratorINS_21__hash_const_iteratorIPNS_11__hash_nodeINS_17__hash_value_typeINS_12basic_stringIcNS_11char_traitsIcEENS_9allocatorIcEEEEP9Texture2DEEPvEEEEEC1B8ue170006ESG_, symObjAddr: 0x198A0, symBinAddr: 0x10001B498, symSize: 0x238 }
  - { offsetInCU: 0x36F3E, offset: 0x36F3E, size: 0x8, addend: 0x0, symName: __ZNKSt3__117__compressed_pairINS_16__hash_node_baseIPNS_11__hash_nodeINS_17__hash_value_typeINS_12basic_stringIcNS_11char_traitsIcEENS_9allocatorIcEEEEP9Texture2DEEPvEEEENS7_ISE_EEE5firstB8ue170006Ev, symObjAddr: 0x19AD8, symBinAddr: 0x10001B6D0, symSize: 0x24 }
  - { offsetInCU: 0x36F64, offset: 0x36F64, size: 0x8, addend: 0x0, symName: __ZNSt3__121__hash_const_iteratorIPNS_11__hash_nodeINS_17__hash_value_typeINS_12basic_stringIcNS_11char_traitsIcEENS_9allocatorIcEEEEP9Texture2DEEPvEEEC1B8ue170006EPNS_16__hash_node_baseISE_EE, symObjAddr: 0x19AFC, symBinAddr: 0x10001B6F4, symSize: 0x34 }
  - { offsetInCU: 0x36F9D, offset: 0x36F9D, size: 0x8, addend: 0x0, symName: __ZNKSt3__122__compressed_pair_elemINS_16__hash_node_baseIPNS_11__hash_nodeINS_17__hash_value_typeINS_12basic_stringIcNS_11char_traitsIcEENS_9allocatorIcEEEEP9Texture2DEEPvEEEELi0ELb0EE5__getB8ue170006Ev, symObjAddr: 0x19B30, symBinAddr: 0x10001B728, symSize: 0x14 }
  - { offsetInCU: 0x36FC3, offset: 0x36FC3, size: 0x8, addend: 0x0, symName: __ZNSt3__121__hash_const_iteratorIPNS_11__hash_nodeINS_17__hash_value_typeINS_12basic_stringIcNS_11char_traitsIcEENS_9allocatorIcEEEEP9Texture2DEEPvEEEC2B8ue170006EPNS_16__hash_node_baseISE_EE, symObjAddr: 0x19B44, symBinAddr: 0x10001B73C, symSize: 0x70 }
  - { offsetInCU: 0x36FFC, offset: 0x36FFC, size: 0x8, addend: 0x0, symName: __ZNSt3__125__hash_map_const_iteratorINS_21__hash_const_iteratorIPNS_11__hash_nodeINS_17__hash_value_typeINS_12basic_stringIcNS_11char_traitsIcEENS_9allocatorIcEEEEP9Texture2DEEPvEEEEEC2B8ue170006ESG_, symObjAddr: 0x19BB4, symBinAddr: 0x10001B7AC, symSize: 0x204 }
  - { offsetInCU: 0x3703A, offset: 0x3703A, size: 0x8, addend: 0x0, symName: __ZNKSt3__112__hash_tableINS_17__hash_value_typeINS_12basic_stringIcNS_11char_traitsIcEENS_9allocatorIcEEEEP9Texture2DEENS_22__unordered_map_hasherIS7_SA_NS_4hashIS7_EENS_8equal_toIS7_EELb1EEENS_21__unordered_map_equalIS7_SA_SF_SD_Lb1EEENS5_ISA_EEE3endEv, symObjAddr: 0x19DB8, symBinAddr: 0x10001B9B0, symSize: 0x1F8 }
  - { offsetInCU: 0x37063, offset: 0x37063, size: 0x8, addend: 0x0, symName: __ZN15SShaderResourceD2Ev, symObjAddr: 0x19FB0, symBinAddr: 0x10001BBA8, symSize: 0x2C }
  - { offsetInCU: 0x3708D, offset: 0x3708D, size: 0x8, addend: 0x0, symName: __ZN9UResourceI6ShaderED2Ev, symObjAddr: 0x19FDC, symBinAddr: 0x10001BBD4, symSize: 0x80 }
  - { offsetInCU: 0x370B9, offset: 0x370B9, size: 0x8, addend: 0x0, symName: __ZNSt3__113unordered_mapINS_12basic_stringIcNS_11char_traitsIcEENS_9allocatorIcEEEEP6ShaderNS_4hashIS6_EENS_8equal_toIS6_EENS4_INS_4pairIKS6_S8_EEEEED1B8ue170006Ev, symObjAddr: 0x1A05C, symBinAddr: 0x10001BC54, symSize: 0x2C }
  - { offsetInCU: 0x370E3, offset: 0x370E3, size: 0x8, addend: 0x0, symName: __ZN9UResourceI6ShaderE15GetAllResourcesEv, symObjAddr: 0x1A088, symBinAddr: 0x10001BC80, symSize: 0x3C }
  - { offsetInCU: 0x37109, offset: 0x37109, size: 0x8, addend: 0x0, symName: __ZNSt3__113unordered_mapINS_12basic_stringIcNS_11char_traitsIcEENS_9allocatorIcEEEEP6ShaderNS_4hashIS6_EENS_8equal_toIS6_EENS4_INS_4pairIKS6_S8_EEEEED2B8ue170006Ev, symObjAddr: 0x1A0C4, symBinAddr: 0x10001BCBC, symSize: 0x2C }
  - { offsetInCU: 0x37133, offset: 0x37133, size: 0x8, addend: 0x0, symName: __ZNSt3__112__hash_tableINS_17__hash_value_typeINS_12basic_stringIcNS_11char_traitsIcEENS_9allocatorIcEEEEP6ShaderEENS_22__unordered_map_hasherIS7_SA_NS_4hashIS7_EENS_8equal_toIS7_EELb1EEENS_21__unordered_map_equalIS7_SA_SF_SD_Lb1EEENS5_ISA_EEED1Ev, symObjAddr: 0x1A0F0, symBinAddr: 0x10001BCE8, symSize: 0x2C }
  - { offsetInCU: 0x3715F, offset: 0x3715F, size: 0x8, addend: 0x0, symName: __ZNSt3__112__hash_tableINS_17__hash_value_typeINS_12basic_stringIcNS_11char_traitsIcEENS_9allocatorIcEEEEP6ShaderEENS_22__unordered_map_hasherIS7_SA_NS_4hashIS7_EENS_8equal_toIS7_EELb1EEENS_21__unordered_map_equalIS7_SA_SF_SD_Lb1EEENS5_ISA_EEED2Ev, symObjAddr: 0x1A11C, symBinAddr: 0x10001BD14, symSize: 0x88 }
  - { offsetInCU: 0x3718B, offset: 0x3718B, size: 0x8, addend: 0x0, symName: __ZNSt3__112__hash_tableINS_17__hash_value_typeINS_12basic_stringIcNS_11char_traitsIcEENS_9allocatorIcEEEEP6ShaderEENS_22__unordered_map_hasherIS7_SA_NS_4hashIS7_EENS_8equal_toIS7_EELb1EEENS_21__unordered_map_equalIS7_SA_SF_SD_Lb1EEENS5_ISA_EEE17__deallocate_nodeEPNS_16__hash_node_baseIPNS_11__hash_nodeISA_PvEEEE, symObjAddr: 0x1A1A4, symBinAddr: 0x10001BD9C, symSize: 0xF8 }
  - { offsetInCU: 0x371F6, offset: 0x371F6, size: 0x8, addend: 0x0, symName: __ZNSt3__117__compressed_pairINS_16__hash_node_baseIPNS_11__hash_nodeINS_17__hash_value_typeINS_12basic_stringIcNS_11char_traitsIcEENS_9allocatorIcEEEEP6ShaderEEPvEEEENS7_ISE_EEE5firstB8ue170006Ev, symObjAddr: 0x1A29C, symBinAddr: 0x10001BE94, symSize: 0x24 }
  - { offsetInCU: 0x3721C, offset: 0x3721C, size: 0x8, addend: 0x0, symName: __ZNSt3__110unique_ptrIA_PNS_16__hash_node_baseIPNS_11__hash_nodeINS_17__hash_value_typeINS_12basic_stringIcNS_11char_traitsIcEENS_9allocatorIcEEEEP6ShaderEEPvEEEENS_25__bucket_list_deallocatorINS7_ISH_EEEEED1B8ue170006Ev, symObjAddr: 0x1A2C0, symBinAddr: 0x10001BEB8, symSize: 0x2C }
  - { offsetInCU: 0x37246, offset: 0x37246, size: 0x8, addend: 0x0, symName: __ZNSt3__112__hash_tableINS_17__hash_value_typeINS_12basic_stringIcNS_11char_traitsIcEENS_9allocatorIcEEEEP6ShaderEENS_22__unordered_map_hasherIS7_SA_NS_4hashIS7_EENS_8equal_toIS7_EELb1EEENS_21__unordered_map_equalIS7_SA_SF_SD_Lb1EEENS5_ISA_EEE12__node_allocB8ue170006Ev, symObjAddr: 0x1A2EC, symBinAddr: 0x10001BEE4, symSize: 0x28 }
  - { offsetInCU: 0x3726C, offset: 0x3726C, size: 0x8, addend: 0x0, symName: __ZNSt3__116__hash_node_baseIPNS_11__hash_nodeINS_17__hash_value_typeINS_12basic_stringIcNS_11char_traitsIcEENS_9allocatorIcEEEEP6ShaderEEPvEEE8__upcastB8ue170006Ev, symObjAddr: 0x1A314, symBinAddr: 0x10001BF0C, symSize: 0x24 }
  - { offsetInCU: 0x37292, offset: 0x37292, size: 0x8, addend: 0x0, symName: __ZNSt3__116allocator_traitsINS_9allocatorINS_11__hash_nodeINS_17__hash_value_typeINS_12basic_stringIcNS_11char_traitsIcEENS1_IcEEEEP6ShaderEEPvEEEEE7destroyB8ue170006INS_4pairIKS8_SA_EEvvEEvRSE_PT_, symObjAddr: 0x1A338, symBinAddr: 0x10001BF30, symSize: 0x28 }
  - { offsetInCU: 0x372CC, offset: 0x372CC, size: 0x8, addend: 0x0, symName: __ZNSt3__122__hash_key_value_typesINS_17__hash_value_typeINS_12basic_stringIcNS_11char_traitsIcEENS_9allocatorIcEEEEP6ShaderEEE9__get_ptrB8ue170006ERSA_, symObjAddr: 0x1A360, symBinAddr: 0x10001BF58, symSize: 0x24 }
  - { offsetInCU: 0x372EF, offset: 0x372EF, size: 0x8, addend: 0x0, symName: __ZNSt3__116allocator_traitsINS_9allocatorINS_11__hash_nodeINS_17__hash_value_typeINS_12basic_stringIcNS_11char_traitsIcEENS1_IcEEEEP6ShaderEEPvEEEEE10deallocateB8ue170006ERSE_PSD_m, symObjAddr: 0x1A384, symBinAddr: 0x10001BF7C, symSize: 0x34 }
  - { offsetInCU: 0x37331, offset: 0x37331, size: 0x8, addend: 0x0, symName: __ZNSt3__117__compressed_pairINS_16__hash_node_baseIPNS_11__hash_nodeINS_17__hash_value_typeINS_12basic_stringIcNS_11char_traitsIcEENS_9allocatorIcEEEEP6ShaderEEPvEEEENS7_ISE_EEE6secondB8ue170006Ev, symObjAddr: 0x1A3B8, symBinAddr: 0x10001BFB0, symSize: 0x24 }
  - { offsetInCU: 0x37357, offset: 0x37357, size: 0x8, addend: 0x0, symName: __ZNSt3__122__compressed_pair_elemINS_9allocatorINS_11__hash_nodeINS_17__hash_value_typeINS_12basic_stringIcNS_11char_traitsIcEENS1_IcEEEEP6ShaderEEPvEEEELi1ELb1EE5__getB8ue170006Ev, symObjAddr: 0x1A3DC, symBinAddr: 0x10001BFD4, symSize: 0x14 }
  - { offsetInCU: 0x3737D, offset: 0x3737D, size: 0x8, addend: 0x0, symName: __ZNSt3__114pointer_traitsIPNS_16__hash_node_baseIPNS_11__hash_nodeINS_17__hash_value_typeINS_12basic_stringIcNS_11char_traitsIcEENS_9allocatorIcEEEEP6ShaderEEPvEEEEE10pointer_toB8ue170006ERSG_, symObjAddr: 0x1A3F0, symBinAddr: 0x10001BFE8, symSize: 0x14 }
  - { offsetInCU: 0x373A0, offset: 0x373A0, size: 0x8, addend: 0x0, symName: __ZNSt3__14pairIKNS_12basic_stringIcNS_11char_traitsIcEENS_9allocatorIcEEEEP6ShaderED1Ev, symObjAddr: 0x1A404, symBinAddr: 0x10001BFFC, symSize: 0x2C }
  - { offsetInCU: 0x373CC, offset: 0x373CC, size: 0x8, addend: 0x0, symName: __ZNSt3__14pairIKNS_12basic_stringIcNS_11char_traitsIcEENS_9allocatorIcEEEEP6ShaderED2Ev, symObjAddr: 0x1A430, symBinAddr: 0x10001C028, symSize: 0x2C }
  - { offsetInCU: 0x373F8, offset: 0x373F8, size: 0x8, addend: 0x0, symName: __ZNSt3__117__hash_value_typeINS_12basic_stringIcNS_11char_traitsIcEENS_9allocatorIcEEEEP6ShaderE11__get_valueB8ue170006Ev, symObjAddr: 0x1A45C, symBinAddr: 0x10001C054, symSize: 0x24 }
  - { offsetInCU: 0x3741E, offset: 0x3741E, size: 0x8, addend: 0x0, symName: __ZNSt3__19allocatorINS_11__hash_nodeINS_17__hash_value_typeINS_12basic_stringIcNS_11char_traitsIcEENS0_IcEEEEP6ShaderEEPvEEE10deallocateB8ue170006EPSC_m, symObjAddr: 0x1A4B8, symBinAddr: 0x10001C0B0, symSize: 0x50 }
  - { offsetInCU: 0x37460, offset: 0x37460, size: 0x8, addend: 0x0, symName: __ZNSt3__122__compressed_pair_elemINS_16__hash_node_baseIPNS_11__hash_nodeINS_17__hash_value_typeINS_12basic_stringIcNS_11char_traitsIcEENS_9allocatorIcEEEEP6ShaderEEPvEEEELi0ELb0EE5__getB8ue170006Ev, symObjAddr: 0x1A508, symBinAddr: 0x10001C100, symSize: 0x14 }
  - { offsetInCU: 0x37486, offset: 0x37486, size: 0x8, addend: 0x0, symName: __ZNSt3__110unique_ptrIA_PNS_16__hash_node_baseIPNS_11__hash_nodeINS_17__hash_value_typeINS_12basic_stringIcNS_11char_traitsIcEENS_9allocatorIcEEEEP6ShaderEEPvEEEENS_25__bucket_list_deallocatorINS7_ISH_EEEEED2B8ue170006Ev, symObjAddr: 0x1A51C, symBinAddr: 0x10001C114, symSize: 0x30 }
  - { offsetInCU: 0x374B0, offset: 0x374B0, size: 0x8, addend: 0x0, symName: __ZNSt3__110unique_ptrIA_PNS_16__hash_node_baseIPNS_11__hash_nodeINS_17__hash_value_typeINS_12basic_stringIcNS_11char_traitsIcEENS_9allocatorIcEEEEP6ShaderEEPvEEEENS_25__bucket_list_deallocatorINS7_ISH_EEEEE5resetB8ue170006EDn, symObjAddr: 0x1A54C, symBinAddr: 0x10001C144, symSize: 0xE0 }
  - { offsetInCU: 0x374F0, offset: 0x374F0, size: 0x8, addend: 0x0, symName: __ZNSt3__117__compressed_pairIPPNS_16__hash_node_baseIPNS_11__hash_nodeINS_17__hash_value_typeINS_12basic_stringIcNS_11char_traitsIcEENS_9allocatorIcEEEEP6ShaderEEPvEEEENS_25__bucket_list_deallocatorINS7_ISH_EEEEE5firstB8ue170006Ev, symObjAddr: 0x1A62C, symBinAddr: 0x10001C224, symSize: 0x24 }
  - { offsetInCU: 0x37516, offset: 0x37516, size: 0x8, addend: 0x0, symName: __ZNSt3__117__compressed_pairIPPNS_16__hash_node_baseIPNS_11__hash_nodeINS_17__hash_value_typeINS_12basic_stringIcNS_11char_traitsIcEENS_9allocatorIcEEEEP6ShaderEEPvEEEENS_25__bucket_list_deallocatorINS7_ISH_EEEEE6secondB8ue170006Ev, symObjAddr: 0x1A650, symBinAddr: 0x10001C248, symSize: 0x28 }
  - { offsetInCU: 0x3753C, offset: 0x3753C, size: 0x8, addend: 0x0, symName: __ZNSt3__125__bucket_list_deallocatorINS_9allocatorIPNS_16__hash_node_baseIPNS_11__hash_nodeINS_17__hash_value_typeINS_12basic_stringIcNS_11char_traitsIcEENS1_IcEEEEP6ShaderEEPvEEEEEEEclB8ue170006EPSH_, symObjAddr: 0x1A678, symBinAddr: 0x10001C270, symSize: 0x98 }
  - { offsetInCU: 0x37571, offset: 0x37571, size: 0x8, addend: 0x0, symName: __ZNSt3__122__compressed_pair_elemIPPNS_16__hash_node_baseIPNS_11__hash_nodeINS_17__hash_value_typeINS_12basic_stringIcNS_11char_traitsIcEENS_9allocatorIcEEEEP6ShaderEEPvEEEELi0ELb0EE5__getB8ue170006Ev, symObjAddr: 0x1A710, symBinAddr: 0x10001C308, symSize: 0x14 }
  - { offsetInCU: 0x37597, offset: 0x37597, size: 0x8, addend: 0x0, symName: __ZNSt3__122__compressed_pair_elemINS_25__bucket_list_deallocatorINS_9allocatorIPNS_16__hash_node_baseIPNS_11__hash_nodeINS_17__hash_value_typeINS_12basic_stringIcNS_11char_traitsIcEENS2_IcEEEEP6ShaderEEPvEEEEEEEELi1ELb0EE5__getB8ue170006Ev, symObjAddr: 0x1A724, symBinAddr: 0x10001C31C, symSize: 0x14 }
  - { offsetInCU: 0x375BD, offset: 0x375BD, size: 0x8, addend: 0x0, symName: __ZNSt3__116allocator_traitsINS_9allocatorIPNS_16__hash_node_baseIPNS_11__hash_nodeINS_17__hash_value_typeINS_12basic_stringIcNS_11char_traitsIcEENS1_IcEEEEP6ShaderEEPvEEEEEEE10deallocateB8ue170006ERSI_PSH_m, symObjAddr: 0x1A738, symBinAddr: 0x10001C330, symSize: 0x34 }
  - { offsetInCU: 0x375FF, offset: 0x375FF, size: 0x8, addend: 0x0, symName: __ZNSt3__125__bucket_list_deallocatorINS_9allocatorIPNS_16__hash_node_baseIPNS_11__hash_nodeINS_17__hash_value_typeINS_12basic_stringIcNS_11char_traitsIcEENS1_IcEEEEP6ShaderEEPvEEEEEEE7__allocB8ue170006Ev, symObjAddr: 0x1A76C, symBinAddr: 0x10001C364, symSize: 0x24 }
  - { offsetInCU: 0x37625, offset: 0x37625, size: 0x8, addend: 0x0, symName: __ZNSt3__125__bucket_list_deallocatorINS_9allocatorIPNS_16__hash_node_baseIPNS_11__hash_nodeINS_17__hash_value_typeINS_12basic_stringIcNS_11char_traitsIcEENS1_IcEEEEP6ShaderEEPvEEEEEEE4sizeB8ue170006Ev, symObjAddr: 0x1A790, symBinAddr: 0x10001C388, symSize: 0x24 }
  - { offsetInCU: 0x3764B, offset: 0x3764B, size: 0x8, addend: 0x0, symName: __ZNSt3__19allocatorIPNS_16__hash_node_baseIPNS_11__hash_nodeINS_17__hash_value_typeINS_12basic_stringIcNS_11char_traitsIcEENS0_IcEEEEP6ShaderEEPvEEEEE10deallocateB8ue170006EPSG_m, symObjAddr: 0x1A7B4, symBinAddr: 0x10001C3AC, symSize: 0x4C }
  - { offsetInCU: 0x3768D, offset: 0x3768D, size: 0x8, addend: 0x0, symName: __ZNSt3__117__compressed_pairImNS_9allocatorIPNS_16__hash_node_baseIPNS_11__hash_nodeINS_17__hash_value_typeINS_12basic_stringIcNS_11char_traitsIcEENS1_IcEEEEP6ShaderEEPvEEEEEEE6secondB8ue170006Ev, symObjAddr: 0x1A800, symBinAddr: 0x10001C3F8, symSize: 0x24 }
  - { offsetInCU: 0x376B3, offset: 0x376B3, size: 0x8, addend: 0x0, symName: __ZNSt3__122__compressed_pair_elemINS_9allocatorIPNS_16__hash_node_baseIPNS_11__hash_nodeINS_17__hash_value_typeINS_12basic_stringIcNS_11char_traitsIcEENS1_IcEEEEP6ShaderEEPvEEEEEELi1ELb1EE5__getB8ue170006Ev, symObjAddr: 0x1A824, symBinAddr: 0x10001C41C, symSize: 0x14 }
  - { offsetInCU: 0x376D9, offset: 0x376D9, size: 0x8, addend: 0x0, symName: __ZNSt3__117__compressed_pairImNS_9allocatorIPNS_16__hash_node_baseIPNS_11__hash_nodeINS_17__hash_value_typeINS_12basic_stringIcNS_11char_traitsIcEENS1_IcEEEEP6ShaderEEPvEEEEEEE5firstB8ue170006Ev, symObjAddr: 0x1A838, symBinAddr: 0x10001C430, symSize: 0x24 }
  - { offsetInCU: 0x376FF, offset: 0x376FF, size: 0x8, addend: 0x0, symName: __ZNSt3__113unordered_mapINS_12basic_stringIcNS_11char_traitsIcEENS_9allocatorIcEEEEP6ShaderNS_4hashIS6_EENS_8equal_toIS6_EENS4_INS_4pairIKS6_S8_EEEEEC1ERKSH_, symObjAddr: 0x1A85C, symBinAddr: 0x10001C454, symSize: 0x34 }
  - { offsetInCU: 0x3773A, offset: 0x3773A, size: 0x8, addend: 0x0, symName: __ZNSt3__113unordered_mapINS_12basic_stringIcNS_11char_traitsIcEENS_9allocatorIcEEEEP6ShaderNS_4hashIS6_EENS_8equal_toIS6_EENS4_INS_4pairIKS6_S8_EEEEEC2ERKSH_, symObjAddr: 0x1A890, symBinAddr: 0x10001C488, symSize: 0x3D0 }
  - { offsetInCU: 0x37777, offset: 0x37777, size: 0x8, addend: 0x0, symName: __ZNSt3__112__hash_tableINS_17__hash_value_typeINS_12basic_stringIcNS_11char_traitsIcEENS_9allocatorIcEEEEP6ShaderEENS_22__unordered_map_hasherIS7_SA_NS_4hashIS7_EENS_8equal_toIS7_EELb1EEENS_21__unordered_map_equalIS7_SA_SF_SD_Lb1EEENS5_ISA_EEEC1ERKSK_, symObjAddr: 0x1AC60, symBinAddr: 0x10001C858, symSize: 0x34 }
  - { offsetInCU: 0x377B2, offset: 0x377B2, size: 0x8, addend: 0x0, symName: __ZNSt3__112__hash_tableINS_17__hash_value_typeINS_12basic_stringIcNS_11char_traitsIcEENS_9allocatorIcEEEEP6ShaderEENS_22__unordered_map_hasherIS7_SA_NS_4hashIS7_EENS_8equal_toIS7_EELb1EEENS_21__unordered_map_equalIS7_SA_SF_SD_Lb1EEENS5_ISA_EEE15__rehash_uniqueB8ue170006Em, symObjAddr: 0x1AC94, symBinAddr: 0x10001C88C, symSize: 0x2C }
  - { offsetInCU: 0x377E7, offset: 0x377E7, size: 0x8, addend: 0x0, symName: __ZNKSt3__113unordered_mapINS_12basic_stringIcNS_11char_traitsIcEENS_9allocatorIcEEEEP6ShaderNS_4hashIS6_EENS_8equal_toIS6_EENS4_INS_4pairIKS6_S8_EEEEE12bucket_countB8ue170006Ev, symObjAddr: 0x1ACC0, symBinAddr: 0x10001C8B8, symSize: 0x24 }
  - { offsetInCU: 0x3780D, offset: 0x3780D, size: 0x8, addend: 0x0, symName: __ZNSt3__113unordered_mapINS_12basic_stringIcNS_11char_traitsIcEENS_9allocatorIcEEEEP6ShaderNS_4hashIS6_EENS_8equal_toIS6_EENS4_INS_4pairIKS6_S8_EEEEE6insertINS_25__hash_map_const_iteratorINS_21__hash_const_iteratorIPNS_11__hash_nodeINS_17__hash_value_typeIS6_S8_EEPvEEEEEEEEvT_ST_, symObjAddr: 0x1ACE4, symBinAddr: 0x10001C8DC, symSize: 0x310 }
  - { offsetInCU: 0x37865, offset: 0x37865, size: 0x8, addend: 0x0, symName: __ZNKSt3__113unordered_mapINS_12basic_stringIcNS_11char_traitsIcEENS_9allocatorIcEEEEP6ShaderNS_4hashIS6_EENS_8equal_toIS6_EENS4_INS_4pairIKS6_S8_EEEEE5beginB8ue170006Ev, symObjAddr: 0x1AFF4, symBinAddr: 0x10001CBEC, symSize: 0x2B4 }
  - { offsetInCU: 0x3788C, offset: 0x3788C, size: 0x8, addend: 0x0, symName: __ZNKSt3__113unordered_mapINS_12basic_stringIcNS_11char_traitsIcEENS_9allocatorIcEEEEP6ShaderNS_4hashIS6_EENS_8equal_toIS6_EENS4_INS_4pairIKS6_S8_EEEEE3endB8ue170006Ev, symObjAddr: 0x1B2A8, symBinAddr: 0x10001CEA0, symSize: 0x2B4 }
  - { offsetInCU: 0x378B3, offset: 0x378B3, size: 0x8, addend: 0x0, symName: __ZNSt3__112__hash_tableINS_17__hash_value_typeINS_12basic_stringIcNS_11char_traitsIcEENS_9allocatorIcEEEEP6ShaderEENS_22__unordered_map_hasherIS7_SA_NS_4hashIS7_EENS_8equal_toIS7_EELb1EEENS_21__unordered_map_equalIS7_SA_SF_SD_Lb1EEENS5_ISA_EEEC2ERKSK_, symObjAddr: 0x1B55C, symBinAddr: 0x10001D154, symSize: 0x460 }
  - { offsetInCU: 0x378FA, offset: 0x378FA, size: 0x8, addend: 0x0, symName: __ZNSt3__116allocator_traitsINS_9allocatorIPNS_16__hash_node_baseIPNS_11__hash_nodeINS_17__hash_value_typeINS_12basic_stringIcNS_11char_traitsIcEENS1_IcEEEEP6ShaderEEPvEEEEEEE37select_on_container_copy_constructionB8ue170006ISI_vvEESI_RKSI_, symObjAddr: 0x1B9BC, symBinAddr: 0x10001D5B4, symSize: 0x10 }
  - { offsetInCU: 0x37929, offset: 0x37929, size: 0x8, addend: 0x0, symName: __ZNKSt3__110unique_ptrIA_PNS_16__hash_node_baseIPNS_11__hash_nodeINS_17__hash_value_typeINS_12basic_stringIcNS_11char_traitsIcEENS_9allocatorIcEEEEP6ShaderEEPvEEEENS_25__bucket_list_deallocatorINS7_ISH_EEEEE11get_deleterB8ue170006Ev, symObjAddr: 0x1B9CC, symBinAddr: 0x10001D5C4, symSize: 0x24 }
  - { offsetInCU: 0x3794F, offset: 0x3794F, size: 0x8, addend: 0x0, symName: __ZNKSt3__125__bucket_list_deallocatorINS_9allocatorIPNS_16__hash_node_baseIPNS_11__hash_nodeINS_17__hash_value_typeINS_12basic_stringIcNS_11char_traitsIcEENS1_IcEEEEP6ShaderEEPvEEEEEEE7__allocB8ue170006Ev, symObjAddr: 0x1B9F0, symBinAddr: 0x10001D5E8, symSize: 0x24 }
  - { offsetInCU: 0x37975, offset: 0x37975, size: 0x8, addend: 0x0, symName: __ZNSt3__125__bucket_list_deallocatorINS_9allocatorIPNS_16__hash_node_baseIPNS_11__hash_nodeINS_17__hash_value_typeINS_12basic_stringIcNS_11char_traitsIcEENS1_IcEEEEP6ShaderEEPvEEEEEEEC1B8ue170006ERKSI_m, symObjAddr: 0x1BA14, symBinAddr: 0x10001D60C, symSize: 0x3C }
  - { offsetInCU: 0x379BD, offset: 0x379BD, size: 0x8, addend: 0x0, symName: __ZNSt3__110unique_ptrIA_PNS_16__hash_node_baseIPNS_11__hash_nodeINS_17__hash_value_typeINS_12basic_stringIcNS_11char_traitsIcEENS_9allocatorIcEEEEP6ShaderEEPvEEEENS_25__bucket_list_deallocatorINS7_ISH_EEEEEC1B8ue170006ILb1EvEEDnNS_16__dependent_typeINS_27__unique_ptr_deleter_sfinaeISL_EEXT_EE20__good_rval_ref_typeE, symObjAddr: 0x1BA50, symBinAddr: 0x10001D648, symSize: 0x3C }
  - { offsetInCU: 0x37A16, offset: 0x37A16, size: 0x8, addend: 0x0, symName: __ZNSt3__116allocator_traitsINS_9allocatorINS_11__hash_nodeINS_17__hash_value_typeINS_12basic_stringIcNS_11char_traitsIcEENS1_IcEEEEP6ShaderEEPvEEEEE37select_on_container_copy_constructionB8ue170006ISE_vvEESE_RKSE_, symObjAddr: 0x1BA8C, symBinAddr: 0x10001D684, symSize: 0x10 }
  - { offsetInCU: 0x37A45, offset: 0x37A45, size: 0x8, addend: 0x0, symName: __ZNKSt3__112__hash_tableINS_17__hash_value_typeINS_12basic_stringIcNS_11char_traitsIcEENS_9allocatorIcEEEEP6ShaderEENS_22__unordered_map_hasherIS7_SA_NS_4hashIS7_EENS_8equal_toIS7_EELb1EEENS_21__unordered_map_equalIS7_SA_SF_SD_Lb1EEENS5_ISA_EEE12__node_allocB8ue170006Ev, symObjAddr: 0x1BA9C, symBinAddr: 0x10001D694, symSize: 0x28 }
  - { offsetInCU: 0x37A70, offset: 0x37A70, size: 0x8, addend: 0x0, symName: __ZNSt3__117__compressed_pairINS_16__hash_node_baseIPNS_11__hash_nodeINS_17__hash_value_typeINS_12basic_stringIcNS_11char_traitsIcEENS_9allocatorIcEEEEP6ShaderEEPvEEEENS7_ISE_EEEC1B8ue170006INS_18__default_init_tagESH_EEOT_OT0_, symObjAddr: 0x1BAC4, symBinAddr: 0x10001D6BC, symSize: 0x3C }
  - { offsetInCU: 0x37AC8, offset: 0x37AC8, size: 0x8, addend: 0x0, symName: __ZNKSt3__112__hash_tableINS_17__hash_value_typeINS_12basic_stringIcNS_11char_traitsIcEENS_9allocatorIcEEEEP6ShaderEENS_22__unordered_map_hasherIS7_SA_NS_4hashIS7_EENS_8equal_toIS7_EELb1EEENS_21__unordered_map_equalIS7_SA_SF_SD_Lb1EEENS5_ISA_EEE13hash_functionB8ue170006Ev, symObjAddr: 0x1BB00, symBinAddr: 0x10001D6F8, symSize: 0x28 }
  - { offsetInCU: 0x37AEE, offset: 0x37AEE, size: 0x8, addend: 0x0, symName: __ZNSt3__117__compressed_pairImNS_22__unordered_map_hasherINS_12basic_stringIcNS_11char_traitsIcEENS_9allocatorIcEEEENS_17__hash_value_typeIS7_P6ShaderEENS_4hashIS7_EENS_8equal_toIS7_EELb1EEEEC1B8ue170006IiRKSG_EEOT_OT0_, symObjAddr: 0x1BB28, symBinAddr: 0x10001D720, symSize: 0x3C }
  - { offsetInCU: 0x37B46, offset: 0x37B46, size: 0x8, addend: 0x0, symName: __ZNKSt3__117__compressed_pairIPPNS_16__hash_node_baseIPNS_11__hash_nodeINS_17__hash_value_typeINS_12basic_stringIcNS_11char_traitsIcEENS_9allocatorIcEEEEP6ShaderEEPvEEEENS_25__bucket_list_deallocatorINS7_ISH_EEEEE6secondB8ue170006Ev, symObjAddr: 0x1BB64, symBinAddr: 0x10001D75C, symSize: 0x28 }
  - { offsetInCU: 0x37B6C, offset: 0x37B6C, size: 0x8, addend: 0x0, symName: __ZNKSt3__122__compressed_pair_elemINS_25__bucket_list_deallocatorINS_9allocatorIPNS_16__hash_node_baseIPNS_11__hash_nodeINS_17__hash_value_typeINS_12basic_stringIcNS_11char_traitsIcEENS2_IcEEEEP6ShaderEEPvEEEEEEEELi1ELb0EE5__getB8ue170006Ev, symObjAddr: 0x1BB8C, symBinAddr: 0x10001D784, symSize: 0x14 }
  - { offsetInCU: 0x37B92, offset: 0x37B92, size: 0x8, addend: 0x0, symName: __ZNKSt3__117__compressed_pairImNS_9allocatorIPNS_16__hash_node_baseIPNS_11__hash_nodeINS_17__hash_value_typeINS_12basic_stringIcNS_11char_traitsIcEENS1_IcEEEEP6ShaderEEPvEEEEEEE6secondB8ue170006Ev, symObjAddr: 0x1BBA0, symBinAddr: 0x10001D798, symSize: 0x24 }
  - { offsetInCU: 0x37BB8, offset: 0x37BB8, size: 0x8, addend: 0x0, symName: __ZNKSt3__122__compressed_pair_elemINS_9allocatorIPNS_16__hash_node_baseIPNS_11__hash_nodeINS_17__hash_value_typeINS_12basic_stringIcNS_11char_traitsIcEENS1_IcEEEEP6ShaderEEPvEEEEEELi1ELb1EE5__getB8ue170006Ev, symObjAddr: 0x1BBC4, symBinAddr: 0x10001D7BC, symSize: 0x14 }
  - { offsetInCU: 0x37BDE, offset: 0x37BDE, size: 0x8, addend: 0x0, symName: __ZNSt3__125__bucket_list_deallocatorINS_9allocatorIPNS_16__hash_node_baseIPNS_11__hash_nodeINS_17__hash_value_typeINS_12basic_stringIcNS_11char_traitsIcEENS1_IcEEEEP6ShaderEEPvEEEEEEEC2B8ue170006ERKSI_m, symObjAddr: 0x1BBD8, symBinAddr: 0x10001D7D0, symSize: 0x214 }
  - { offsetInCU: 0x37C2C, offset: 0x37C2C, size: 0x8, addend: 0x0, symName: __ZNSt3__117__compressed_pairImNS_9allocatorIPNS_16__hash_node_baseIPNS_11__hash_nodeINS_17__hash_value_typeINS_12basic_stringIcNS_11char_traitsIcEENS1_IcEEEEP6ShaderEEPvEEEEEEEC1B8ue170006IRmRKSI_EEOT_OT0_, symObjAddr: 0x1BDEC, symBinAddr: 0x10001D9E4, symSize: 0x3C }
  - { offsetInCU: 0x37C84, offset: 0x37C84, size: 0x8, addend: 0x0, symName: __ZNSt3__117__compressed_pairImNS_9allocatorIPNS_16__hash_node_baseIPNS_11__hash_nodeINS_17__hash_value_typeINS_12basic_stringIcNS_11char_traitsIcEENS1_IcEEEEP6ShaderEEPvEEEEEEEC2B8ue170006IRmRKSI_EEOT_OT0_, symObjAddr: 0x1BE28, symBinAddr: 0x10001DA20, symSize: 0x44 }
  - { offsetInCU: 0x37CDC, offset: 0x37CDC, size: 0x8, addend: 0x0, symName: __ZNSt3__122__compressed_pair_elemINS_9allocatorIPNS_16__hash_node_baseIPNS_11__hash_nodeINS_17__hash_value_typeINS_12basic_stringIcNS_11char_traitsIcEENS1_IcEEEEP6ShaderEEPvEEEEEELi1ELb1EEC2B8ue170006IRKSI_vEEOT_, symObjAddr: 0x1BE6C, symBinAddr: 0x10001DA64, symSize: 0x18 }
  - { offsetInCU: 0x37D1E, offset: 0x37D1E, size: 0x8, addend: 0x0, symName: __ZNSt3__110unique_ptrIA_PNS_16__hash_node_baseIPNS_11__hash_nodeINS_17__hash_value_typeINS_12basic_stringIcNS_11char_traitsIcEENS_9allocatorIcEEEEP6ShaderEEPvEEEENS_25__bucket_list_deallocatorINS7_ISH_EEEEEC2B8ue170006ILb1EvEEDnNS_16__dependent_typeINS_27__unique_ptr_deleter_sfinaeISL_EEXT_EE20__good_rval_ref_typeE, symObjAddr: 0x1BE84, symBinAddr: 0x10001DA7C, symSize: 0x22C }
  - { offsetInCU: 0x37D70, offset: 0x37D70, size: 0x8, addend: 0x0, symName: __ZNSt3__117__compressed_pairIPPNS_16__hash_node_baseIPNS_11__hash_nodeINS_17__hash_value_typeINS_12basic_stringIcNS_11char_traitsIcEENS_9allocatorIcEEEEP6ShaderEEPvEEEENS_25__bucket_list_deallocatorINS7_ISH_EEEEEC1B8ue170006IDnSL_EEOT_OT0_, symObjAddr: 0x1C0B0, symBinAddr: 0x10001DCA8, symSize: 0x3C }
  - { offsetInCU: 0x37DC8, offset: 0x37DC8, size: 0x8, addend: 0x0, symName: __ZNSt3__117__compressed_pairIPPNS_16__hash_node_baseIPNS_11__hash_nodeINS_17__hash_value_typeINS_12basic_stringIcNS_11char_traitsIcEENS_9allocatorIcEEEEP6ShaderEEPvEEEENS_25__bucket_list_deallocatorINS7_ISH_EEEEEC2B8ue170006IDnSL_EEOT_OT0_, symObjAddr: 0x1C0EC, symBinAddr: 0x10001DCE4, symSize: 0x48 }
  - { offsetInCU: 0x37E20, offset: 0x37E20, size: 0x8, addend: 0x0, symName: __ZNSt3__122__compressed_pair_elemIPPNS_16__hash_node_baseIPNS_11__hash_nodeINS_17__hash_value_typeINS_12basic_stringIcNS_11char_traitsIcEENS_9allocatorIcEEEEP6ShaderEEPvEEEELi0ELb0EEC2B8ue170006IDnvEEOT_, symObjAddr: 0x1C134, symBinAddr: 0x10001DD2C, symSize: 0x64 }
  - { offsetInCU: 0x37E62, offset: 0x37E62, size: 0x8, addend: 0x0, symName: __ZNSt3__122__compressed_pair_elemINS_25__bucket_list_deallocatorINS_9allocatorIPNS_16__hash_node_baseIPNS_11__hash_nodeINS_17__hash_value_typeINS_12basic_stringIcNS_11char_traitsIcEENS2_IcEEEEP6ShaderEEPvEEEEEEEELi1ELb0EEC2B8ue170006ISK_vEEOT_, symObjAddr: 0x1C198, symBinAddr: 0x10001DD90, symSize: 0x34 }
  - { offsetInCU: 0x37EA4, offset: 0x37EA4, size: 0x8, addend: 0x0, symName: __ZNSt3__125__bucket_list_deallocatorINS_9allocatorIPNS_16__hash_node_baseIPNS_11__hash_nodeINS_17__hash_value_typeINS_12basic_stringIcNS_11char_traitsIcEENS1_IcEEEEP6ShaderEEPvEEEEEEEC1B8ue170006EOSJ_, symObjAddr: 0x1C1CC, symBinAddr: 0x10001DDC4, symSize: 0x34 }
  - { offsetInCU: 0x37EDD, offset: 0x37EDD, size: 0x8, addend: 0x0, symName: __ZNSt3__125__bucket_list_deallocatorINS_9allocatorIPNS_16__hash_node_baseIPNS_11__hash_nodeINS_17__hash_value_typeINS_12basic_stringIcNS_11char_traitsIcEENS1_IcEEEEP6ShaderEEPvEEEEEEEC2B8ue170006EOSJ_, symObjAddr: 0x1C200, symBinAddr: 0x10001DDF8, symSize: 0x88 }
  - { offsetInCU: 0x37F16, offset: 0x37F16, size: 0x8, addend: 0x0, symName: __ZNKSt3__117__compressed_pairINS_16__hash_node_baseIPNS_11__hash_nodeINS_17__hash_value_typeINS_12basic_stringIcNS_11char_traitsIcEENS_9allocatorIcEEEEP6ShaderEEPvEEEENS7_ISE_EEE6secondB8ue170006Ev, symObjAddr: 0x1C288, symBinAddr: 0x10001DE80, symSize: 0x24 }
  - { offsetInCU: 0x37F3C, offset: 0x37F3C, size: 0x8, addend: 0x0, symName: __ZNKSt3__122__compressed_pair_elemINS_9allocatorINS_11__hash_nodeINS_17__hash_value_typeINS_12basic_stringIcNS_11char_traitsIcEENS1_IcEEEEP6ShaderEEPvEEEELi1ELb1EE5__getB8ue170006Ev, symObjAddr: 0x1C2AC, symBinAddr: 0x10001DEA4, symSize: 0x14 }
  - { offsetInCU: 0x37F62, offset: 0x37F62, size: 0x8, addend: 0x0, symName: __ZNSt3__117__compressed_pairINS_16__hash_node_baseIPNS_11__hash_nodeINS_17__hash_value_typeINS_12basic_stringIcNS_11char_traitsIcEENS_9allocatorIcEEEEP6ShaderEEPvEEEENS7_ISE_EEEC2B8ue170006INS_18__default_init_tagESH_EEOT_OT0_, symObjAddr: 0x1C2C0, symBinAddr: 0x10001DEB8, symSize: 0x40 }
  - { offsetInCU: 0x37FBA, offset: 0x37FBA, size: 0x8, addend: 0x0, symName: __ZNSt3__122__compressed_pair_elemINS_16__hash_node_baseIPNS_11__hash_nodeINS_17__hash_value_typeINS_12basic_stringIcNS_11char_traitsIcEENS_9allocatorIcEEEEP6ShaderEEPvEEEELi0ELb0EEC2B8ue170006ENS_18__default_init_tagE, symObjAddr: 0x1C300, symBinAddr: 0x10001DEF8, symSize: 0x2C }
  - { offsetInCU: 0x37FEF, offset: 0x37FEF, size: 0x8, addend: 0x0, symName: __ZNSt3__122__compressed_pair_elemINS_9allocatorINS_11__hash_nodeINS_17__hash_value_typeINS_12basic_stringIcNS_11char_traitsIcEENS1_IcEEEEP6ShaderEEPvEEEELi1ELb1EEC2B8ue170006ISE_vEEOT_, symObjAddr: 0x1C32C, symBinAddr: 0x10001DF24, symSize: 0x18 }
  - { offsetInCU: 0x38031, offset: 0x38031, size: 0x8, addend: 0x0, symName: __ZNSt3__116__hash_node_baseIPNS_11__hash_nodeINS_17__hash_value_typeINS_12basic_stringIcNS_11char_traitsIcEENS_9allocatorIcEEEEP6ShaderEEPvEEEC1B8ue170006Ev, symObjAddr: 0x1C344, symBinAddr: 0x10001DF3C, symSize: 0x2C }
  - { offsetInCU: 0x3805B, offset: 0x3805B, size: 0x8, addend: 0x0, symName: __ZNSt3__116__hash_node_baseIPNS_11__hash_nodeINS_17__hash_value_typeINS_12basic_stringIcNS_11char_traitsIcEENS_9allocatorIcEEEEP6ShaderEEPvEEEC2B8ue170006Ev, symObjAddr: 0x1C370, symBinAddr: 0x10001DF68, symSize: 0x60 }
  - { offsetInCU: 0x38085, offset: 0x38085, size: 0x8, addend: 0x0, symName: __ZNKSt3__117__compressed_pairImNS_22__unordered_map_hasherINS_12basic_stringIcNS_11char_traitsIcEENS_9allocatorIcEEEENS_17__hash_value_typeIS7_P6ShaderEENS_4hashIS7_EENS_8equal_toIS7_EELb1EEEE6secondB8ue170006Ev, symObjAddr: 0x1C3D0, symBinAddr: 0x10001DFC8, symSize: 0x24 }
  - { offsetInCU: 0x380AB, offset: 0x380AB, size: 0x8, addend: 0x0, symName: __ZNKSt3__122__compressed_pair_elemINS_22__unordered_map_hasherINS_12basic_stringIcNS_11char_traitsIcEENS_9allocatorIcEEEENS_17__hash_value_typeIS7_P6ShaderEENS_4hashIS7_EENS_8equal_toIS7_EELb1EEELi1ELb1EE5__getB8ue170006Ev, symObjAddr: 0x1C3F4, symBinAddr: 0x10001DFEC, symSize: 0x14 }
  - { offsetInCU: 0x380D1, offset: 0x380D1, size: 0x8, addend: 0x0, symName: __ZNSt3__117__compressed_pairImNS_22__unordered_map_hasherINS_12basic_stringIcNS_11char_traitsIcEENS_9allocatorIcEEEENS_17__hash_value_typeIS7_P6ShaderEENS_4hashIS7_EENS_8equal_toIS7_EELb1EEEEC2B8ue170006IiRKSG_EEOT_OT0_, symObjAddr: 0x1C408, symBinAddr: 0x10001E000, symSize: 0x44 }
  - { offsetInCU: 0x38129, offset: 0x38129, size: 0x8, addend: 0x0, symName: __ZNSt3__122__compressed_pair_elemINS_22__unordered_map_hasherINS_12basic_stringIcNS_11char_traitsIcEENS_9allocatorIcEEEENS_17__hash_value_typeIS7_P6ShaderEENS_4hashIS7_EENS_8equal_toIS7_EELb1EEELi1ELb1EEC2B8ue170006IRKSG_vEEOT_, symObjAddr: 0x1C44C, symBinAddr: 0x10001E044, symSize: 0x18 }
  - { offsetInCU: 0x3816B, offset: 0x3816B, size: 0x8, addend: 0x0, symName: __ZNSt3__112__hash_tableINS_17__hash_value_typeINS_12basic_stringIcNS_11char_traitsIcEENS_9allocatorIcEEEEP6ShaderEENS_22__unordered_map_hasherIS7_SA_NS_4hashIS7_EENS_8equal_toIS7_EELb1EEENS_21__unordered_map_equalIS7_SA_SF_SD_Lb1EEENS5_ISA_EEE8__rehashILb1EEEvm, symObjAddr: 0x1C464, symBinAddr: 0x10001E05C, symSize: 0x784 }
  - { offsetInCU: 0x381C1, offset: 0x381C1, size: 0x8, addend: 0x0, symName: __ZNKSt3__112__hash_tableINS_17__hash_value_typeINS_12basic_stringIcNS_11char_traitsIcEENS_9allocatorIcEEEEP6ShaderEENS_22__unordered_map_hasherIS7_SA_NS_4hashIS7_EENS_8equal_toIS7_EELb1EEENS_21__unordered_map_equalIS7_SA_SF_SD_Lb1EEENS5_ISA_EEE12bucket_countB8ue170006Ev, symObjAddr: 0x1CBE8, symBinAddr: 0x10001E7E0, symSize: 0x28 }
  - { offsetInCU: 0x381E7, offset: 0x381E7, size: 0x8, addend: 0x0, symName: __ZNSt3__112__hash_tableINS_17__hash_value_typeINS_12basic_stringIcNS_11char_traitsIcEENS_9allocatorIcEEEEP6ShaderEENS_22__unordered_map_hasherIS7_SA_NS_4hashIS7_EENS_8equal_toIS7_EELb1EEENS_21__unordered_map_equalIS7_SA_SF_SD_Lb1EEENS5_ISA_EEE11__do_rehashILb1EEEvm, symObjAddr: 0x1CC10, symBinAddr: 0x10001E808, symSize: 0x5BC }
  - { offsetInCU: 0x382CC, offset: 0x382CC, size: 0x8, addend: 0x0, symName: __ZNSt3__112__hash_tableINS_17__hash_value_typeINS_12basic_stringIcNS_11char_traitsIcEENS_9allocatorIcEEEEP6ShaderEENS_22__unordered_map_hasherIS7_SA_NS_4hashIS7_EENS_8equal_toIS7_EELb1EEENS_21__unordered_map_equalIS7_SA_SF_SD_Lb1EEENS5_ISA_EEE4sizeB8ue170006Ev, symObjAddr: 0x1D1CC, symBinAddr: 0x10001EDC4, symSize: 0x28 }
  - { offsetInCU: 0x382F2, offset: 0x382F2, size: 0x8, addend: 0x0, symName: __ZNSt3__112__hash_tableINS_17__hash_value_typeINS_12basic_stringIcNS_11char_traitsIcEENS_9allocatorIcEEEEP6ShaderEENS_22__unordered_map_hasherIS7_SA_NS_4hashIS7_EENS_8equal_toIS7_EELb1EEENS_21__unordered_map_equalIS7_SA_SF_SD_Lb1EEENS5_ISA_EEE15max_load_factorB8ue170006Ev, symObjAddr: 0x1D1F4, symBinAddr: 0x10001EDEC, symSize: 0x28 }
  - { offsetInCU: 0x38318, offset: 0x38318, size: 0x8, addend: 0x0, symName: __ZNKSt3__125__bucket_list_deallocatorINS_9allocatorIPNS_16__hash_node_baseIPNS_11__hash_nodeINS_17__hash_value_typeINS_12basic_stringIcNS_11char_traitsIcEENS1_IcEEEEP6ShaderEEPvEEEEEEE4sizeB8ue170006Ev, symObjAddr: 0x1D21C, symBinAddr: 0x10001EE14, symSize: 0x6C }
  - { offsetInCU: 0x3833E, offset: 0x3833E, size: 0x8, addend: 0x0, symName: __ZNKSt3__117__compressed_pairImNS_9allocatorIPNS_16__hash_node_baseIPNS_11__hash_nodeINS_17__hash_value_typeINS_12basic_stringIcNS_11char_traitsIcEENS1_IcEEEEP6ShaderEEPvEEEEEEE5firstB8ue170006Ev, symObjAddr: 0x1D288, symBinAddr: 0x10001EE80, symSize: 0x24 }
  - { offsetInCU: 0x38364, offset: 0x38364, size: 0x8, addend: 0x0, symName: __ZNSt3__110unique_ptrIA_PNS_16__hash_node_baseIPNS_11__hash_nodeINS_17__hash_value_typeINS_12basic_stringIcNS_11char_traitsIcEENS_9allocatorIcEEEEP6ShaderEEPvEEEENS_25__bucket_list_deallocatorINS7_ISH_EEEEE11get_deleterB8ue170006Ev, symObjAddr: 0x1D2AC, symBinAddr: 0x10001EEA4, symSize: 0x24 }
  - { offsetInCU: 0x3838A, offset: 0x3838A, size: 0x8, addend: 0x0, symName: __ZNSt3__110unique_ptrIA_PNS_16__hash_node_baseIPNS_11__hash_nodeINS_17__hash_value_typeINS_12basic_stringIcNS_11char_traitsIcEENS_9allocatorIcEEEEP6ShaderEEPvEEEENS_25__bucket_list_deallocatorINS7_ISH_EEEEE5resetB8ue170006IPSH_EENS_9enable_ifIXsr28_CheckArrayPointerConversionIT_EE5valueEvE4typeESQ_, symObjAddr: 0x1D2D0, symBinAddr: 0x10001EEC8, symSize: 0xEC }
  - { offsetInCU: 0x383D7, offset: 0x383D7, size: 0x8, addend: 0x0, symName: __ZNSt3__116allocator_traitsINS_9allocatorIPNS_16__hash_node_baseIPNS_11__hash_nodeINS_17__hash_value_typeINS_12basic_stringIcNS_11char_traitsIcEENS1_IcEEEEP6ShaderEEPvEEEEEEE8allocateB8ue170006ERSI_m, symObjAddr: 0x1D3BC, symBinAddr: 0x10001EFB4, symSize: 0x2C }
  - { offsetInCU: 0x3840A, offset: 0x3840A, size: 0x8, addend: 0x0, symName: __ZNKSt3__110unique_ptrIA_PNS_16__hash_node_baseIPNS_11__hash_nodeINS_17__hash_value_typeINS_12basic_stringIcNS_11char_traitsIcEENS_9allocatorIcEEEEP6ShaderEEPvEEEENS_25__bucket_list_deallocatorINS7_ISH_EEEEEixB8ue170006Em, symObjAddr: 0x1D3E8, symBinAddr: 0x10001EFE0, symSize: 0x78 }
  - { offsetInCU: 0x3843F, offset: 0x3843F, size: 0x8, addend: 0x0, symName: __ZNSt3__116__hash_node_baseIPNS_11__hash_nodeINS_17__hash_value_typeINS_12basic_stringIcNS_11char_traitsIcEENS_9allocatorIcEEEEP6ShaderEEPvEEE5__ptrB8ue170006Ev, symObjAddr: 0x1D460, symBinAddr: 0x10001F058, symSize: 0x24 }
  - { offsetInCU: 0x38465, offset: 0x38465, size: 0x8, addend: 0x0, symName: __ZNKSt3__116__hash_node_baseIPNS_11__hash_nodeINS_17__hash_value_typeINS_12basic_stringIcNS_11char_traitsIcEENS_9allocatorIcEEEEP6ShaderEEPvEEE6__hashB8ue170006Ev, symObjAddr: 0x1D484, symBinAddr: 0x10001F07C, symSize: 0x64 }
  - { offsetInCU: 0x3848B, offset: 0x3848B, size: 0x8, addend: 0x0, symName: __ZNSt3__19allocatorIPNS_16__hash_node_baseIPNS_11__hash_nodeINS_17__hash_value_typeINS_12basic_stringIcNS_11char_traitsIcEENS0_IcEEEEP6ShaderEEPvEEEEE8allocateB8ue170006Em, symObjAddr: 0x1D4E8, symBinAddr: 0x10001F0E0, symSize: 0x5C }
  - { offsetInCU: 0x384BF, offset: 0x384BF, size: 0x8, addend: 0x0, symName: __ZNSt3__116allocator_traitsINS_9allocatorIPNS_16__hash_node_baseIPNS_11__hash_nodeINS_17__hash_value_typeINS_12basic_stringIcNS_11char_traitsIcEENS1_IcEEEEP6ShaderEEPvEEEEEEE8max_sizeB8ue170006ISI_vEEmRKSI_, symObjAddr: 0x1D544, symBinAddr: 0x10001F13C, symSize: 0x24 }
  - { offsetInCU: 0x384ED, offset: 0x384ED, size: 0x8, addend: 0x0, symName: __ZNKSt3__19allocatorIPNS_16__hash_node_baseIPNS_11__hash_nodeINS_17__hash_value_typeINS_12basic_stringIcNS_11char_traitsIcEENS0_IcEEEEP6ShaderEEPvEEEEE8max_sizeB8ue170006Ev, symObjAddr: 0x1D568, symBinAddr: 0x10001F160, symSize: 0x14 }
  - { offsetInCU: 0x38513, offset: 0x38513, size: 0x8, addend: 0x0, symName: __ZNKSt3__117__compressed_pairIPPNS_16__hash_node_baseIPNS_11__hash_nodeINS_17__hash_value_typeINS_12basic_stringIcNS_11char_traitsIcEENS_9allocatorIcEEEEP6ShaderEEPvEEEENS_25__bucket_list_deallocatorINS7_ISH_EEEEE5firstB8ue170006Ev, symObjAddr: 0x1D57C, symBinAddr: 0x10001F174, symSize: 0x24 }
  - { offsetInCU: 0x38539, offset: 0x38539, size: 0x8, addend: 0x0, symName: __ZNKSt3__122__compressed_pair_elemIPPNS_16__hash_node_baseIPNS_11__hash_nodeINS_17__hash_value_typeINS_12basic_stringIcNS_11char_traitsIcEENS_9allocatorIcEEEEP6ShaderEEPvEEEELi0ELb0EE5__getB8ue170006Ev, symObjAddr: 0x1D5A0, symBinAddr: 0x10001F198, symSize: 0x14 }
  - { offsetInCU: 0x3855F, offset: 0x3855F, size: 0x8, addend: 0x0, symName: __ZNSt3__117__compressed_pairImNS_22__unordered_map_hasherINS_12basic_stringIcNS_11char_traitsIcEENS_9allocatorIcEEEENS_17__hash_value_typeIS7_P6ShaderEENS_4hashIS7_EENS_8equal_toIS7_EELb1EEEE5firstB8ue170006Ev, symObjAddr: 0x1D5B4, symBinAddr: 0x10001F1AC, symSize: 0x24 }
  - { offsetInCU: 0x38585, offset: 0x38585, size: 0x8, addend: 0x0, symName: __ZNSt3__117__compressed_pairIfNS_21__unordered_map_equalINS_12basic_stringIcNS_11char_traitsIcEENS_9allocatorIcEEEENS_17__hash_value_typeIS7_P6ShaderEENS_8equal_toIS7_EENS_4hashIS7_EELb1EEEE5firstB8ue170006Ev, symObjAddr: 0x1D5D8, symBinAddr: 0x10001F1D0, symSize: 0x24 }
  - { offsetInCU: 0x385AB, offset: 0x385AB, size: 0x8, addend: 0x0, symName: __ZNSt3__112__hash_tableINS_17__hash_value_typeINS_12basic_stringIcNS_11char_traitsIcEENS_9allocatorIcEEEEP6ShaderEENS_22__unordered_map_hasherIS7_SA_NS_4hashIS7_EENS_8equal_toIS7_EELb1EEENS_21__unordered_map_equalIS7_SA_SF_SD_Lb1EEENS5_ISA_EEE15__insert_uniqueB8ue170006ERKNS_4pairIKS7_S9_EE, symObjAddr: 0x1D62C, symBinAddr: 0x10001F224, symSize: 0x238 }
  - { offsetInCU: 0x385E2, offset: 0x385E2, size: 0x8, addend: 0x0, symName: __ZNKSt3__125__hash_map_const_iteratorINS_21__hash_const_iteratorIPNS_11__hash_nodeINS_17__hash_value_typeINS_12basic_stringIcNS_11char_traitsIcEENS_9allocatorIcEEEEP6ShaderEEPvEEEEEdeB8ue170006Ev, symObjAddr: 0x1D864, symBinAddr: 0x10001F45C, symSize: 0x28 }
  - { offsetInCU: 0x38608, offset: 0x38608, size: 0x8, addend: 0x0, symName: __ZNSt3__125__hash_map_const_iteratorINS_21__hash_const_iteratorIPNS_11__hash_nodeINS_17__hash_value_typeINS_12basic_stringIcNS_11char_traitsIcEENS_9allocatorIcEEEEP6ShaderEEPvEEEEEppB8ue170006Ev, symObjAddr: 0x1D88C, symBinAddr: 0x10001F484, symSize: 0x2C }
  - { offsetInCU: 0x3862E, offset: 0x3862E, size: 0x8, addend: 0x0, symName: __ZNSt3__112__hash_tableINS_17__hash_value_typeINS_12basic_stringIcNS_11char_traitsIcEENS_9allocatorIcEEEEP6ShaderEENS_22__unordered_map_hasherIS7_SA_NS_4hashIS7_EENS_8equal_toIS7_EELb1EEENS_21__unordered_map_equalIS7_SA_SF_SD_Lb1EEENS5_ISA_EEE25__emplace_unique_key_argsIS7_JRKNS_4pairIKS7_S9_EEEEENSM_INS_15__hash_iteratorIPNS_11__hash_nodeISA_PvEEEEbEERKT_DpOT0_, symObjAddr: 0x1D9A4, symBinAddr: 0x10001F59C, symSize: 0xDD0 }
  - { offsetInCU: 0x38719, offset: 0x38719, size: 0x8, addend: 0x0, symName: __ZNSt3__122__hash_key_value_typesINS_17__hash_value_typeINS_12basic_stringIcNS_11char_traitsIcEENS_9allocatorIcEEEEP6ShaderEEE9__get_keyB8ue170006ERKNS_4pairIKS7_S9_EE, symObjAddr: 0x1E774, symBinAddr: 0x10002036C, symSize: 0x14 }
  - { offsetInCU: 0x3873C, offset: 0x3873C, size: 0x8, addend: 0x0, symName: __ZNSt3__112__hash_tableINS_17__hash_value_typeINS_12basic_stringIcNS_11char_traitsIcEENS_9allocatorIcEEEEP6ShaderEENS_22__unordered_map_hasherIS7_SA_NS_4hashIS7_EENS_8equal_toIS7_EELb1EEENS_21__unordered_map_equalIS7_SA_SF_SD_Lb1EEENS5_ISA_EEE13hash_functionB8ue170006Ev, symObjAddr: 0x1E788, symBinAddr: 0x100020380, symSize: 0x28 }
  - { offsetInCU: 0x38762, offset: 0x38762, size: 0x8, addend: 0x0, symName: __ZNKSt3__122__unordered_map_hasherINS_12basic_stringIcNS_11char_traitsIcEENS_9allocatorIcEEEENS_17__hash_value_typeIS6_P6ShaderEENS_4hashIS6_EENS_8equal_toIS6_EELb1EEclB8ue170006ERKS6_, symObjAddr: 0x1E7B0, symBinAddr: 0x1000203A8, symSize: 0x2C }
  - { offsetInCU: 0x38797, offset: 0x38797, size: 0x8, addend: 0x0, symName: __ZNSt3__112__hash_tableINS_17__hash_value_typeINS_12basic_stringIcNS_11char_traitsIcEENS_9allocatorIcEEEEP6ShaderEENS_22__unordered_map_hasherIS7_SA_NS_4hashIS7_EENS_8equal_toIS7_EELb1EEENS_21__unordered_map_equalIS7_SA_SF_SD_Lb1EEENS5_ISA_EEE6key_eqB8ue170006Ev, symObjAddr: 0x1E7DC, symBinAddr: 0x1000203D4, symSize: 0x28 }
  - { offsetInCU: 0x387BD, offset: 0x387BD, size: 0x8, addend: 0x0, symName: __ZNKSt3__121__unordered_map_equalINS_12basic_stringIcNS_11char_traitsIcEENS_9allocatorIcEEEENS_17__hash_value_typeIS6_P6ShaderEENS_8equal_toIS6_EENS_4hashIS6_EELb1EEclB8ue170006ERKSA_RKS6_, symObjAddr: 0x1E804, symBinAddr: 0x1000203FC, symSize: 0x48 }
  - { offsetInCU: 0x38801, offset: 0x38801, size: 0x8, addend: 0x0, symName: __ZNSt3__112__hash_tableINS_17__hash_value_typeINS_12basic_stringIcNS_11char_traitsIcEENS_9allocatorIcEEEEP6ShaderEENS_22__unordered_map_hasherIS7_SA_NS_4hashIS7_EENS_8equal_toIS7_EELb1EEENS_21__unordered_map_equalIS7_SA_SF_SD_Lb1EEENS5_ISA_EEE21__construct_node_hashIRKNS_4pairIKS7_S9_EEJEEENS_10unique_ptrINS_11__hash_nodeISA_PvEENS_22__hash_node_destructorINS5_ISU_EEEEEEmOT_DpOT0_, symObjAddr: 0x1E84C, symBinAddr: 0x100020444, symSize: 0x418 }
  - { offsetInCU: 0x38879, offset: 0x38879, size: 0x8, addend: 0x0, symName: __ZNKSt3__110unique_ptrINS_11__hash_nodeINS_17__hash_value_typeINS_12basic_stringIcNS_11char_traitsIcEENS_9allocatorIcEEEEP6ShaderEEPvEENS_22__hash_node_destructorINS6_ISD_EEEEEptB8ue170006Ev, symObjAddr: 0x1EC64, symBinAddr: 0x10002085C, symSize: 0x6C }
  - { offsetInCU: 0x3889F, offset: 0x3889F, size: 0x8, addend: 0x0, symName: __ZNKSt3__110unique_ptrINS_11__hash_nodeINS_17__hash_value_typeINS_12basic_stringIcNS_11char_traitsIcEENS_9allocatorIcEEEEP6ShaderEEPvEENS_22__hash_node_destructorINS6_ISD_EEEEE3getB8ue170006Ev, symObjAddr: 0x1ECD0, symBinAddr: 0x1000208C8, symSize: 0x6C }
  - { offsetInCU: 0x388C5, offset: 0x388C5, size: 0x8, addend: 0x0, symName: __ZNSt3__110unique_ptrINS_11__hash_nodeINS_17__hash_value_typeINS_12basic_stringIcNS_11char_traitsIcEENS_9allocatorIcEEEEP6ShaderEEPvEENS_22__hash_node_destructorINS6_ISD_EEEEE7releaseB8ue170006Ev, symObjAddr: 0x1ED3C, symBinAddr: 0x100020934, symSize: 0xB8 }
  - { offsetInCU: 0x388FA, offset: 0x388FA, size: 0x8, addend: 0x0, symName: __ZNSt3__110unique_ptrINS_11__hash_nodeINS_17__hash_value_typeINS_12basic_stringIcNS_11char_traitsIcEENS_9allocatorIcEEEEP6ShaderEEPvEENS_22__hash_node_destructorINS6_ISD_EEEEED1B8ue170006Ev, symObjAddr: 0x1EDF4, symBinAddr: 0x1000209EC, symSize: 0x2C }
  - { offsetInCU: 0x38924, offset: 0x38924, size: 0x8, addend: 0x0, symName: __ZNSt3__115__hash_iteratorIPNS_11__hash_nodeINS_17__hash_value_typeINS_12basic_stringIcNS_11char_traitsIcEENS_9allocatorIcEEEEP6ShaderEEPvEEEC1B8ue170006EPNS_16__hash_node_baseISE_EE, symObjAddr: 0x1EE20, symBinAddr: 0x100020A18, symSize: 0x34 }
  - { offsetInCU: 0x38962, offset: 0x38962, size: 0x8, addend: 0x0, symName: __ZNSt3__14pairINS_15__hash_iteratorIPNS_11__hash_nodeINS_17__hash_value_typeINS_12basic_stringIcNS_11char_traitsIcEENS_9allocatorIcEEEEP6ShaderEEPvEEEEbEC1B8ue170006ISG_RbLSD_0EEEOT_OT0_, symObjAddr: 0x1EE54, symBinAddr: 0x100020A4C, symSize: 0x3C }
  - { offsetInCU: 0x389C0, offset: 0x389C0, size: 0x8, addend: 0x0, symName: __ZNSt3__117__compressed_pairImNS_22__unordered_map_hasherINS_12basic_stringIcNS_11char_traitsIcEENS_9allocatorIcEEEENS_17__hash_value_typeIS7_P6ShaderEENS_4hashIS7_EENS_8equal_toIS7_EELb1EEEE6secondB8ue170006Ev, symObjAddr: 0x1EE90, symBinAddr: 0x100020A88, symSize: 0x24 }
  - { offsetInCU: 0x389E6, offset: 0x389E6, size: 0x8, addend: 0x0, symName: __ZNSt3__122__compressed_pair_elemINS_22__unordered_map_hasherINS_12basic_stringIcNS_11char_traitsIcEENS_9allocatorIcEEEENS_17__hash_value_typeIS7_P6ShaderEENS_4hashIS7_EENS_8equal_toIS7_EELb1EEELi1ELb1EE5__getB8ue170006Ev, symObjAddr: 0x1EEB4, symBinAddr: 0x100020AAC, symSize: 0x14 }
  - { offsetInCU: 0x38A0C, offset: 0x38A0C, size: 0x8, addend: 0x0, symName: __ZNSt3__117__compressed_pairIfNS_21__unordered_map_equalINS_12basic_stringIcNS_11char_traitsIcEENS_9allocatorIcEEEENS_17__hash_value_typeIS7_P6ShaderEENS_8equal_toIS7_EENS_4hashIS7_EELb1EEEE6secondB8ue170006Ev, symObjAddr: 0x1EEC8, symBinAddr: 0x100020AC0, symSize: 0x24 }
  - { offsetInCU: 0x38A32, offset: 0x38A32, size: 0x8, addend: 0x0, symName: __ZNSt3__122__compressed_pair_elemINS_21__unordered_map_equalINS_12basic_stringIcNS_11char_traitsIcEENS_9allocatorIcEEEENS_17__hash_value_typeIS7_P6ShaderEENS_8equal_toIS7_EENS_4hashIS7_EELb1EEELi1ELb1EE5__getB8ue170006Ev, symObjAddr: 0x1EEEC, symBinAddr: 0x100020AE4, symSize: 0x14 }
  - { offsetInCU: 0x38A58, offset: 0x38A58, size: 0x8, addend: 0x0, symName: __ZNKSt3__117__hash_value_typeINS_12basic_stringIcNS_11char_traitsIcEENS_9allocatorIcEEEEP6ShaderE11__get_valueB8ue170006Ev, symObjAddr: 0x1EF00, symBinAddr: 0x100020AF8, symSize: 0x24 }
  - { offsetInCU: 0x38A7E, offset: 0x38A7E, size: 0x8, addend: 0x0, symName: __ZNSt3__116allocator_traitsINS_9allocatorINS_11__hash_nodeINS_17__hash_value_typeINS_12basic_stringIcNS_11char_traitsIcEENS1_IcEEEEP6ShaderEEPvEEEEE8allocateB8ue170006ERSE_m, symObjAddr: 0x1EF5C, symBinAddr: 0x100020B54, symSize: 0x2C }
  - { offsetInCU: 0x38AB1, offset: 0x38AB1, size: 0x8, addend: 0x0, symName: __ZNSt3__122__hash_node_destructorINS_9allocatorINS_11__hash_nodeINS_17__hash_value_typeINS_12basic_stringIcNS_11char_traitsIcEENS1_IcEEEEP6ShaderEEPvEEEEEC1B8ue170006ERSE_b, symObjAddr: 0x1EF88, symBinAddr: 0x100020B80, symSize: 0x48 }
  - { offsetInCU: 0x38AFE, offset: 0x38AFE, size: 0x8, addend: 0x0, symName: __ZNSt3__110unique_ptrINS_11__hash_nodeINS_17__hash_value_typeINS_12basic_stringIcNS_11char_traitsIcEENS_9allocatorIcEEEEP6ShaderEEPvEENS_22__hash_node_destructorINS6_ISD_EEEEEC1B8ue170006ILb1EvEEPSD_NS_16__dependent_typeINS_27__unique_ptr_deleter_sfinaeISG_EEXT_EE20__good_rval_ref_typeE, symObjAddr: 0x1EFD0, symBinAddr: 0x100020BC8, symSize: 0x3C }
  - { offsetInCU: 0x38B4F, offset: 0x38B4F, size: 0x8, addend: 0x0, symName: __ZNSt3__116allocator_traitsINS_9allocatorINS_11__hash_nodeINS_17__hash_value_typeINS_12basic_stringIcNS_11char_traitsIcEENS1_IcEEEEP6ShaderEEPvEEEEE9constructB8ue170006INS_4pairIKS8_SA_EEJRKSJ_EvEEvRSE_PT_DpOT0_, symObjAddr: 0x1F00C, symBinAddr: 0x100020C04, symSize: 0x34 }
  - { offsetInCU: 0x38BA6, offset: 0x38BA6, size: 0x8, addend: 0x0, symName: __ZNSt3__110unique_ptrINS_11__hash_nodeINS_17__hash_value_typeINS_12basic_stringIcNS_11char_traitsIcEENS_9allocatorIcEEEEP6ShaderEEPvEENS_22__hash_node_destructorINS6_ISD_EEEEE11get_deleterB8ue170006Ev, symObjAddr: 0x1F040, symBinAddr: 0x100020C38, symSize: 0x24 }
  - { offsetInCU: 0x38BCC, offset: 0x38BCC, size: 0x8, addend: 0x0, symName: __ZNSt3__19allocatorINS_11__hash_nodeINS_17__hash_value_typeINS_12basic_stringIcNS_11char_traitsIcEENS0_IcEEEEP6ShaderEEPvEEE8allocateB8ue170006Em, symObjAddr: 0x1F064, symBinAddr: 0x100020C5C, symSize: 0x60 }
  - { offsetInCU: 0x38C00, offset: 0x38C00, size: 0x8, addend: 0x0, symName: __ZNSt3__116allocator_traitsINS_9allocatorINS_11__hash_nodeINS_17__hash_value_typeINS_12basic_stringIcNS_11char_traitsIcEENS1_IcEEEEP6ShaderEEPvEEEEE8max_sizeB8ue170006ISE_vEEmRKSE_, symObjAddr: 0x1F0C4, symBinAddr: 0x100020CBC, symSize: 0x24 }
  - { offsetInCU: 0x38C2E, offset: 0x38C2E, size: 0x8, addend: 0x0, symName: __ZNKSt3__19allocatorINS_11__hash_nodeINS_17__hash_value_typeINS_12basic_stringIcNS_11char_traitsIcEENS0_IcEEEEP6ShaderEEPvEEE8max_sizeB8ue170006Ev, symObjAddr: 0x1F0E8, symBinAddr: 0x100020CE0, symSize: 0x18 }
  - { offsetInCU: 0x38C54, offset: 0x38C54, size: 0x8, addend: 0x0, symName: __ZNSt3__122__hash_node_destructorINS_9allocatorINS_11__hash_nodeINS_17__hash_value_typeINS_12basic_stringIcNS_11char_traitsIcEENS1_IcEEEEP6ShaderEEPvEEEEEC2B8ue170006ERSE_b, symObjAddr: 0x1F100, symBinAddr: 0x100020CF8, symSize: 0xF0 }
  - { offsetInCU: 0x38C9C, offset: 0x38C9C, size: 0x8, addend: 0x0, symName: __ZNSt3__110unique_ptrINS_11__hash_nodeINS_17__hash_value_typeINS_12basic_stringIcNS_11char_traitsIcEENS_9allocatorIcEEEEP6ShaderEEPvEENS_22__hash_node_destructorINS6_ISD_EEEEEC2B8ue170006ILb1EvEEPSD_NS_16__dependent_typeINS_27__unique_ptr_deleter_sfinaeISG_EEXT_EE20__good_rval_ref_typeE, symObjAddr: 0x1F1F0, symBinAddr: 0x100020DE8, symSize: 0x21C }
  - { offsetInCU: 0x38CF3, offset: 0x38CF3, size: 0x8, addend: 0x0, symName: __ZNSt3__117__compressed_pairIPNS_11__hash_nodeINS_17__hash_value_typeINS_12basic_stringIcNS_11char_traitsIcEENS_9allocatorIcEEEEP6ShaderEEPvEENS_22__hash_node_destructorINS6_ISD_EEEEEC1B8ue170006IRSE_SH_EEOT_OT0_, symObjAddr: 0x1F40C, symBinAddr: 0x100021004, symSize: 0x3C }
  - { offsetInCU: 0x38D4B, offset: 0x38D4B, size: 0x8, addend: 0x0, symName: __ZNSt3__117__compressed_pairIPNS_11__hash_nodeINS_17__hash_value_typeINS_12basic_stringIcNS_11char_traitsIcEENS_9allocatorIcEEEEP6ShaderEEPvEENS_22__hash_node_destructorINS6_ISD_EEEEEC2B8ue170006IRSE_SH_EEOT_OT0_, symObjAddr: 0x1F448, symBinAddr: 0x100021040, symSize: 0x48 }
  - { offsetInCU: 0x38DA3, offset: 0x38DA3, size: 0x8, addend: 0x0, symName: __ZNSt3__122__compressed_pair_elemIPNS_11__hash_nodeINS_17__hash_value_typeINS_12basic_stringIcNS_11char_traitsIcEENS_9allocatorIcEEEEP6ShaderEEPvEELi0ELb0EEC2B8ue170006IRSE_vEEOT_, symObjAddr: 0x1F490, symBinAddr: 0x100021088, symSize: 0xB0 }
  - { offsetInCU: 0x38DE5, offset: 0x38DE5, size: 0x8, addend: 0x0, symName: __ZNSt3__122__compressed_pair_elemINS_22__hash_node_destructorINS_9allocatorINS_11__hash_nodeINS_17__hash_value_typeINS_12basic_stringIcNS_11char_traitsIcEENS2_IcEEEEP6ShaderEEPvEEEEEELi1ELb0EEC2B8ue170006ISG_vEEOT_, symObjAddr: 0x1F540, symBinAddr: 0x100021138, symSize: 0x38 }
  - { offsetInCU: 0x38E27, offset: 0x38E27, size: 0x8, addend: 0x0, symName: __ZNSt3__19allocatorINS_11__hash_nodeINS_17__hash_value_typeINS_12basic_stringIcNS_11char_traitsIcEENS0_IcEEEEP6ShaderEEPvEEE9constructB8ue170006INS_4pairIKS7_S9_EEJRKSH_EEEvPT_DpOT0_, symObjAddr: 0x1F578, symBinAddr: 0x100021170, symSize: 0x30 }
  - { offsetInCU: 0x38E7D, offset: 0x38E7D, size: 0x8, addend: 0x0, symName: __ZNSt3__14pairIKNS_12basic_stringIcNS_11char_traitsIcEENS_9allocatorIcEEEEP6ShaderEC1B8ue170006ERKSA_, symObjAddr: 0x1F5A8, symBinAddr: 0x1000211A0, symSize: 0x34 }
  - { offsetInCU: 0x38EB2, offset: 0x38EB2, size: 0x8, addend: 0x0, symName: __ZNSt3__14pairIKNS_12basic_stringIcNS_11char_traitsIcEENS_9allocatorIcEEEEP6ShaderEC2B8ue170006ERKSA_, symObjAddr: 0x1F5DC, symBinAddr: 0x1000211D4, symSize: 0xCC }
  - { offsetInCU: 0x38EE7, offset: 0x38EE7, size: 0x8, addend: 0x0, symName: __ZNSt3__117__compressed_pairIPNS_11__hash_nodeINS_17__hash_value_typeINS_12basic_stringIcNS_11char_traitsIcEENS_9allocatorIcEEEEP6ShaderEEPvEENS_22__hash_node_destructorINS6_ISD_EEEEE6secondB8ue170006Ev, symObjAddr: 0x1F6A8, symBinAddr: 0x1000212A0, symSize: 0x28 }
  - { offsetInCU: 0x38F0D, offset: 0x38F0D, size: 0x8, addend: 0x0, symName: __ZNSt3__122__compressed_pair_elemINS_22__hash_node_destructorINS_9allocatorINS_11__hash_nodeINS_17__hash_value_typeINS_12basic_stringIcNS_11char_traitsIcEENS2_IcEEEEP6ShaderEEPvEEEEEELi1ELb0EE5__getB8ue170006Ev, symObjAddr: 0x1F6D0, symBinAddr: 0x1000212C8, symSize: 0x14 }
  - { offsetInCU: 0x38F33, offset: 0x38F33, size: 0x8, addend: 0x0, symName: __ZNKSt3__117__compressed_pairIPNS_11__hash_nodeINS_17__hash_value_typeINS_12basic_stringIcNS_11char_traitsIcEENS_9allocatorIcEEEEP6ShaderEEPvEENS_22__hash_node_destructorINS6_ISD_EEEEE5firstB8ue170006Ev, symObjAddr: 0x1F6E4, symBinAddr: 0x1000212DC, symSize: 0x24 }
  - { offsetInCU: 0x38F59, offset: 0x38F59, size: 0x8, addend: 0x0, symName: __ZNKSt3__122__compressed_pair_elemIPNS_11__hash_nodeINS_17__hash_value_typeINS_12basic_stringIcNS_11char_traitsIcEENS_9allocatorIcEEEEP6ShaderEEPvEELi0ELb0EE5__getB8ue170006Ev, symObjAddr: 0x1F708, symBinAddr: 0x100021300, symSize: 0x14 }
  - { offsetInCU: 0x38F7F, offset: 0x38F7F, size: 0x8, addend: 0x0, symName: __ZNSt3__117__compressed_pairIPNS_11__hash_nodeINS_17__hash_value_typeINS_12basic_stringIcNS_11char_traitsIcEENS_9allocatorIcEEEEP6ShaderEEPvEENS_22__hash_node_destructorINS6_ISD_EEEEE5firstB8ue170006Ev, symObjAddr: 0x1F71C, symBinAddr: 0x100021314, symSize: 0x24 }
  - { offsetInCU: 0x38FA5, offset: 0x38FA5, size: 0x8, addend: 0x0, symName: __ZNSt3__122__compressed_pair_elemIPNS_11__hash_nodeINS_17__hash_value_typeINS_12basic_stringIcNS_11char_traitsIcEENS_9allocatorIcEEEEP6ShaderEEPvEELi0ELb0EE5__getB8ue170006Ev, symObjAddr: 0x1F740, symBinAddr: 0x100021338, symSize: 0x14 }
  - { offsetInCU: 0x38FCB, offset: 0x38FCB, size: 0x8, addend: 0x0, symName: __ZNSt3__110unique_ptrINS_11__hash_nodeINS_17__hash_value_typeINS_12basic_stringIcNS_11char_traitsIcEENS_9allocatorIcEEEEP6ShaderEEPvEENS_22__hash_node_destructorINS6_ISD_EEEEED2B8ue170006Ev, symObjAddr: 0x1F754, symBinAddr: 0x10002134C, symSize: 0x30 }
  - { offsetInCU: 0x38FF5, offset: 0x38FF5, size: 0x8, addend: 0x0, symName: __ZNSt3__110unique_ptrINS_11__hash_nodeINS_17__hash_value_typeINS_12basic_stringIcNS_11char_traitsIcEENS_9allocatorIcEEEEP6ShaderEEPvEENS_22__hash_node_destructorINS6_ISD_EEEEE5resetB8ue170006EPSD_, symObjAddr: 0x1F784, symBinAddr: 0x10002137C, symSize: 0xEC }
  - { offsetInCU: 0x39039, offset: 0x39039, size: 0x8, addend: 0x0, symName: __ZNSt3__122__hash_node_destructorINS_9allocatorINS_11__hash_nodeINS_17__hash_value_typeINS_12basic_stringIcNS_11char_traitsIcEENS1_IcEEEEP6ShaderEEPvEEEEEclB8ue170006EPSD_, symObjAddr: 0x1F870, symBinAddr: 0x100021468, symSize: 0x164 }
  - { offsetInCU: 0x3906E, offset: 0x3906E, size: 0x8, addend: 0x0, symName: __ZNSt3__115__hash_iteratorIPNS_11__hash_nodeINS_17__hash_value_typeINS_12basic_stringIcNS_11char_traitsIcEENS_9allocatorIcEEEEP6ShaderEEPvEEEC2B8ue170006EPNS_16__hash_node_baseISE_EE, symObjAddr: 0x1F9D4, symBinAddr: 0x1000215CC, symSize: 0x70 }
  - { offsetInCU: 0x390A7, offset: 0x390A7, size: 0x8, addend: 0x0, symName: __ZNSt3__14pairINS_15__hash_iteratorIPNS_11__hash_nodeINS_17__hash_value_typeINS_12basic_stringIcNS_11char_traitsIcEENS_9allocatorIcEEEEP6ShaderEEPvEEEEbEC2B8ue170006ISG_RbLSD_0EEEOT_OT0_, symObjAddr: 0x1FA44, symBinAddr: 0x10002163C, symSize: 0x120 }
  - { offsetInCU: 0x39105, offset: 0x39105, size: 0x8, addend: 0x0, symName: __ZNKSt3__121__hash_const_iteratorIPNS_11__hash_nodeINS_17__hash_value_typeINS_12basic_stringIcNS_11char_traitsIcEENS_9allocatorIcEEEEP6ShaderEEPvEEEptB8ue170006Ev, symObjAddr: 0x1FB64, symBinAddr: 0x10002175C, symSize: 0x6C }
  - { offsetInCU: 0x3912B, offset: 0x3912B, size: 0x8, addend: 0x0, symName: __ZNSt3__114pointer_traitsIPKNS_17__hash_value_typeINS_12basic_stringIcNS_11char_traitsIcEENS_9allocatorIcEEEEP6ShaderEEE10pointer_toB8ue170006ERSB_, symObjAddr: 0x1FBD0, symBinAddr: 0x1000217C8, symSize: 0x14 }
  - { offsetInCU: 0x3914E, offset: 0x3914E, size: 0x8, addend: 0x0, symName: __ZNSt3__121__hash_const_iteratorIPNS_11__hash_nodeINS_17__hash_value_typeINS_12basic_stringIcNS_11char_traitsIcEENS_9allocatorIcEEEEP6ShaderEEPvEEEppB8ue170006Ev, symObjAddr: 0x1FBE4, symBinAddr: 0x1000217DC, symSize: 0xDC }
  - { offsetInCU: 0x39174, offset: 0x39174, size: 0x8, addend: 0x0, symName: __ZNKSt3__112__hash_tableINS_17__hash_value_typeINS_12basic_stringIcNS_11char_traitsIcEENS_9allocatorIcEEEEP6ShaderEENS_22__unordered_map_hasherIS7_SA_NS_4hashIS7_EENS_8equal_toIS7_EELb1EEENS_21__unordered_map_equalIS7_SA_SF_SD_Lb1EEENS5_ISA_EEE5beginEv, symObjAddr: 0x1FCC0, symBinAddr: 0x1000218B8, symSize: 0x23C }
  - { offsetInCU: 0x3919D, offset: 0x3919D, size: 0x8, addend: 0x0, symName: __ZNSt3__125__hash_map_const_iteratorINS_21__hash_const_iteratorIPNS_11__hash_nodeINS_17__hash_value_typeINS_12basic_stringIcNS_11char_traitsIcEENS_9allocatorIcEEEEP6ShaderEEPvEEEEEC1B8ue170006ESG_, symObjAddr: 0x1FEFC, symBinAddr: 0x100021AF4, symSize: 0x238 }
  - { offsetInCU: 0x391DB, offset: 0x391DB, size: 0x8, addend: 0x0, symName: __ZNKSt3__117__compressed_pairINS_16__hash_node_baseIPNS_11__hash_nodeINS_17__hash_value_typeINS_12basic_stringIcNS_11char_traitsIcEENS_9allocatorIcEEEEP6ShaderEEPvEEEENS7_ISE_EEE5firstB8ue170006Ev, symObjAddr: 0x20134, symBinAddr: 0x100021D2C, symSize: 0x24 }
  - { offsetInCU: 0x39201, offset: 0x39201, size: 0x8, addend: 0x0, symName: __ZNSt3__121__hash_const_iteratorIPNS_11__hash_nodeINS_17__hash_value_typeINS_12basic_stringIcNS_11char_traitsIcEENS_9allocatorIcEEEEP6ShaderEEPvEEEC1B8ue170006EPNS_16__hash_node_baseISE_EE, symObjAddr: 0x20158, symBinAddr: 0x100021D50, symSize: 0x34 }
  - { offsetInCU: 0x3923A, offset: 0x3923A, size: 0x8, addend: 0x0, symName: __ZNKSt3__122__compressed_pair_elemINS_16__hash_node_baseIPNS_11__hash_nodeINS_17__hash_value_typeINS_12basic_stringIcNS_11char_traitsIcEENS_9allocatorIcEEEEP6ShaderEEPvEEEELi0ELb0EE5__getB8ue170006Ev, symObjAddr: 0x2018C, symBinAddr: 0x100021D84, symSize: 0x14 }
  - { offsetInCU: 0x39260, offset: 0x39260, size: 0x8, addend: 0x0, symName: __ZNSt3__121__hash_const_iteratorIPNS_11__hash_nodeINS_17__hash_value_typeINS_12basic_stringIcNS_11char_traitsIcEENS_9allocatorIcEEEEP6ShaderEEPvEEEC2B8ue170006EPNS_16__hash_node_baseISE_EE, symObjAddr: 0x201A0, symBinAddr: 0x100021D98, symSize: 0x70 }
  - { offsetInCU: 0x39299, offset: 0x39299, size: 0x8, addend: 0x0, symName: __ZNSt3__125__hash_map_const_iteratorINS_21__hash_const_iteratorIPNS_11__hash_nodeINS_17__hash_value_typeINS_12basic_stringIcNS_11char_traitsIcEENS_9allocatorIcEEEEP6ShaderEEPvEEEEEC2B8ue170006ESG_, symObjAddr: 0x20210, symBinAddr: 0x100021E08, symSize: 0x204 }
  - { offsetInCU: 0x392D7, offset: 0x392D7, size: 0x8, addend: 0x0, symName: __ZNKSt3__112__hash_tableINS_17__hash_value_typeINS_12basic_stringIcNS_11char_traitsIcEENS_9allocatorIcEEEEP6ShaderEENS_22__unordered_map_hasherIS7_SA_NS_4hashIS7_EENS_8equal_toIS7_EELb1EEENS_21__unordered_map_equalIS7_SA_SF_SD_Lb1EEENS5_ISA_EEE3endEv, symObjAddr: 0x20414, symBinAddr: 0x10002200C, symSize: 0x1F8 }
  - { offsetInCU: 0x39300, offset: 0x39300, size: 0x8, addend: 0x0, symName: __ZNSt3__110unique_ptrI7SWindowNS_14default_deleteIS1_EEEC1B8ue170006ILb1EvEEPS1_, symObjAddr: 0x2060C, symBinAddr: 0x100022204, symSize: 0x34 }
  - { offsetInCU: 0x39343, offset: 0x39343, size: 0x8, addend: 0x0, symName: __ZNSt3__110unique_ptrI7SWindowNS_14default_deleteIS1_EEEC2B8ue170006ILb1EvEEPS1_, symObjAddr: 0x20640, symBinAddr: 0x100022238, symSize: 0x260 }
  - { offsetInCU: 0x3938B, offset: 0x3938B, size: 0x8, addend: 0x0, symName: __ZNSt3__117__compressed_pairIP7SWindowNS_14default_deleteIS1_EEEC1B8ue170006IRS2_NS_16__value_init_tagEEEOT_OT0_, symObjAddr: 0x208A0, symBinAddr: 0x100022498, symSize: 0x3C }
  - { offsetInCU: 0x393E3, offset: 0x393E3, size: 0x8, addend: 0x0, symName: __ZNSt3__117__compressed_pairIP7SWindowNS_14default_deleteIS1_EEEC2B8ue170006IRS2_NS_16__value_init_tagEEEOT_OT0_, symObjAddr: 0x208DC, symBinAddr: 0x1000224D4, symSize: 0x40 }
  - { offsetInCU: 0x3943B, offset: 0x3943B, size: 0x8, addend: 0x0, symName: __ZNSt3__122__compressed_pair_elemIP7SWindowLi0ELb0EEC2B8ue170006IRS2_vEEOT_, symObjAddr: 0x2091C, symBinAddr: 0x100022514, symSize: 0xB0 }
  - { offsetInCU: 0x3947D, offset: 0x3947D, size: 0x8, addend: 0x0, symName: __ZNSt3__110unique_ptrI7SWindowNS_14default_deleteIS1_EEE7releaseB8ue170006Ev, symObjAddr: 0x209CC, symBinAddr: 0x1000225C4, symSize: 0xB8 }
  - { offsetInCU: 0x394B2, offset: 0x394B2, size: 0x8, addend: 0x0, symName: __ZNSt3__110unique_ptrI7SWindowNS_14default_deleteIS1_EEE11get_deleterB8ue170006Ev, symObjAddr: 0x20A84, symBinAddr: 0x10002267C, symSize: 0x24 }
  - { offsetInCU: 0x394D8, offset: 0x394D8, size: 0x8, addend: 0x0, symName: __ZNKSt3__117__compressed_pairIP7SWindowNS_14default_deleteIS1_EEE5firstB8ue170006Ev, symObjAddr: 0x20AA8, symBinAddr: 0x1000226A0, symSize: 0x24 }
  - { offsetInCU: 0x394FE, offset: 0x394FE, size: 0x8, addend: 0x0, symName: __ZNKSt3__122__compressed_pair_elemIP7SWindowLi0ELb0EE5__getB8ue170006Ev, symObjAddr: 0x20ACC, symBinAddr: 0x1000226C4, symSize: 0x14 }
  - { offsetInCU: 0x26, offset: 0x398A0, size: 0x8, addend: 0x0, symName: _gladLoadGL, symObjAddr: 0x0, symBinAddr: 0x1000230A4, symSize: 0x4C }
  - { offsetInCU: 0x40, offset: 0x398BA, size: 0x8, addend: 0x0, symName: _GLVersion, symObjAddr: 0x2FD20, symBinAddr: 0x10060EA00, symSize: 0x0 }
  - { offsetInCU: 0x80, offset: 0x398FA, size: 0x8, addend: 0x0, symName: _GLAD_GL_VERSION_1_0, symObjAddr: 0x2FD40, symBinAddr: 0x10060EA20, symSize: 0x0 }
  - { offsetInCU: 0x97, offset: 0x39911, size: 0x8, addend: 0x0, symName: _GLAD_GL_VERSION_1_1, symObjAddr: 0x2FD60, symBinAddr: 0x10060EA40, symSize: 0x0 }
  - { offsetInCU: 0xAE, offset: 0x39928, size: 0x8, addend: 0x0, symName: _GLAD_GL_VERSION_1_2, symObjAddr: 0x2FD80, symBinAddr: 0x10060EA60, symSize: 0x0 }
  - { offsetInCU: 0xC5, offset: 0x3993F, size: 0x8, addend: 0x0, symName: _GLAD_GL_VERSION_1_3, symObjAddr: 0x2FDA0, symBinAddr: 0x10060EA80, symSize: 0x0 }
  - { offsetInCU: 0xDC, offset: 0x39956, size: 0x8, addend: 0x0, symName: _GLAD_GL_VERSION_1_4, symObjAddr: 0x2FDC0, symBinAddr: 0x10060EAA0, symSize: 0x0 }
  - { offsetInCU: 0xF3, offset: 0x3996D, size: 0x8, addend: 0x0, symName: _GLAD_GL_VERSION_1_5, symObjAddr: 0x2FDE0, symBinAddr: 0x10060EAC0, symSize: 0x0 }
  - { offsetInCU: 0x10A, offset: 0x39984, size: 0x8, addend: 0x0, symName: _GLAD_GL_VERSION_2_0, symObjAddr: 0x2FE00, symBinAddr: 0x10060EAE0, symSize: 0x0 }
  - { offsetInCU: 0x121, offset: 0x3999B, size: 0x8, addend: 0x0, symName: _GLAD_GL_VERSION_2_1, symObjAddr: 0x2FE20, symBinAddr: 0x10060EB00, symSize: 0x0 }
  - { offsetInCU: 0x138, offset: 0x399B2, size: 0x8, addend: 0x0, symName: _GLAD_GL_VERSION_3_0, symObjAddr: 0x2FE40, symBinAddr: 0x10060EB20, symSize: 0x0 }
  - { offsetInCU: 0x14F, offset: 0x399C9, size: 0x8, addend: 0x0, symName: _GLAD_GL_VERSION_3_1, symObjAddr: 0x2FE60, symBinAddr: 0x10060EB40, symSize: 0x0 }
  - { offsetInCU: 0x166, offset: 0x399E0, size: 0x8, addend: 0x0, symName: _GLAD_GL_VERSION_3_2, symObjAddr: 0x2FE80, symBinAddr: 0x10060EB60, symSize: 0x0 }
  - { offsetInCU: 0x17D, offset: 0x399F7, size: 0x8, addend: 0x0, symName: _GLAD_GL_VERSION_3_3, symObjAddr: 0x2FEA0, symBinAddr: 0x10060EB80, symSize: 0x0 }
  - { offsetInCU: 0x194, offset: 0x39A0E, size: 0x8, addend: 0x0, symName: _glad_glActiveTexture, symObjAddr: 0x2FEC0, symBinAddr: 0x10060EBA0, symSize: 0x0 }
  - { offsetInCU: 0x1D6, offset: 0x39A50, size: 0x8, addend: 0x0, symName: _glad_glAttachShader, symObjAddr: 0x2FEE0, symBinAddr: 0x10060EBC0, symSize: 0x0 }
  - { offsetInCU: 0x20B, offset: 0x39A85, size: 0x8, addend: 0x0, symName: _glad_glBeginConditionalRender, symObjAddr: 0x2FF00, symBinAddr: 0x10060EBE0, symSize: 0x0 }
  - { offsetInCU: 0x240, offset: 0x39ABA, size: 0x8, addend: 0x0, symName: _glad_glBeginQuery, symObjAddr: 0x2FF20, symBinAddr: 0x10060EC00, symSize: 0x0 }
  - { offsetInCU: 0x275, offset: 0x39AEF, size: 0x8, addend: 0x0, symName: _glad_glBeginTransformFeedback, symObjAddr: 0x2FF40, symBinAddr: 0x10060EC20, symSize: 0x0 }
  - { offsetInCU: 0x298, offset: 0x39B12, size: 0x8, addend: 0x0, symName: _glad_glBindAttribLocation, symObjAddr: 0x2FF60, symBinAddr: 0x10060EC40, symSize: 0x0 }
  - { offsetInCU: 0x2EE, offset: 0x39B68, size: 0x8, addend: 0x0, symName: _glad_glBindBuffer, symObjAddr: 0x2FF80, symBinAddr: 0x10060EC60, symSize: 0x0 }
  - { offsetInCU: 0x311, offset: 0x39B8B, size: 0x8, addend: 0x0, symName: _glad_glBindBufferBase, symObjAddr: 0x2FFA0, symBinAddr: 0x10060EC80, symSize: 0x0 }
  - { offsetInCU: 0x34B, offset: 0x39BC5, size: 0x8, addend: 0x0, symName: _glad_glBindBufferRange, symObjAddr: 0x2FFC0, symBinAddr: 0x10060ECA0, symSize: 0x0 }
  - { offsetInCU: 0x3C4, offset: 0x39C3E, size: 0x8, addend: 0x0, symName: _glad_glBindFragDataLocation, symObjAddr: 0x2FFE0, symBinAddr: 0x10060ECC0, symSize: 0x0 }
  - { offsetInCU: 0x3E7, offset: 0x39C61, size: 0x8, addend: 0x0, symName: _glad_glBindFragDataLocationIndexed, symObjAddr: 0x30000, symBinAddr: 0x10060ECE0, symSize: 0x0 }
  - { offsetInCU: 0x426, offset: 0x39CA0, size: 0x8, addend: 0x0, symName: _glad_glBindFramebuffer, symObjAddr: 0x30020, symBinAddr: 0x10060ED00, symSize: 0x0 }
  - { offsetInCU: 0x449, offset: 0x39CC3, size: 0x8, addend: 0x0, symName: _glad_glBindRenderbuffer, symObjAddr: 0x30040, symBinAddr: 0x10060ED20, symSize: 0x0 }
  - { offsetInCU: 0x46C, offset: 0x39CE6, size: 0x8, addend: 0x0, symName: _glad_glBindSampler, symObjAddr: 0x30060, symBinAddr: 0x10060ED40, symSize: 0x0 }
  - { offsetInCU: 0x48F, offset: 0x39D09, size: 0x8, addend: 0x0, symName: _glad_glBindTexture, symObjAddr: 0x30080, symBinAddr: 0x10060ED60, symSize: 0x0 }
  - { offsetInCU: 0x4B2, offset: 0x39D2C, size: 0x8, addend: 0x0, symName: _glad_glBindVertexArray, symObjAddr: 0x300A0, symBinAddr: 0x10060ED80, symSize: 0x0 }
  - { offsetInCU: 0x4E2, offset: 0x39D5C, size: 0x8, addend: 0x0, symName: _glad_glBlendColor, symObjAddr: 0x300C0, symBinAddr: 0x10060EDA0, symSize: 0x0 }
  - { offsetInCU: 0x53F, offset: 0x39DB9, size: 0x8, addend: 0x0, symName: _glad_glBlendEquation, symObjAddr: 0x300E0, symBinAddr: 0x10060EDC0, symSize: 0x0 }
  - { offsetInCU: 0x562, offset: 0x39DDC, size: 0x8, addend: 0x0, symName: _glad_glBlendEquationSeparate, symObjAddr: 0x30100, symBinAddr: 0x10060EDE0, symSize: 0x0 }
  - { offsetInCU: 0x597, offset: 0x39E11, size: 0x8, addend: 0x0, symName: _glad_glBlendFunc, symObjAddr: 0x30120, symBinAddr: 0x10060EE00, symSize: 0x0 }
  - { offsetInCU: 0x5BA, offset: 0x39E34, size: 0x8, addend: 0x0, symName: _glad_glBlendFuncSeparate, symObjAddr: 0x30140, symBinAddr: 0x10060EE20, symSize: 0x0 }
  - { offsetInCU: 0x5F9, offset: 0x39E73, size: 0x8, addend: 0x0, symName: _glad_glBlitFramebuffer, symObjAddr: 0x30160, symBinAddr: 0x10060EE40, symSize: 0x0 }
  - { offsetInCU: 0x66C, offset: 0x39EE6, size: 0x8, addend: 0x0, symName: _glad_glBufferData, symObjAddr: 0x30180, symBinAddr: 0x10060EE60, symSize: 0x0 }
  - { offsetInCU: 0x6B1, offset: 0x39F2B, size: 0x8, addend: 0x0, symName: _glad_glBufferSubData, symObjAddr: 0x301A0, symBinAddr: 0x10060EE80, symSize: 0x0 }
  - { offsetInCU: 0x6F0, offset: 0x39F6A, size: 0x8, addend: 0x0, symName: _glad_glCheckFramebufferStatus, symObjAddr: 0x301C0, symBinAddr: 0x10060EEA0, symSize: 0x0 }
  - { offsetInCU: 0x724, offset: 0x39F9E, size: 0x8, addend: 0x0, symName: _glad_glClampColor, symObjAddr: 0x301E0, symBinAddr: 0x10060EEC0, symSize: 0x0 }
  - { offsetInCU: 0x747, offset: 0x39FC1, size: 0x8, addend: 0x0, symName: _glad_glClear, symObjAddr: 0x30200, symBinAddr: 0x10060EEE0, symSize: 0x0 }
  - { offsetInCU: 0x777, offset: 0x39FF1, size: 0x8, addend: 0x0, symName: _glad_glClearBufferfi, symObjAddr: 0x30220, symBinAddr: 0x10060EF00, symSize: 0x0 }
  - { offsetInCU: 0x7B6, offset: 0x3A030, size: 0x8, addend: 0x0, symName: _glad_glClearBufferfv, symObjAddr: 0x30240, symBinAddr: 0x10060EF20, symSize: 0x0 }
  - { offsetInCU: 0x7FA, offset: 0x3A074, size: 0x8, addend: 0x0, symName: _glad_glClearBufferiv, symObjAddr: 0x30260, symBinAddr: 0x10060EF40, symSize: 0x0 }
  - { offsetInCU: 0x83E, offset: 0x3A0B8, size: 0x8, addend: 0x0, symName: _glad_glClearBufferuiv, symObjAddr: 0x30280, symBinAddr: 0x10060EF60, symSize: 0x0 }
  - { offsetInCU: 0x882, offset: 0x3A0FC, size: 0x8, addend: 0x0, symName: _glad_glClearColor, symObjAddr: 0x302A0, symBinAddr: 0x10060EF80, symSize: 0x0 }
  - { offsetInCU: 0x8A5, offset: 0x3A11F, size: 0x8, addend: 0x0, symName: _glad_glClearDepth, symObjAddr: 0x302C0, symBinAddr: 0x10060EFA0, symSize: 0x0 }
  - { offsetInCU: 0x8E7, offset: 0x3A161, size: 0x8, addend: 0x0, symName: _glad_glClearStencil, symObjAddr: 0x302E0, symBinAddr: 0x10060EFC0, symSize: 0x0 }
  - { offsetInCU: 0x917, offset: 0x3A191, size: 0x8, addend: 0x0, symName: _glad_glClientWaitSync, symObjAddr: 0x30300, symBinAddr: 0x10060EFE0, symSize: 0x0 }
  - { offsetInCU: 0x987, offset: 0x3A201, size: 0x8, addend: 0x0, symName: _glad_glColorMask, symObjAddr: 0x30320, symBinAddr: 0x10060F000, symSize: 0x0 }
  - { offsetInCU: 0x9CD, offset: 0x3A247, size: 0x8, addend: 0x0, symName: _glad_glColorMaski, symObjAddr: 0x30340, symBinAddr: 0x10060F020, symSize: 0x0 }
  - { offsetInCU: 0xA11, offset: 0x3A28B, size: 0x8, addend: 0x0, symName: _glad_glColorP3ui, symObjAddr: 0x30360, symBinAddr: 0x10060F040, symSize: 0x0 }
  - { offsetInCU: 0xA34, offset: 0x3A2AE, size: 0x8, addend: 0x0, symName: _glad_glColorP3uiv, symObjAddr: 0x30380, symBinAddr: 0x10060F060, symSize: 0x0 }
  - { offsetInCU: 0xA69, offset: 0x3A2E3, size: 0x8, addend: 0x0, symName: _glad_glColorP4ui, symObjAddr: 0x303A0, symBinAddr: 0x10060F080, symSize: 0x0 }
  - { offsetInCU: 0xA8C, offset: 0x3A306, size: 0x8, addend: 0x0, symName: _glad_glColorP4uiv, symObjAddr: 0x303C0, symBinAddr: 0x10060F0A0, symSize: 0x0 }
  - { offsetInCU: 0xAAF, offset: 0x3A329, size: 0x8, addend: 0x0, symName: _glad_glCompileShader, symObjAddr: 0x303E0, symBinAddr: 0x10060F0C0, symSize: 0x0 }
  - { offsetInCU: 0xAD2, offset: 0x3A34C, size: 0x8, addend: 0x0, symName: _glad_glCompressedTexImage1D, symObjAddr: 0x30400, symBinAddr: 0x10060F0E0, symSize: 0x0 }
  - { offsetInCU: 0xB2B, offset: 0x3A3A5, size: 0x8, addend: 0x0, symName: _glad_glCompressedTexImage2D, symObjAddr: 0x30420, symBinAddr: 0x10060F100, symSize: 0x0 }
  - { offsetInCU: 0xB7E, offset: 0x3A3F8, size: 0x8, addend: 0x0, symName: _glad_glCompressedTexImage3D, symObjAddr: 0x30440, symBinAddr: 0x10060F120, symSize: 0x0 }
  - { offsetInCU: 0xBD6, offset: 0x3A450, size: 0x8, addend: 0x0, symName: _glad_glCompressedTexSubImage1D, symObjAddr: 0x30460, symBinAddr: 0x10060F140, symSize: 0x0 }
  - { offsetInCU: 0xC24, offset: 0x3A49E, size: 0x8, addend: 0x0, symName: _glad_glCompressedTexSubImage2D, symObjAddr: 0x30480, symBinAddr: 0x10060F160, symSize: 0x0 }
  - { offsetInCU: 0xC7C, offset: 0x3A4F6, size: 0x8, addend: 0x0, symName: _glad_glCompressedTexSubImage3D, symObjAddr: 0x304A0, symBinAddr: 0x10060F180, symSize: 0x0 }
  - { offsetInCU: 0xCDE, offset: 0x3A558, size: 0x8, addend: 0x0, symName: _glad_glCopyBufferSubData, symObjAddr: 0x304C0, symBinAddr: 0x10060F1A0, symSize: 0x0 }
  - { offsetInCU: 0xD22, offset: 0x3A59C, size: 0x8, addend: 0x0, symName: _glad_glCopyTexImage1D, symObjAddr: 0x304E0, symBinAddr: 0x10060F1C0, symSize: 0x0 }
  - { offsetInCU: 0xD70, offset: 0x3A5EA, size: 0x8, addend: 0x0, symName: _glad_glCopyTexImage2D, symObjAddr: 0x30500, symBinAddr: 0x10060F1E0, symSize: 0x0 }
  - { offsetInCU: 0xDC3, offset: 0x3A63D, size: 0x8, addend: 0x0, symName: _glad_glCopyTexSubImage1D, symObjAddr: 0x30520, symBinAddr: 0x10060F200, symSize: 0x0 }
  - { offsetInCU: 0xE0C, offset: 0x3A686, size: 0x8, addend: 0x0, symName: _glad_glCopyTexSubImage2D, symObjAddr: 0x30540, symBinAddr: 0x10060F220, symSize: 0x0 }
  - { offsetInCU: 0xE5F, offset: 0x3A6D9, size: 0x8, addend: 0x0, symName: _glad_glCopyTexSubImage3D, symObjAddr: 0x30560, symBinAddr: 0x10060F240, symSize: 0x0 }
  - { offsetInCU: 0xEB7, offset: 0x3A731, size: 0x8, addend: 0x0, symName: _glad_glCreateProgram, symObjAddr: 0x30580, symBinAddr: 0x10060F260, symSize: 0x0 }
  - { offsetInCU: 0xEE4, offset: 0x3A75E, size: 0x8, addend: 0x0, symName: _glad_glCreateShader, symObjAddr: 0x305A0, symBinAddr: 0x10060F280, symSize: 0x0 }
  - { offsetInCU: 0xF18, offset: 0x3A792, size: 0x8, addend: 0x0, symName: _glad_glCullFace, symObjAddr: 0x305C0, symBinAddr: 0x10060F2A0, symSize: 0x0 }
  - { offsetInCU: 0xF3B, offset: 0x3A7B5, size: 0x8, addend: 0x0, symName: _glad_glDeleteBuffers, symObjAddr: 0x305E0, symBinAddr: 0x10060F2C0, symSize: 0x0 }
  - { offsetInCU: 0xF70, offset: 0x3A7EA, size: 0x8, addend: 0x0, symName: _glad_glDeleteFramebuffers, symObjAddr: 0x30600, symBinAddr: 0x10060F2E0, symSize: 0x0 }
  - { offsetInCU: 0xF93, offset: 0x3A80D, size: 0x8, addend: 0x0, symName: _glad_glDeleteProgram, symObjAddr: 0x30620, symBinAddr: 0x10060F300, symSize: 0x0 }
  - { offsetInCU: 0xFB6, offset: 0x3A830, size: 0x8, addend: 0x0, symName: _glad_glDeleteQueries, symObjAddr: 0x30640, symBinAddr: 0x10060F320, symSize: 0x0 }
  - { offsetInCU: 0xFD9, offset: 0x3A853, size: 0x8, addend: 0x0, symName: _glad_glDeleteRenderbuffers, symObjAddr: 0x30660, symBinAddr: 0x10060F340, symSize: 0x0 }
  - { offsetInCU: 0xFFC, offset: 0x3A876, size: 0x8, addend: 0x0, symName: _glad_glDeleteSamplers, symObjAddr: 0x30680, symBinAddr: 0x10060F360, symSize: 0x0 }
  - { offsetInCU: 0x101F, offset: 0x3A899, size: 0x8, addend: 0x0, symName: _glad_glDeleteShader, symObjAddr: 0x306A0, symBinAddr: 0x10060F380, symSize: 0x0 }
  - { offsetInCU: 0x1042, offset: 0x3A8BC, size: 0x8, addend: 0x0, symName: _glad_glDeleteSync, symObjAddr: 0x306C0, symBinAddr: 0x10060F3A0, symSize: 0x0 }
  - { offsetInCU: 0x1072, offset: 0x3A8EC, size: 0x8, addend: 0x0, symName: _glad_glDeleteTextures, symObjAddr: 0x306E0, symBinAddr: 0x10060F3C0, symSize: 0x0 }
  - { offsetInCU: 0x1095, offset: 0x3A90F, size: 0x8, addend: 0x0, symName: _glad_glDeleteVertexArrays, symObjAddr: 0x30700, symBinAddr: 0x10060F3E0, symSize: 0x0 }
  - { offsetInCU: 0x10B8, offset: 0x3A932, size: 0x8, addend: 0x0, symName: _glad_glDepthFunc, symObjAddr: 0x30720, symBinAddr: 0x10060F400, symSize: 0x0 }
  - { offsetInCU: 0x10DB, offset: 0x3A955, size: 0x8, addend: 0x0, symName: _glad_glDepthMask, symObjAddr: 0x30740, symBinAddr: 0x10060F420, symSize: 0x0 }
  - { offsetInCU: 0x110B, offset: 0x3A985, size: 0x8, addend: 0x0, symName: _glad_glDepthRange, symObjAddr: 0x30760, symBinAddr: 0x10060F440, symSize: 0x0 }
  - { offsetInCU: 0x1140, offset: 0x3A9BA, size: 0x8, addend: 0x0, symName: _glad_glDetachShader, symObjAddr: 0x30780, symBinAddr: 0x10060F460, symSize: 0x0 }
  - { offsetInCU: 0x1163, offset: 0x3A9DD, size: 0x8, addend: 0x0, symName: _glad_glDisable, symObjAddr: 0x307A0, symBinAddr: 0x10060F480, symSize: 0x0 }
  - { offsetInCU: 0x1186, offset: 0x3AA00, size: 0x8, addend: 0x0, symName: _glad_glDisableVertexAttribArray, symObjAddr: 0x307C0, symBinAddr: 0x10060F4A0, symSize: 0x0 }
  - { offsetInCU: 0x11A9, offset: 0x3AA23, size: 0x8, addend: 0x0, symName: _glad_glDisablei, symObjAddr: 0x307E0, symBinAddr: 0x10060F4C0, symSize: 0x0 }
  - { offsetInCU: 0x11CC, offset: 0x3AA46, size: 0x8, addend: 0x0, symName: _glad_glDrawArrays, symObjAddr: 0x30800, symBinAddr: 0x10060F4E0, symSize: 0x0 }
  - { offsetInCU: 0x1206, offset: 0x3AA80, size: 0x8, addend: 0x0, symName: _glad_glDrawArraysInstanced, symObjAddr: 0x30820, symBinAddr: 0x10060F500, symSize: 0x0 }
  - { offsetInCU: 0x1245, offset: 0x3AABF, size: 0x8, addend: 0x0, symName: _glad_glDrawBuffer, symObjAddr: 0x30840, symBinAddr: 0x10060F520, symSize: 0x0 }
  - { offsetInCU: 0x1268, offset: 0x3AAE2, size: 0x8, addend: 0x0, symName: _glad_glDrawBuffers, symObjAddr: 0x30860, symBinAddr: 0x10060F540, symSize: 0x0 }
  - { offsetInCU: 0x12A7, offset: 0x3AB21, size: 0x8, addend: 0x0, symName: _glad_glDrawElements, symObjAddr: 0x30880, symBinAddr: 0x10060F560, symSize: 0x0 }
  - { offsetInCU: 0x12E6, offset: 0x3AB60, size: 0x8, addend: 0x0, symName: _glad_glDrawElementsBaseVertex, symObjAddr: 0x308A0, symBinAddr: 0x10060F580, symSize: 0x0 }
  - { offsetInCU: 0x132A, offset: 0x3ABA4, size: 0x8, addend: 0x0, symName: _glad_glDrawElementsInstanced, symObjAddr: 0x308C0, symBinAddr: 0x10060F5A0, symSize: 0x0 }
  - { offsetInCU: 0x136E, offset: 0x3ABE8, size: 0x8, addend: 0x0, symName: _glad_glDrawElementsInstancedBaseVertex, symObjAddr: 0x308E0, symBinAddr: 0x10060F5C0, symSize: 0x0 }
  - { offsetInCU: 0x13B7, offset: 0x3AC31, size: 0x8, addend: 0x0, symName: _glad_glDrawRangeElements, symObjAddr: 0x30900, symBinAddr: 0x10060F5E0, symSize: 0x0 }
  - { offsetInCU: 0x1400, offset: 0x3AC7A, size: 0x8, addend: 0x0, symName: _glad_glDrawRangeElementsBaseVertex, symObjAddr: 0x30920, symBinAddr: 0x10060F600, symSize: 0x0 }
  - { offsetInCU: 0x144E, offset: 0x3ACC8, size: 0x8, addend: 0x0, symName: _glad_glEnable, symObjAddr: 0x30940, symBinAddr: 0x10060F620, symSize: 0x0 }
  - { offsetInCU: 0x1471, offset: 0x3ACEB, size: 0x8, addend: 0x0, symName: _glad_glEnableVertexAttribArray, symObjAddr: 0x30960, symBinAddr: 0x10060F640, symSize: 0x0 }
  - { offsetInCU: 0x1494, offset: 0x3AD0E, size: 0x8, addend: 0x0, symName: _glad_glEnablei, symObjAddr: 0x30980, symBinAddr: 0x10060F660, symSize: 0x0 }
  - { offsetInCU: 0x14B7, offset: 0x3AD31, size: 0x8, addend: 0x0, symName: _glad_glEndConditionalRender, symObjAddr: 0x309A0, symBinAddr: 0x10060F680, symSize: 0x0 }
  - { offsetInCU: 0x14E1, offset: 0x3AD5B, size: 0x8, addend: 0x0, symName: _glad_glEndQuery, symObjAddr: 0x309C0, symBinAddr: 0x10060F6A0, symSize: 0x0 }
  - { offsetInCU: 0x1504, offset: 0x3AD7E, size: 0x8, addend: 0x0, symName: _glad_glEndTransformFeedback, symObjAddr: 0x309E0, symBinAddr: 0x10060F6C0, symSize: 0x0 }
  - { offsetInCU: 0x1527, offset: 0x3ADA1, size: 0x8, addend: 0x0, symName: _glad_glFenceSync, symObjAddr: 0x30A00, symBinAddr: 0x10060F6E0, symSize: 0x0 }
  - { offsetInCU: 0x1560, offset: 0x3ADDA, size: 0x8, addend: 0x0, symName: _glad_glFinish, symObjAddr: 0x30A20, symBinAddr: 0x10060F700, symSize: 0x0 }
  - { offsetInCU: 0x1583, offset: 0x3ADFD, size: 0x8, addend: 0x0, symName: _glad_glFlush, symObjAddr: 0x30A40, symBinAddr: 0x10060F720, symSize: 0x0 }
  - { offsetInCU: 0x15A6, offset: 0x3AE20, size: 0x8, addend: 0x0, symName: _glad_glFlushMappedBufferRange, symObjAddr: 0x30A60, symBinAddr: 0x10060F740, symSize: 0x0 }
  - { offsetInCU: 0x15E0, offset: 0x3AE5A, size: 0x8, addend: 0x0, symName: _glad_glFramebufferRenderbuffer, symObjAddr: 0x30A80, symBinAddr: 0x10060F760, symSize: 0x0 }
  - { offsetInCU: 0x161F, offset: 0x3AE99, size: 0x8, addend: 0x0, symName: _glad_glFramebufferTexture, symObjAddr: 0x30AA0, symBinAddr: 0x10060F780, symSize: 0x0 }
  - { offsetInCU: 0x165E, offset: 0x3AED8, size: 0x8, addend: 0x0, symName: _glad_glFramebufferTexture1D, symObjAddr: 0x30AC0, symBinAddr: 0x10060F7A0, symSize: 0x0 }
  - { offsetInCU: 0x16A2, offset: 0x3AF1C, size: 0x8, addend: 0x0, symName: _glad_glFramebufferTexture2D, symObjAddr: 0x30AE0, symBinAddr: 0x10060F7C0, symSize: 0x0 }
  - { offsetInCU: 0x16C5, offset: 0x3AF3F, size: 0x8, addend: 0x0, symName: _glad_glFramebufferTexture3D, symObjAddr: 0x30B00, symBinAddr: 0x10060F7E0, symSize: 0x0 }
  - { offsetInCU: 0x170E, offset: 0x3AF88, size: 0x8, addend: 0x0, symName: _glad_glFramebufferTextureLayer, symObjAddr: 0x30B20, symBinAddr: 0x10060F800, symSize: 0x0 }
  - { offsetInCU: 0x1752, offset: 0x3AFCC, size: 0x8, addend: 0x0, symName: _glad_glFrontFace, symObjAddr: 0x30B40, symBinAddr: 0x10060F820, symSize: 0x0 }
  - { offsetInCU: 0x1775, offset: 0x3AFEF, size: 0x8, addend: 0x0, symName: _glad_glGenBuffers, symObjAddr: 0x30B60, symBinAddr: 0x10060F840, symSize: 0x0 }
  - { offsetInCU: 0x17AF, offset: 0x3B029, size: 0x8, addend: 0x0, symName: _glad_glGenFramebuffers, symObjAddr: 0x30B80, symBinAddr: 0x10060F860, symSize: 0x0 }
  - { offsetInCU: 0x17D2, offset: 0x3B04C, size: 0x8, addend: 0x0, symName: _glad_glGenQueries, symObjAddr: 0x30BA0, symBinAddr: 0x10060F880, symSize: 0x0 }
  - { offsetInCU: 0x17F5, offset: 0x3B06F, size: 0x8, addend: 0x0, symName: _glad_glGenRenderbuffers, symObjAddr: 0x30BC0, symBinAddr: 0x10060F8A0, symSize: 0x0 }
  - { offsetInCU: 0x1818, offset: 0x3B092, size: 0x8, addend: 0x0, symName: _glad_glGenSamplers, symObjAddr: 0x30BE0, symBinAddr: 0x10060F8C0, symSize: 0x0 }
  - { offsetInCU: 0x183B, offset: 0x3B0B5, size: 0x8, addend: 0x0, symName: _glad_glGenTextures, symObjAddr: 0x30C00, symBinAddr: 0x10060F8E0, symSize: 0x0 }
  - { offsetInCU: 0x185E, offset: 0x3B0D8, size: 0x8, addend: 0x0, symName: _glad_glGenVertexArrays, symObjAddr: 0x30C20, symBinAddr: 0x10060F900, symSize: 0x0 }
  - { offsetInCU: 0x1881, offset: 0x3B0FB, size: 0x8, addend: 0x0, symName: _glad_glGenerateMipmap, symObjAddr: 0x30C40, symBinAddr: 0x10060F920, symSize: 0x0 }
  - { offsetInCU: 0x18A4, offset: 0x3B11E, size: 0x8, addend: 0x0, symName: _glad_glGetActiveAttrib, symObjAddr: 0x30C60, symBinAddr: 0x10060F940, symSize: 0x0 }
  - { offsetInCU: 0x1906, offset: 0x3B180, size: 0x8, addend: 0x0, symName: _glad_glGetActiveUniform, symObjAddr: 0x30C80, symBinAddr: 0x10060F960, symSize: 0x0 }
  - { offsetInCU: 0x1929, offset: 0x3B1A3, size: 0x8, addend: 0x0, symName: _glad_glGetActiveUniformBlockName, symObjAddr: 0x30CA0, symBinAddr: 0x10060F980, symSize: 0x0 }
  - { offsetInCU: 0x196D, offset: 0x3B1E7, size: 0x8, addend: 0x0, symName: _glad_glGetActiveUniformBlockiv, symObjAddr: 0x30CC0, symBinAddr: 0x10060F9A0, symSize: 0x0 }
  - { offsetInCU: 0x19AC, offset: 0x3B226, size: 0x8, addend: 0x0, symName: _glad_glGetActiveUniformName, symObjAddr: 0x30CE0, symBinAddr: 0x10060F9C0, symSize: 0x0 }
  - { offsetInCU: 0x19CF, offset: 0x3B249, size: 0x8, addend: 0x0, symName: _glad_glGetActiveUniformsiv, symObjAddr: 0x30D00, symBinAddr: 0x10060F9E0, symSize: 0x0 }
  - { offsetInCU: 0x1A13, offset: 0x3B28D, size: 0x8, addend: 0x0, symName: _glad_glGetAttachedShaders, symObjAddr: 0x30D20, symBinAddr: 0x10060FA00, symSize: 0x0 }
  - { offsetInCU: 0x1A52, offset: 0x3B2CC, size: 0x8, addend: 0x0, symName: _glad_glGetAttribLocation, symObjAddr: 0x30D40, symBinAddr: 0x10060FA20, symSize: 0x0 }
  - { offsetInCU: 0x1A8B, offset: 0x3B305, size: 0x8, addend: 0x0, symName: _glad_glGetBooleani_v, symObjAddr: 0x30D60, symBinAddr: 0x10060FA40, symSize: 0x0 }
  - { offsetInCU: 0x1ACA, offset: 0x3B344, size: 0x8, addend: 0x0, symName: _glad_glGetBooleanv, symObjAddr: 0x30D80, symBinAddr: 0x10060FA60, symSize: 0x0 }
  - { offsetInCU: 0x1AFF, offset: 0x3B379, size: 0x8, addend: 0x0, symName: _glad_glGetBufferParameteri64v, symObjAddr: 0x30DA0, symBinAddr: 0x10060FA80, symSize: 0x0 }
  - { offsetInCU: 0x1B5B, offset: 0x3B3D5, size: 0x8, addend: 0x0, symName: _glad_glGetBufferParameteriv, symObjAddr: 0x30DC0, symBinAddr: 0x10060FAA0, symSize: 0x0 }
  - { offsetInCU: 0x1B95, offset: 0x3B40F, size: 0x8, addend: 0x0, symName: _glad_glGetBufferPointerv, symObjAddr: 0x30DE0, symBinAddr: 0x10060FAC0, symSize: 0x0 }
  - { offsetInCU: 0x1BD5, offset: 0x3B44F, size: 0x8, addend: 0x0, symName: _glad_glGetBufferSubData, symObjAddr: 0x30E00, symBinAddr: 0x10060FAE0, symSize: 0x0 }
  - { offsetInCU: 0x1C14, offset: 0x3B48E, size: 0x8, addend: 0x0, symName: _glad_glGetCompressedTexImage, symObjAddr: 0x30E20, symBinAddr: 0x10060FB00, symSize: 0x0 }
  - { offsetInCU: 0x1C4E, offset: 0x3B4C8, size: 0x8, addend: 0x0, symName: _glad_glGetDoublev, symObjAddr: 0x30E40, symBinAddr: 0x10060FB20, symSize: 0x0 }
  - { offsetInCU: 0x1C88, offset: 0x3B502, size: 0x8, addend: 0x0, symName: _glad_glGetError, symObjAddr: 0x30E60, symBinAddr: 0x10060FB40, symSize: 0x0 }
  - { offsetInCU: 0x1CB5, offset: 0x3B52F, size: 0x8, addend: 0x0, symName: _glad_glGetFloatv, symObjAddr: 0x30E80, symBinAddr: 0x10060FB60, symSize: 0x0 }
  - { offsetInCU: 0x1CEF, offset: 0x3B569, size: 0x8, addend: 0x0, symName: _glad_glGetFragDataIndex, symObjAddr: 0x30EA0, symBinAddr: 0x10060FB80, symSize: 0x0 }
  - { offsetInCU: 0x1D12, offset: 0x3B58C, size: 0x8, addend: 0x0, symName: _glad_glGetFragDataLocation, symObjAddr: 0x30EC0, symBinAddr: 0x10060FBA0, symSize: 0x0 }
  - { offsetInCU: 0x1D35, offset: 0x3B5AF, size: 0x8, addend: 0x0, symName: _glad_glGetFramebufferAttachmentParameteriv, symObjAddr: 0x30EE0, symBinAddr: 0x10060FBC0, symSize: 0x0 }
  - { offsetInCU: 0x1D74, offset: 0x3B5EE, size: 0x8, addend: 0x0, symName: _glad_glGetInteger64i_v, symObjAddr: 0x30F00, symBinAddr: 0x10060FBE0, symSize: 0x0 }
  - { offsetInCU: 0x1DAE, offset: 0x3B628, size: 0x8, addend: 0x0, symName: _glad_glGetInteger64v, symObjAddr: 0x30F20, symBinAddr: 0x10060FC00, symSize: 0x0 }
  - { offsetInCU: 0x1DE3, offset: 0x3B65D, size: 0x8, addend: 0x0, symName: _glad_glGetIntegeri_v, symObjAddr: 0x30F40, symBinAddr: 0x10060FC20, symSize: 0x0 }
  - { offsetInCU: 0x1E1D, offset: 0x3B697, size: 0x8, addend: 0x0, symName: _glad_glGetIntegerv, symObjAddr: 0x30F60, symBinAddr: 0x10060FC40, symSize: 0x0 }
  - { offsetInCU: 0x1E52, offset: 0x3B6CC, size: 0x8, addend: 0x0, symName: _glad_glGetMultisamplefv, symObjAddr: 0x30F80, symBinAddr: 0x10060FC60, symSize: 0x0 }
  - { offsetInCU: 0x1E8C, offset: 0x3B706, size: 0x8, addend: 0x0, symName: _glad_glGetProgramInfoLog, symObjAddr: 0x30FA0, symBinAddr: 0x10060FC80, symSize: 0x0 }
  - { offsetInCU: 0x1ECB, offset: 0x3B745, size: 0x8, addend: 0x0, symName: _glad_glGetProgramiv, symObjAddr: 0x30FC0, symBinAddr: 0x10060FCA0, symSize: 0x0 }
  - { offsetInCU: 0x1F05, offset: 0x3B77F, size: 0x8, addend: 0x0, symName: _glad_glGetQueryObjecti64v, symObjAddr: 0x30FE0, symBinAddr: 0x10060FCC0, symSize: 0x0 }
  - { offsetInCU: 0x1F3F, offset: 0x3B7B9, size: 0x8, addend: 0x0, symName: _glad_glGetQueryObjectiv, symObjAddr: 0x31000, symBinAddr: 0x10060FCE0, symSize: 0x0 }
  - { offsetInCU: 0x1F62, offset: 0x3B7DC, size: 0x8, addend: 0x0, symName: _glad_glGetQueryObjectui64v, symObjAddr: 0x31020, symBinAddr: 0x10060FD00, symSize: 0x0 }
  - { offsetInCU: 0x1FA1, offset: 0x3B81B, size: 0x8, addend: 0x0, symName: _glad_glGetQueryObjectuiv, symObjAddr: 0x31040, symBinAddr: 0x10060FD20, symSize: 0x0 }
  - { offsetInCU: 0x1FDB, offset: 0x3B855, size: 0x8, addend: 0x0, symName: _glad_glGetQueryiv, symObjAddr: 0x31060, symBinAddr: 0x10060FD40, symSize: 0x0 }
  - { offsetInCU: 0x1FFE, offset: 0x3B878, size: 0x8, addend: 0x0, symName: _glad_glGetRenderbufferParameteriv, symObjAddr: 0x31080, symBinAddr: 0x10060FD60, symSize: 0x0 }
  - { offsetInCU: 0x2021, offset: 0x3B89B, size: 0x8, addend: 0x0, symName: _glad_glGetSamplerParameterIiv, symObjAddr: 0x310A0, symBinAddr: 0x10060FD80, symSize: 0x0 }
  - { offsetInCU: 0x2044, offset: 0x3B8BE, size: 0x8, addend: 0x0, symName: _glad_glGetSamplerParameterIuiv, symObjAddr: 0x310C0, symBinAddr: 0x10060FDA0, symSize: 0x0 }
  - { offsetInCU: 0x2067, offset: 0x3B8E1, size: 0x8, addend: 0x0, symName: _glad_glGetSamplerParameterfv, symObjAddr: 0x310E0, symBinAddr: 0x10060FDC0, symSize: 0x0 }
  - { offsetInCU: 0x20A1, offset: 0x3B91B, size: 0x8, addend: 0x0, symName: _glad_glGetSamplerParameteriv, symObjAddr: 0x31100, symBinAddr: 0x10060FDE0, symSize: 0x0 }
  - { offsetInCU: 0x20C4, offset: 0x3B93E, size: 0x8, addend: 0x0, symName: _glad_glGetShaderInfoLog, symObjAddr: 0x31120, symBinAddr: 0x10060FE00, symSize: 0x0 }
  - { offsetInCU: 0x20E7, offset: 0x3B961, size: 0x8, addend: 0x0, symName: _glad_glGetShaderSource, symObjAddr: 0x31140, symBinAddr: 0x10060FE20, symSize: 0x0 }
  - { offsetInCU: 0x210A, offset: 0x3B984, size: 0x8, addend: 0x0, symName: _glad_glGetShaderiv, symObjAddr: 0x31160, symBinAddr: 0x10060FE40, symSize: 0x0 }
  - { offsetInCU: 0x212D, offset: 0x3B9A7, size: 0x8, addend: 0x0, symName: _glad_glGetString, symObjAddr: 0x31180, symBinAddr: 0x10060FE60, symSize: 0x0 }
  - { offsetInCU: 0x2181, offset: 0x3B9FB, size: 0x8, addend: 0x0, symName: _glad_glGetStringi, symObjAddr: 0x311A0, symBinAddr: 0x10060FE80, symSize: 0x0 }
  - { offsetInCU: 0x21BA, offset: 0x3BA34, size: 0x8, addend: 0x0, symName: _glad_glGetSynciv, symObjAddr: 0x311C0, symBinAddr: 0x10060FEA0, symSize: 0x0 }
  - { offsetInCU: 0x21FE, offset: 0x3BA78, size: 0x8, addend: 0x0, symName: _glad_glGetTexImage, symObjAddr: 0x311E0, symBinAddr: 0x10060FEC0, symSize: 0x0 }
  - { offsetInCU: 0x2242, offset: 0x3BABC, size: 0x8, addend: 0x0, symName: _glad_glGetTexLevelParameterfv, symObjAddr: 0x31200, symBinAddr: 0x10060FEE0, symSize: 0x0 }
  - { offsetInCU: 0x2281, offset: 0x3BAFB, size: 0x8, addend: 0x0, symName: _glad_glGetTexLevelParameteriv, symObjAddr: 0x31220, symBinAddr: 0x10060FF00, symSize: 0x0 }
  - { offsetInCU: 0x22C0, offset: 0x3BB3A, size: 0x8, addend: 0x0, symName: _glad_glGetTexParameterIiv, symObjAddr: 0x31240, symBinAddr: 0x10060FF20, symSize: 0x0 }
  - { offsetInCU: 0x22E3, offset: 0x3BB5D, size: 0x8, addend: 0x0, symName: _glad_glGetTexParameterIuiv, symObjAddr: 0x31260, symBinAddr: 0x10060FF40, symSize: 0x0 }
  - { offsetInCU: 0x231D, offset: 0x3BB97, size: 0x8, addend: 0x0, symName: _glad_glGetTexParameterfv, symObjAddr: 0x31280, symBinAddr: 0x10060FF60, symSize: 0x0 }
  - { offsetInCU: 0x2357, offset: 0x3BBD1, size: 0x8, addend: 0x0, symName: _glad_glGetTexParameteriv, symObjAddr: 0x312A0, symBinAddr: 0x10060FF80, symSize: 0x0 }
  - { offsetInCU: 0x237A, offset: 0x3BBF4, size: 0x8, addend: 0x0, symName: _glad_glGetTransformFeedbackVarying, symObjAddr: 0x312C0, symBinAddr: 0x10060FFA0, symSize: 0x0 }
  - { offsetInCU: 0x23C8, offset: 0x3BC42, size: 0x8, addend: 0x0, symName: _glad_glGetUniformBlockIndex, symObjAddr: 0x312E0, symBinAddr: 0x10060FFC0, symSize: 0x0 }
  - { offsetInCU: 0x2401, offset: 0x3BC7B, size: 0x8, addend: 0x0, symName: _glad_glGetUniformIndices, symObjAddr: 0x31300, symBinAddr: 0x10060FFE0, symSize: 0x0 }
  - { offsetInCU: 0x244A, offset: 0x3BCC4, size: 0x8, addend: 0x0, symName: _glad_glGetUniformLocation, symObjAddr: 0x31320, symBinAddr: 0x100610000, symSize: 0x0 }
  - { offsetInCU: 0x246D, offset: 0x3BCE7, size: 0x8, addend: 0x0, symName: _glad_glGetUniformfv, symObjAddr: 0x31340, symBinAddr: 0x100610020, symSize: 0x0 }
  - { offsetInCU: 0x24A7, offset: 0x3BD21, size: 0x8, addend: 0x0, symName: _glad_glGetUniformiv, symObjAddr: 0x31360, symBinAddr: 0x100610040, symSize: 0x0 }
  - { offsetInCU: 0x24E1, offset: 0x3BD5B, size: 0x8, addend: 0x0, symName: _glad_glGetUniformuiv, symObjAddr: 0x31380, symBinAddr: 0x100610060, symSize: 0x0 }
  - { offsetInCU: 0x251B, offset: 0x3BD95, size: 0x8, addend: 0x0, symName: _glad_glGetVertexAttribIiv, symObjAddr: 0x313A0, symBinAddr: 0x100610080, symSize: 0x0 }
  - { offsetInCU: 0x253E, offset: 0x3BDB8, size: 0x8, addend: 0x0, symName: _glad_glGetVertexAttribIuiv, symObjAddr: 0x313C0, symBinAddr: 0x1006100A0, symSize: 0x0 }
  - { offsetInCU: 0x2561, offset: 0x3BDDB, size: 0x8, addend: 0x0, symName: _glad_glGetVertexAttribPointerv, symObjAddr: 0x313E0, symBinAddr: 0x1006100C0, symSize: 0x0 }
  - { offsetInCU: 0x259B, offset: 0x3BE15, size: 0x8, addend: 0x0, symName: _glad_glGetVertexAttribdv, symObjAddr: 0x31400, symBinAddr: 0x1006100E0, symSize: 0x0 }
  - { offsetInCU: 0x25D5, offset: 0x3BE4F, size: 0x8, addend: 0x0, symName: _glad_glGetVertexAttribfv, symObjAddr: 0x31420, symBinAddr: 0x100610100, symSize: 0x0 }
  - { offsetInCU: 0x25F8, offset: 0x3BE72, size: 0x8, addend: 0x0, symName: _glad_glGetVertexAttribiv, symObjAddr: 0x31440, symBinAddr: 0x100610120, symSize: 0x0 }
  - { offsetInCU: 0x261B, offset: 0x3BE95, size: 0x8, addend: 0x0, symName: _glad_glHint, symObjAddr: 0x31460, symBinAddr: 0x100610140, symSize: 0x0 }
  - { offsetInCU: 0x263E, offset: 0x3BEB8, size: 0x8, addend: 0x0, symName: _glad_glIsBuffer, symObjAddr: 0x31480, symBinAddr: 0x100610160, symSize: 0x0 }
  - { offsetInCU: 0x2672, offset: 0x3BEEC, size: 0x8, addend: 0x0, symName: _glad_glIsEnabled, symObjAddr: 0x314A0, symBinAddr: 0x100610180, symSize: 0x0 }
  - { offsetInCU: 0x26A6, offset: 0x3BF20, size: 0x8, addend: 0x0, symName: _glad_glIsEnabledi, symObjAddr: 0x314C0, symBinAddr: 0x1006101A0, symSize: 0x0 }
  - { offsetInCU: 0x26DF, offset: 0x3BF59, size: 0x8, addend: 0x0, symName: _glad_glIsFramebuffer, symObjAddr: 0x314E0, symBinAddr: 0x1006101C0, symSize: 0x0 }
  - { offsetInCU: 0x2702, offset: 0x3BF7C, size: 0x8, addend: 0x0, symName: _glad_glIsProgram, symObjAddr: 0x31500, symBinAddr: 0x1006101E0, symSize: 0x0 }
  - { offsetInCU: 0x2725, offset: 0x3BF9F, size: 0x8, addend: 0x0, symName: _glad_glIsQuery, symObjAddr: 0x31520, symBinAddr: 0x100610200, symSize: 0x0 }
  - { offsetInCU: 0x2748, offset: 0x3BFC2, size: 0x8, addend: 0x0, symName: _glad_glIsRenderbuffer, symObjAddr: 0x31540, symBinAddr: 0x100610220, symSize: 0x0 }
  - { offsetInCU: 0x276B, offset: 0x3BFE5, size: 0x8, addend: 0x0, symName: _glad_glIsSampler, symObjAddr: 0x31560, symBinAddr: 0x100610240, symSize: 0x0 }
  - { offsetInCU: 0x278E, offset: 0x3C008, size: 0x8, addend: 0x0, symName: _glad_glIsShader, symObjAddr: 0x31580, symBinAddr: 0x100610260, symSize: 0x0 }
  - { offsetInCU: 0x27B1, offset: 0x3C02B, size: 0x8, addend: 0x0, symName: _glad_glIsSync, symObjAddr: 0x315A0, symBinAddr: 0x100610280, symSize: 0x0 }
  - { offsetInCU: 0x27E5, offset: 0x3C05F, size: 0x8, addend: 0x0, symName: _glad_glIsTexture, symObjAddr: 0x315C0, symBinAddr: 0x1006102A0, symSize: 0x0 }
  - { offsetInCU: 0x2808, offset: 0x3C082, size: 0x8, addend: 0x0, symName: _glad_glIsVertexArray, symObjAddr: 0x315E0, symBinAddr: 0x1006102C0, symSize: 0x0 }
  - { offsetInCU: 0x282B, offset: 0x3C0A5, size: 0x8, addend: 0x0, symName: _glad_glLineWidth, symObjAddr: 0x31600, symBinAddr: 0x1006102E0, symSize: 0x0 }
  - { offsetInCU: 0x285B, offset: 0x3C0D5, size: 0x8, addend: 0x0, symName: _glad_glLinkProgram, symObjAddr: 0x31620, symBinAddr: 0x100610300, symSize: 0x0 }
  - { offsetInCU: 0x287E, offset: 0x3C0F8, size: 0x8, addend: 0x0, symName: _glad_glLogicOp, symObjAddr: 0x31640, symBinAddr: 0x100610320, symSize: 0x0 }
  - { offsetInCU: 0x28A1, offset: 0x3C11B, size: 0x8, addend: 0x0, symName: _glad_glMapBuffer, symObjAddr: 0x31660, symBinAddr: 0x100610340, symSize: 0x0 }
  - { offsetInCU: 0x28DA, offset: 0x3C154, size: 0x8, addend: 0x0, symName: _glad_glMapBufferRange, symObjAddr: 0x31680, symBinAddr: 0x100610360, symSize: 0x0 }
  - { offsetInCU: 0x291D, offset: 0x3C197, size: 0x8, addend: 0x0, symName: _glad_glMultiDrawArrays, symObjAddr: 0x316A0, symBinAddr: 0x100610380, symSize: 0x0 }
  - { offsetInCU: 0x2966, offset: 0x3C1E0, size: 0x8, addend: 0x0, symName: _glad_glMultiDrawElements, symObjAddr: 0x316C0, symBinAddr: 0x1006103A0, symSize: 0x0 }
  - { offsetInCU: 0x29B4, offset: 0x3C22E, size: 0x8, addend: 0x0, symName: _glad_glMultiDrawElementsBaseVertex, symObjAddr: 0x316E0, symBinAddr: 0x1006103C0, symSize: 0x0 }
  - { offsetInCU: 0x29FD, offset: 0x3C277, size: 0x8, addend: 0x0, symName: _glad_glMultiTexCoordP1ui, symObjAddr: 0x31700, symBinAddr: 0x1006103E0, symSize: 0x0 }
  - { offsetInCU: 0x2A37, offset: 0x3C2B1, size: 0x8, addend: 0x0, symName: _glad_glMultiTexCoordP1uiv, symObjAddr: 0x31720, symBinAddr: 0x100610400, symSize: 0x0 }
  - { offsetInCU: 0x2A71, offset: 0x3C2EB, size: 0x8, addend: 0x0, symName: _glad_glMultiTexCoordP2ui, symObjAddr: 0x31740, symBinAddr: 0x100610420, symSize: 0x0 }
  - { offsetInCU: 0x2A94, offset: 0x3C30E, size: 0x8, addend: 0x0, symName: _glad_glMultiTexCoordP2uiv, symObjAddr: 0x31760, symBinAddr: 0x100610440, symSize: 0x0 }
  - { offsetInCU: 0x2AB7, offset: 0x3C331, size: 0x8, addend: 0x0, symName: _glad_glMultiTexCoordP3ui, symObjAddr: 0x31780, symBinAddr: 0x100610460, symSize: 0x0 }
  - { offsetInCU: 0x2ADA, offset: 0x3C354, size: 0x8, addend: 0x0, symName: _glad_glMultiTexCoordP3uiv, symObjAddr: 0x317A0, symBinAddr: 0x100610480, symSize: 0x0 }
  - { offsetInCU: 0x2AFD, offset: 0x3C377, size: 0x8, addend: 0x0, symName: _glad_glMultiTexCoordP4ui, symObjAddr: 0x317C0, symBinAddr: 0x1006104A0, symSize: 0x0 }
  - { offsetInCU: 0x2B20, offset: 0x3C39A, size: 0x8, addend: 0x0, symName: _glad_glMultiTexCoordP4uiv, symObjAddr: 0x317E0, symBinAddr: 0x1006104C0, symSize: 0x0 }
  - { offsetInCU: 0x2B43, offset: 0x3C3BD, size: 0x8, addend: 0x0, symName: _glad_glNormalP3ui, symObjAddr: 0x31800, symBinAddr: 0x1006104E0, symSize: 0x0 }
  - { offsetInCU: 0x2B66, offset: 0x3C3E0, size: 0x8, addend: 0x0, symName: _glad_glNormalP3uiv, symObjAddr: 0x31820, symBinAddr: 0x100610500, symSize: 0x0 }
  - { offsetInCU: 0x2B89, offset: 0x3C403, size: 0x8, addend: 0x0, symName: _glad_glPixelStoref, symObjAddr: 0x31840, symBinAddr: 0x100610520, symSize: 0x0 }
  - { offsetInCU: 0x2BBE, offset: 0x3C438, size: 0x8, addend: 0x0, symName: _glad_glPixelStorei, symObjAddr: 0x31860, symBinAddr: 0x100610540, symSize: 0x0 }
  - { offsetInCU: 0x2BF3, offset: 0x3C46D, size: 0x8, addend: 0x0, symName: _glad_glPointParameterf, symObjAddr: 0x31880, symBinAddr: 0x100610560, symSize: 0x0 }
  - { offsetInCU: 0x2C16, offset: 0x3C490, size: 0x8, addend: 0x0, symName: _glad_glPointParameterfv, symObjAddr: 0x318A0, symBinAddr: 0x100610580, symSize: 0x0 }
  - { offsetInCU: 0x2C4B, offset: 0x3C4C5, size: 0x8, addend: 0x0, symName: _glad_glPointParameteri, symObjAddr: 0x318C0, symBinAddr: 0x1006105A0, symSize: 0x0 }
  - { offsetInCU: 0x2C6E, offset: 0x3C4E8, size: 0x8, addend: 0x0, symName: _glad_glPointParameteriv, symObjAddr: 0x318E0, symBinAddr: 0x1006105C0, symSize: 0x0 }
  - { offsetInCU: 0x2CA3, offset: 0x3C51D, size: 0x8, addend: 0x0, symName: _glad_glPointSize, symObjAddr: 0x31900, symBinAddr: 0x1006105E0, symSize: 0x0 }
  - { offsetInCU: 0x2CC6, offset: 0x3C540, size: 0x8, addend: 0x0, symName: _glad_glPolygonMode, symObjAddr: 0x31920, symBinAddr: 0x100610600, symSize: 0x0 }
  - { offsetInCU: 0x2CE9, offset: 0x3C563, size: 0x8, addend: 0x0, symName: _glad_glPolygonOffset, symObjAddr: 0x31940, symBinAddr: 0x100610620, symSize: 0x0 }
  - { offsetInCU: 0x2D1E, offset: 0x3C598, size: 0x8, addend: 0x0, symName: _glad_glPrimitiveRestartIndex, symObjAddr: 0x31960, symBinAddr: 0x100610640, symSize: 0x0 }
  - { offsetInCU: 0x2D41, offset: 0x3C5BB, size: 0x8, addend: 0x0, symName: _glad_glProvokingVertex, symObjAddr: 0x31980, symBinAddr: 0x100610660, symSize: 0x0 }
  - { offsetInCU: 0x2D64, offset: 0x3C5DE, size: 0x8, addend: 0x0, symName: _glad_glQueryCounter, symObjAddr: 0x319A0, symBinAddr: 0x100610680, symSize: 0x0 }
  - { offsetInCU: 0x2D87, offset: 0x3C601, size: 0x8, addend: 0x0, symName: _glad_glReadBuffer, symObjAddr: 0x319C0, symBinAddr: 0x1006106A0, symSize: 0x0 }
  - { offsetInCU: 0x2DAA, offset: 0x3C624, size: 0x8, addend: 0x0, symName: _glad_glReadPixels, symObjAddr: 0x319E0, symBinAddr: 0x1006106C0, symSize: 0x0 }
  - { offsetInCU: 0x2DF8, offset: 0x3C672, size: 0x8, addend: 0x0, symName: _glad_glRenderbufferStorage, symObjAddr: 0x31A00, symBinAddr: 0x1006106E0, symSize: 0x0 }
  - { offsetInCU: 0x2E37, offset: 0x3C6B1, size: 0x8, addend: 0x0, symName: _glad_glRenderbufferStorageMultisample, symObjAddr: 0x31A20, symBinAddr: 0x100610700, symSize: 0x0 }
  - { offsetInCU: 0x2E7B, offset: 0x3C6F5, size: 0x8, addend: 0x0, symName: _glad_glSampleCoverage, symObjAddr: 0x31A40, symBinAddr: 0x100610720, symSize: 0x0 }
  - { offsetInCU: 0x2EB0, offset: 0x3C72A, size: 0x8, addend: 0x0, symName: _glad_glSampleMaski, symObjAddr: 0x31A60, symBinAddr: 0x100610740, symSize: 0x0 }
  - { offsetInCU: 0x2EE5, offset: 0x3C75F, size: 0x8, addend: 0x0, symName: _glad_glSamplerParameterIiv, symObjAddr: 0x31A80, symBinAddr: 0x100610760, symSize: 0x0 }
  - { offsetInCU: 0x2F1F, offset: 0x3C799, size: 0x8, addend: 0x0, symName: _glad_glSamplerParameterIuiv, symObjAddr: 0x31AA0, symBinAddr: 0x100610780, symSize: 0x0 }
  - { offsetInCU: 0x2F59, offset: 0x3C7D3, size: 0x8, addend: 0x0, symName: _glad_glSamplerParameterf, symObjAddr: 0x31AC0, symBinAddr: 0x1006107A0, symSize: 0x0 }
  - { offsetInCU: 0x2F93, offset: 0x3C80D, size: 0x8, addend: 0x0, symName: _glad_glSamplerParameterfv, symObjAddr: 0x31AE0, symBinAddr: 0x1006107C0, symSize: 0x0 }
  - { offsetInCU: 0x2FCD, offset: 0x3C847, size: 0x8, addend: 0x0, symName: _glad_glSamplerParameteri, symObjAddr: 0x31B00, symBinAddr: 0x1006107E0, symSize: 0x0 }
  - { offsetInCU: 0x3007, offset: 0x3C881, size: 0x8, addend: 0x0, symName: _glad_glSamplerParameteriv, symObjAddr: 0x31B20, symBinAddr: 0x100610800, symSize: 0x0 }
  - { offsetInCU: 0x302A, offset: 0x3C8A4, size: 0x8, addend: 0x0, symName: _glad_glScissor, symObjAddr: 0x31B40, symBinAddr: 0x100610820, symSize: 0x0 }
  - { offsetInCU: 0x3069, offset: 0x3C8E3, size: 0x8, addend: 0x0, symName: _glad_glSecondaryColorP3ui, symObjAddr: 0x31B60, symBinAddr: 0x100610840, symSize: 0x0 }
  - { offsetInCU: 0x308C, offset: 0x3C906, size: 0x8, addend: 0x0, symName: _glad_glSecondaryColorP3uiv, symObjAddr: 0x31B80, symBinAddr: 0x100610860, symSize: 0x0 }
  - { offsetInCU: 0x30AF, offset: 0x3C929, size: 0x8, addend: 0x0, symName: _glad_glShaderSource, symObjAddr: 0x31BA0, symBinAddr: 0x100610880, symSize: 0x0 }
  - { offsetInCU: 0x30EE, offset: 0x3C968, size: 0x8, addend: 0x0, symName: _glad_glStencilFunc, symObjAddr: 0x31BC0, symBinAddr: 0x1006108A0, symSize: 0x0 }
  - { offsetInCU: 0x3128, offset: 0x3C9A2, size: 0x8, addend: 0x0, symName: _glad_glStencilFuncSeparate, symObjAddr: 0x31BE0, symBinAddr: 0x1006108C0, symSize: 0x0 }
  - { offsetInCU: 0x3167, offset: 0x3C9E1, size: 0x8, addend: 0x0, symName: _glad_glStencilMask, symObjAddr: 0x31C00, symBinAddr: 0x1006108E0, symSize: 0x0 }
  - { offsetInCU: 0x318A, offset: 0x3CA04, size: 0x8, addend: 0x0, symName: _glad_glStencilMaskSeparate, symObjAddr: 0x31C20, symBinAddr: 0x100610900, symSize: 0x0 }
  - { offsetInCU: 0x31AD, offset: 0x3CA27, size: 0x8, addend: 0x0, symName: _glad_glStencilOp, symObjAddr: 0x31C40, symBinAddr: 0x100610920, symSize: 0x0 }
  - { offsetInCU: 0x31E7, offset: 0x3CA61, size: 0x8, addend: 0x0, symName: _glad_glStencilOpSeparate, symObjAddr: 0x31C60, symBinAddr: 0x100610940, symSize: 0x0 }
  - { offsetInCU: 0x320A, offset: 0x3CA84, size: 0x8, addend: 0x0, symName: _glad_glTexBuffer, symObjAddr: 0x31C80, symBinAddr: 0x100610960, symSize: 0x0 }
  - { offsetInCU: 0x322D, offset: 0x3CAA7, size: 0x8, addend: 0x0, symName: _glad_glTexCoordP1ui, symObjAddr: 0x31CA0, symBinAddr: 0x100610980, symSize: 0x0 }
  - { offsetInCU: 0x3250, offset: 0x3CACA, size: 0x8, addend: 0x0, symName: _glad_glTexCoordP1uiv, symObjAddr: 0x31CC0, symBinAddr: 0x1006109A0, symSize: 0x0 }
  - { offsetInCU: 0x3273, offset: 0x3CAED, size: 0x8, addend: 0x0, symName: _glad_glTexCoordP2ui, symObjAddr: 0x31CE0, symBinAddr: 0x1006109C0, symSize: 0x0 }
  - { offsetInCU: 0x3296, offset: 0x3CB10, size: 0x8, addend: 0x0, symName: _glad_glTexCoordP2uiv, symObjAddr: 0x31D00, symBinAddr: 0x1006109E0, symSize: 0x0 }
  - { offsetInCU: 0x32B9, offset: 0x3CB33, size: 0x8, addend: 0x0, symName: _glad_glTexCoordP3ui, symObjAddr: 0x31D20, symBinAddr: 0x100610A00, symSize: 0x0 }
  - { offsetInCU: 0x32DC, offset: 0x3CB56, size: 0x8, addend: 0x0, symName: _glad_glTexCoordP3uiv, symObjAddr: 0x31D40, symBinAddr: 0x100610A20, symSize: 0x0 }
  - { offsetInCU: 0x32FF, offset: 0x3CB79, size: 0x8, addend: 0x0, symName: _glad_glTexCoordP4ui, symObjAddr: 0x31D60, symBinAddr: 0x100610A40, symSize: 0x0 }
  - { offsetInCU: 0x3322, offset: 0x3CB9C, size: 0x8, addend: 0x0, symName: _glad_glTexCoordP4uiv, symObjAddr: 0x31D80, symBinAddr: 0x100610A60, symSize: 0x0 }
  - { offsetInCU: 0x3345, offset: 0x3CBBF, size: 0x8, addend: 0x0, symName: _glad_glTexImage1D, symObjAddr: 0x31DA0, symBinAddr: 0x100610A80, symSize: 0x0 }
  - { offsetInCU: 0x3398, offset: 0x3CC12, size: 0x8, addend: 0x0, symName: _glad_glTexImage2D, symObjAddr: 0x31DC0, symBinAddr: 0x100610AA0, symSize: 0x0 }
  - { offsetInCU: 0x33F0, offset: 0x3CC6A, size: 0x8, addend: 0x0, symName: _glad_glTexImage2DMultisample, symObjAddr: 0x31DE0, symBinAddr: 0x100610AC0, symSize: 0x0 }
  - { offsetInCU: 0x3439, offset: 0x3CCB3, size: 0x8, addend: 0x0, symName: _glad_glTexImage3D, symObjAddr: 0x31E00, symBinAddr: 0x100610AE0, symSize: 0x0 }
  - { offsetInCU: 0x3496, offset: 0x3CD10, size: 0x8, addend: 0x0, symName: _glad_glTexImage3DMultisample, symObjAddr: 0x31E20, symBinAddr: 0x100610B00, symSize: 0x0 }
  - { offsetInCU: 0x34E4, offset: 0x3CD5E, size: 0x8, addend: 0x0, symName: _glad_glTexParameterIiv, symObjAddr: 0x31E40, symBinAddr: 0x100610B20, symSize: 0x0 }
  - { offsetInCU: 0x351E, offset: 0x3CD98, size: 0x8, addend: 0x0, symName: _glad_glTexParameterIuiv, symObjAddr: 0x31E60, symBinAddr: 0x100610B40, symSize: 0x0 }
  - { offsetInCU: 0x3541, offset: 0x3CDBB, size: 0x8, addend: 0x0, symName: _glad_glTexParameterf, symObjAddr: 0x31E80, symBinAddr: 0x100610B60, symSize: 0x0 }
  - { offsetInCU: 0x357B, offset: 0x3CDF5, size: 0x8, addend: 0x0, symName: _glad_glTexParameterfv, symObjAddr: 0x31EA0, symBinAddr: 0x100610B80, symSize: 0x0 }
  - { offsetInCU: 0x35B5, offset: 0x3CE2F, size: 0x8, addend: 0x0, symName: _glad_glTexParameteri, symObjAddr: 0x31EC0, symBinAddr: 0x100610BA0, symSize: 0x0 }
  - { offsetInCU: 0x35EF, offset: 0x3CE69, size: 0x8, addend: 0x0, symName: _glad_glTexParameteriv, symObjAddr: 0x31EE0, symBinAddr: 0x100610BC0, symSize: 0x0 }
  - { offsetInCU: 0x3612, offset: 0x3CE8C, size: 0x8, addend: 0x0, symName: _glad_glTexSubImage1D, symObjAddr: 0x31F00, symBinAddr: 0x100610BE0, symSize: 0x0 }
  - { offsetInCU: 0x3660, offset: 0x3CEDA, size: 0x8, addend: 0x0, symName: _glad_glTexSubImage2D, symObjAddr: 0x31F20, symBinAddr: 0x100610C00, symSize: 0x0 }
  - { offsetInCU: 0x36B8, offset: 0x3CF32, size: 0x8, addend: 0x0, symName: _glad_glTexSubImage3D, symObjAddr: 0x31F40, symBinAddr: 0x100610C20, symSize: 0x0 }
  - { offsetInCU: 0x371A, offset: 0x3CF94, size: 0x8, addend: 0x0, symName: _glad_glTransformFeedbackVaryings, symObjAddr: 0x31F60, symBinAddr: 0x100610C40, symSize: 0x0 }
  - { offsetInCU: 0x3759, offset: 0x3CFD3, size: 0x8, addend: 0x0, symName: _glad_glUniform1f, symObjAddr: 0x31F80, symBinAddr: 0x100610C60, symSize: 0x0 }
  - { offsetInCU: 0x378E, offset: 0x3D008, size: 0x8, addend: 0x0, symName: _glad_glUniform1fv, symObjAddr: 0x31FA0, symBinAddr: 0x100610C80, symSize: 0x0 }
  - { offsetInCU: 0x37C8, offset: 0x3D042, size: 0x8, addend: 0x0, symName: _glad_glUniform1i, symObjAddr: 0x31FC0, symBinAddr: 0x100610CA0, symSize: 0x0 }
  - { offsetInCU: 0x37FD, offset: 0x3D077, size: 0x8, addend: 0x0, symName: _glad_glUniform1iv, symObjAddr: 0x31FE0, symBinAddr: 0x100610CC0, symSize: 0x0 }
  - { offsetInCU: 0x3837, offset: 0x3D0B1, size: 0x8, addend: 0x0, symName: _glad_glUniform1ui, symObjAddr: 0x32000, symBinAddr: 0x100610CE0, symSize: 0x0 }
  - { offsetInCU: 0x386C, offset: 0x3D0E6, size: 0x8, addend: 0x0, symName: _glad_glUniform1uiv, symObjAddr: 0x32020, symBinAddr: 0x100610D00, symSize: 0x0 }
  - { offsetInCU: 0x38A6, offset: 0x3D120, size: 0x8, addend: 0x0, symName: _glad_glUniform2f, symObjAddr: 0x32040, symBinAddr: 0x100610D20, symSize: 0x0 }
  - { offsetInCU: 0x38E0, offset: 0x3D15A, size: 0x8, addend: 0x0, symName: _glad_glUniform2fv, symObjAddr: 0x32060, symBinAddr: 0x100610D40, symSize: 0x0 }
  - { offsetInCU: 0x3903, offset: 0x3D17D, size: 0x8, addend: 0x0, symName: _glad_glUniform2i, symObjAddr: 0x32080, symBinAddr: 0x100610D60, symSize: 0x0 }
  - { offsetInCU: 0x393D, offset: 0x3D1B7, size: 0x8, addend: 0x0, symName: _glad_glUniform2iv, symObjAddr: 0x320A0, symBinAddr: 0x100610D80, symSize: 0x0 }
  - { offsetInCU: 0x3960, offset: 0x3D1DA, size: 0x8, addend: 0x0, symName: _glad_glUniform2ui, symObjAddr: 0x320C0, symBinAddr: 0x100610DA0, symSize: 0x0 }
  - { offsetInCU: 0x399A, offset: 0x3D214, size: 0x8, addend: 0x0, symName: _glad_glUniform2uiv, symObjAddr: 0x320E0, symBinAddr: 0x100610DC0, symSize: 0x0 }
  - { offsetInCU: 0x39BD, offset: 0x3D237, size: 0x8, addend: 0x0, symName: _glad_glUniform3f, symObjAddr: 0x32100, symBinAddr: 0x100610DE0, symSize: 0x0 }
  - { offsetInCU: 0x39FC, offset: 0x3D276, size: 0x8, addend: 0x0, symName: _glad_glUniform3fv, symObjAddr: 0x32120, symBinAddr: 0x100610E00, symSize: 0x0 }
  - { offsetInCU: 0x3A1F, offset: 0x3D299, size: 0x8, addend: 0x0, symName: _glad_glUniform3i, symObjAddr: 0x32140, symBinAddr: 0x100610E20, symSize: 0x0 }
  - { offsetInCU: 0x3A5E, offset: 0x3D2D8, size: 0x8, addend: 0x0, symName: _glad_glUniform3iv, symObjAddr: 0x32160, symBinAddr: 0x100610E40, symSize: 0x0 }
  - { offsetInCU: 0x3A81, offset: 0x3D2FB, size: 0x8, addend: 0x0, symName: _glad_glUniform3ui, symObjAddr: 0x32180, symBinAddr: 0x100610E60, symSize: 0x0 }
  - { offsetInCU: 0x3AC0, offset: 0x3D33A, size: 0x8, addend: 0x0, symName: _glad_glUniform3uiv, symObjAddr: 0x321A0, symBinAddr: 0x100610E80, symSize: 0x0 }
  - { offsetInCU: 0x3AE3, offset: 0x3D35D, size: 0x8, addend: 0x0, symName: _glad_glUniform4f, symObjAddr: 0x321C0, symBinAddr: 0x100610EA0, symSize: 0x0 }
  - { offsetInCU: 0x3B27, offset: 0x3D3A1, size: 0x8, addend: 0x0, symName: _glad_glUniform4fv, symObjAddr: 0x321E0, symBinAddr: 0x100610EC0, symSize: 0x0 }
  - { offsetInCU: 0x3B4A, offset: 0x3D3C4, size: 0x8, addend: 0x0, symName: _glad_glUniform4i, symObjAddr: 0x32200, symBinAddr: 0x100610EE0, symSize: 0x0 }
  - { offsetInCU: 0x3B8E, offset: 0x3D408, size: 0x8, addend: 0x0, symName: _glad_glUniform4iv, symObjAddr: 0x32220, symBinAddr: 0x100610F00, symSize: 0x0 }
  - { offsetInCU: 0x3BB1, offset: 0x3D42B, size: 0x8, addend: 0x0, symName: _glad_glUniform4ui, symObjAddr: 0x32240, symBinAddr: 0x100610F20, symSize: 0x0 }
  - { offsetInCU: 0x3BF5, offset: 0x3D46F, size: 0x8, addend: 0x0, symName: _glad_glUniform4uiv, symObjAddr: 0x32260, symBinAddr: 0x100610F40, symSize: 0x0 }
  - { offsetInCU: 0x3C18, offset: 0x3D492, size: 0x8, addend: 0x0, symName: _glad_glUniformBlockBinding, symObjAddr: 0x32280, symBinAddr: 0x100610F60, symSize: 0x0 }
  - { offsetInCU: 0x3C52, offset: 0x3D4CC, size: 0x8, addend: 0x0, symName: _glad_glUniformMatrix2fv, symObjAddr: 0x322A0, symBinAddr: 0x100610F80, symSize: 0x0 }
  - { offsetInCU: 0x3C91, offset: 0x3D50B, size: 0x8, addend: 0x0, symName: _glad_glUniformMatrix2x3fv, symObjAddr: 0x322C0, symBinAddr: 0x100610FA0, symSize: 0x0 }
  - { offsetInCU: 0x3CB4, offset: 0x3D52E, size: 0x8, addend: 0x0, symName: _glad_glUniformMatrix2x4fv, symObjAddr: 0x322E0, symBinAddr: 0x100610FC0, symSize: 0x0 }
  - { offsetInCU: 0x3CD7, offset: 0x3D551, size: 0x8, addend: 0x0, symName: _glad_glUniformMatrix3fv, symObjAddr: 0x32300, symBinAddr: 0x100610FE0, symSize: 0x0 }
  - { offsetInCU: 0x3CFA, offset: 0x3D574, size: 0x8, addend: 0x0, symName: _glad_glUniformMatrix3x2fv, symObjAddr: 0x32320, symBinAddr: 0x100611000, symSize: 0x0 }
  - { offsetInCU: 0x3D1D, offset: 0x3D597, size: 0x8, addend: 0x0, symName: _glad_glUniformMatrix3x4fv, symObjAddr: 0x32340, symBinAddr: 0x100611020, symSize: 0x0 }
  - { offsetInCU: 0x3D40, offset: 0x3D5BA, size: 0x8, addend: 0x0, symName: _glad_glUniformMatrix4fv, symObjAddr: 0x32360, symBinAddr: 0x100611040, symSize: 0x0 }
  - { offsetInCU: 0x3D63, offset: 0x3D5DD, size: 0x8, addend: 0x0, symName: _glad_glUniformMatrix4x2fv, symObjAddr: 0x32380, symBinAddr: 0x100611060, symSize: 0x0 }
  - { offsetInCU: 0x3D86, offset: 0x3D600, size: 0x8, addend: 0x0, symName: _glad_glUniformMatrix4x3fv, symObjAddr: 0x323A0, symBinAddr: 0x100611080, symSize: 0x0 }
  - { offsetInCU: 0x3DA9, offset: 0x3D623, size: 0x8, addend: 0x0, symName: _glad_glUnmapBuffer, symObjAddr: 0x323C0, symBinAddr: 0x1006110A0, symSize: 0x0 }
  - { offsetInCU: 0x3DCC, offset: 0x3D646, size: 0x8, addend: 0x0, symName: _glad_glUseProgram, symObjAddr: 0x323E0, symBinAddr: 0x1006110C0, symSize: 0x0 }
  - { offsetInCU: 0x3DEF, offset: 0x3D669, size: 0x8, addend: 0x0, symName: _glad_glValidateProgram, symObjAddr: 0x32400, symBinAddr: 0x1006110E0, symSize: 0x0 }
  - { offsetInCU: 0x3E12, offset: 0x3D68C, size: 0x8, addend: 0x0, symName: _glad_glVertexAttrib1d, symObjAddr: 0x32420, symBinAddr: 0x100611100, symSize: 0x0 }
  - { offsetInCU: 0x3E47, offset: 0x3D6C1, size: 0x8, addend: 0x0, symName: _glad_glVertexAttrib1dv, symObjAddr: 0x32440, symBinAddr: 0x100611120, symSize: 0x0 }
  - { offsetInCU: 0x3E86, offset: 0x3D700, size: 0x8, addend: 0x0, symName: _glad_glVertexAttrib1f, symObjAddr: 0x32460, symBinAddr: 0x100611140, symSize: 0x0 }
  - { offsetInCU: 0x3EBB, offset: 0x3D735, size: 0x8, addend: 0x0, symName: _glad_glVertexAttrib1fv, symObjAddr: 0x32480, symBinAddr: 0x100611160, symSize: 0x0 }
  - { offsetInCU: 0x3EF0, offset: 0x3D76A, size: 0x8, addend: 0x0, symName: _glad_glVertexAttrib1s, symObjAddr: 0x324A0, symBinAddr: 0x100611180, symSize: 0x0 }
  - { offsetInCU: 0x3F42, offset: 0x3D7BC, size: 0x8, addend: 0x0, symName: _glad_glVertexAttrib1sv, symObjAddr: 0x324C0, symBinAddr: 0x1006111A0, symSize: 0x0 }
  - { offsetInCU: 0x3F81, offset: 0x3D7FB, size: 0x8, addend: 0x0, symName: _glad_glVertexAttrib2d, symObjAddr: 0x324E0, symBinAddr: 0x1006111C0, symSize: 0x0 }
  - { offsetInCU: 0x3FBB, offset: 0x3D835, size: 0x8, addend: 0x0, symName: _glad_glVertexAttrib2dv, symObjAddr: 0x32500, symBinAddr: 0x1006111E0, symSize: 0x0 }
  - { offsetInCU: 0x3FDE, offset: 0x3D858, size: 0x8, addend: 0x0, symName: _glad_glVertexAttrib2f, symObjAddr: 0x32520, symBinAddr: 0x100611200, symSize: 0x0 }
  - { offsetInCU: 0x4018, offset: 0x3D892, size: 0x8, addend: 0x0, symName: _glad_glVertexAttrib2fv, symObjAddr: 0x32540, symBinAddr: 0x100611220, symSize: 0x0 }
  - { offsetInCU: 0x403B, offset: 0x3D8B5, size: 0x8, addend: 0x0, symName: _glad_glVertexAttrib2s, symObjAddr: 0x32560, symBinAddr: 0x100611240, symSize: 0x0 }
  - { offsetInCU: 0x4075, offset: 0x3D8EF, size: 0x8, addend: 0x0, symName: _glad_glVertexAttrib2sv, symObjAddr: 0x32580, symBinAddr: 0x100611260, symSize: 0x0 }
  - { offsetInCU: 0x4098, offset: 0x3D912, size: 0x8, addend: 0x0, symName: _glad_glVertexAttrib3d, symObjAddr: 0x325A0, symBinAddr: 0x100611280, symSize: 0x0 }
  - { offsetInCU: 0x40D7, offset: 0x3D951, size: 0x8, addend: 0x0, symName: _glad_glVertexAttrib3dv, symObjAddr: 0x325C0, symBinAddr: 0x1006112A0, symSize: 0x0 }
  - { offsetInCU: 0x40FA, offset: 0x3D974, size: 0x8, addend: 0x0, symName: _glad_glVertexAttrib3f, symObjAddr: 0x325E0, symBinAddr: 0x1006112C0, symSize: 0x0 }
  - { offsetInCU: 0x4139, offset: 0x3D9B3, size: 0x8, addend: 0x0, symName: _glad_glVertexAttrib3fv, symObjAddr: 0x32600, symBinAddr: 0x1006112E0, symSize: 0x0 }
  - { offsetInCU: 0x415C, offset: 0x3D9D6, size: 0x8, addend: 0x0, symName: _glad_glVertexAttrib3s, symObjAddr: 0x32620, symBinAddr: 0x100611300, symSize: 0x0 }
  - { offsetInCU: 0x419B, offset: 0x3DA15, size: 0x8, addend: 0x0, symName: _glad_glVertexAttrib3sv, symObjAddr: 0x32640, symBinAddr: 0x100611320, symSize: 0x0 }
  - { offsetInCU: 0x41BE, offset: 0x3DA38, size: 0x8, addend: 0x0, symName: _glad_glVertexAttrib4Nbv, symObjAddr: 0x32660, symBinAddr: 0x100611340, symSize: 0x0 }
  - { offsetInCU: 0x421A, offset: 0x3DA94, size: 0x8, addend: 0x0, symName: _glad_glVertexAttrib4Niv, symObjAddr: 0x32680, symBinAddr: 0x100611360, symSize: 0x0 }
  - { offsetInCU: 0x424F, offset: 0x3DAC9, size: 0x8, addend: 0x0, symName: _glad_glVertexAttrib4Nsv, symObjAddr: 0x326A0, symBinAddr: 0x100611380, symSize: 0x0 }
  - { offsetInCU: 0x4272, offset: 0x3DAEC, size: 0x8, addend: 0x0, symName: _glad_glVertexAttrib4Nub, symObjAddr: 0x326C0, symBinAddr: 0x1006113A0, symSize: 0x0 }
  - { offsetInCU: 0x42B6, offset: 0x3DB30, size: 0x8, addend: 0x0, symName: _glad_glVertexAttrib4Nubv, symObjAddr: 0x326E0, symBinAddr: 0x1006113C0, symSize: 0x0 }
  - { offsetInCU: 0x42EB, offset: 0x3DB65, size: 0x8, addend: 0x0, symName: _glad_glVertexAttrib4Nuiv, symObjAddr: 0x32700, symBinAddr: 0x1006113E0, symSize: 0x0 }
  - { offsetInCU: 0x4320, offset: 0x3DB9A, size: 0x8, addend: 0x0, symName: _glad_glVertexAttrib4Nusv, symObjAddr: 0x32720, symBinAddr: 0x100611400, symSize: 0x0 }
  - { offsetInCU: 0x437C, offset: 0x3DBF6, size: 0x8, addend: 0x0, symName: _glad_glVertexAttrib4bv, symObjAddr: 0x32740, symBinAddr: 0x100611420, symSize: 0x0 }
  - { offsetInCU: 0x439F, offset: 0x3DC19, size: 0x8, addend: 0x0, symName: _glad_glVertexAttrib4d, symObjAddr: 0x32760, symBinAddr: 0x100611440, symSize: 0x0 }
  - { offsetInCU: 0x43E3, offset: 0x3DC5D, size: 0x8, addend: 0x0, symName: _glad_glVertexAttrib4dv, symObjAddr: 0x32780, symBinAddr: 0x100611460, symSize: 0x0 }
  - { offsetInCU: 0x4406, offset: 0x3DC80, size: 0x8, addend: 0x0, symName: _glad_glVertexAttrib4f, symObjAddr: 0x327A0, symBinAddr: 0x100611480, symSize: 0x0 }
  - { offsetInCU: 0x444A, offset: 0x3DCC4, size: 0x8, addend: 0x0, symName: _glad_glVertexAttrib4fv, symObjAddr: 0x327C0, symBinAddr: 0x1006114A0, symSize: 0x0 }
  - { offsetInCU: 0x446D, offset: 0x3DCE7, size: 0x8, addend: 0x0, symName: _glad_glVertexAttrib4iv, symObjAddr: 0x327E0, symBinAddr: 0x1006114C0, symSize: 0x0 }
  - { offsetInCU: 0x4490, offset: 0x3DD0A, size: 0x8, addend: 0x0, symName: _glad_glVertexAttrib4s, symObjAddr: 0x32800, symBinAddr: 0x1006114E0, symSize: 0x0 }
  - { offsetInCU: 0x44D4, offset: 0x3DD4E, size: 0x8, addend: 0x0, symName: _glad_glVertexAttrib4sv, symObjAddr: 0x32820, symBinAddr: 0x100611500, symSize: 0x0 }
  - { offsetInCU: 0x44F7, offset: 0x3DD71, size: 0x8, addend: 0x0, symName: _glad_glVertexAttrib4ubv, symObjAddr: 0x32840, symBinAddr: 0x100611520, symSize: 0x0 }
  - { offsetInCU: 0x451A, offset: 0x3DD94, size: 0x8, addend: 0x0, symName: _glad_glVertexAttrib4uiv, symObjAddr: 0x32860, symBinAddr: 0x100611540, symSize: 0x0 }
  - { offsetInCU: 0x453D, offset: 0x3DDB7, size: 0x8, addend: 0x0, symName: _glad_glVertexAttrib4usv, symObjAddr: 0x32880, symBinAddr: 0x100611560, symSize: 0x0 }
  - { offsetInCU: 0x4560, offset: 0x3DDDA, size: 0x8, addend: 0x0, symName: _glad_glVertexAttribDivisor, symObjAddr: 0x328A0, symBinAddr: 0x100611580, symSize: 0x0 }
  - { offsetInCU: 0x4583, offset: 0x3DDFD, size: 0x8, addend: 0x0, symName: _glad_glVertexAttribI1i, symObjAddr: 0x328C0, symBinAddr: 0x1006115A0, symSize: 0x0 }
  - { offsetInCU: 0x45B8, offset: 0x3DE32, size: 0x8, addend: 0x0, symName: _glad_glVertexAttribI1iv, symObjAddr: 0x328E0, symBinAddr: 0x1006115C0, symSize: 0x0 }
  - { offsetInCU: 0x45DB, offset: 0x3DE55, size: 0x8, addend: 0x0, symName: _glad_glVertexAttribI1ui, symObjAddr: 0x32900, symBinAddr: 0x1006115E0, symSize: 0x0 }
  - { offsetInCU: 0x45FE, offset: 0x3DE78, size: 0x8, addend: 0x0, symName: _glad_glVertexAttribI1uiv, symObjAddr: 0x32920, symBinAddr: 0x100611600, symSize: 0x0 }
  - { offsetInCU: 0x4621, offset: 0x3DE9B, size: 0x8, addend: 0x0, symName: _glad_glVertexAttribI2i, symObjAddr: 0x32940, symBinAddr: 0x100611620, symSize: 0x0 }
  - { offsetInCU: 0x465B, offset: 0x3DED5, size: 0x8, addend: 0x0, symName: _glad_glVertexAttribI2iv, symObjAddr: 0x32960, symBinAddr: 0x100611640, symSize: 0x0 }
  - { offsetInCU: 0x467E, offset: 0x3DEF8, size: 0x8, addend: 0x0, symName: _glad_glVertexAttribI2ui, symObjAddr: 0x32980, symBinAddr: 0x100611660, symSize: 0x0 }
  - { offsetInCU: 0x46A1, offset: 0x3DF1B, size: 0x8, addend: 0x0, symName: _glad_glVertexAttribI2uiv, symObjAddr: 0x329A0, symBinAddr: 0x100611680, symSize: 0x0 }
  - { offsetInCU: 0x46C4, offset: 0x3DF3E, size: 0x8, addend: 0x0, symName: _glad_glVertexAttribI3i, symObjAddr: 0x329C0, symBinAddr: 0x1006116A0, symSize: 0x0 }
  - { offsetInCU: 0x4703, offset: 0x3DF7D, size: 0x8, addend: 0x0, symName: _glad_glVertexAttribI3iv, symObjAddr: 0x329E0, symBinAddr: 0x1006116C0, symSize: 0x0 }
  - { offsetInCU: 0x4726, offset: 0x3DFA0, size: 0x8, addend: 0x0, symName: _glad_glVertexAttribI3ui, symObjAddr: 0x32A00, symBinAddr: 0x1006116E0, symSize: 0x0 }
  - { offsetInCU: 0x4765, offset: 0x3DFDF, size: 0x8, addend: 0x0, symName: _glad_glVertexAttribI3uiv, symObjAddr: 0x32A20, symBinAddr: 0x100611700, symSize: 0x0 }
  - { offsetInCU: 0x4788, offset: 0x3E002, size: 0x8, addend: 0x0, symName: _glad_glVertexAttribI4bv, symObjAddr: 0x32A40, symBinAddr: 0x100611720, symSize: 0x0 }
  - { offsetInCU: 0x47AB, offset: 0x3E025, size: 0x8, addend: 0x0, symName: _glad_glVertexAttribI4i, symObjAddr: 0x32A60, symBinAddr: 0x100611740, symSize: 0x0 }
  - { offsetInCU: 0x47EF, offset: 0x3E069, size: 0x8, addend: 0x0, symName: _glad_glVertexAttribI4iv, symObjAddr: 0x32A80, symBinAddr: 0x100611760, symSize: 0x0 }
  - { offsetInCU: 0x4812, offset: 0x3E08C, size: 0x8, addend: 0x0, symName: _glad_glVertexAttribI4sv, symObjAddr: 0x32AA0, symBinAddr: 0x100611780, symSize: 0x0 }
  - { offsetInCU: 0x4835, offset: 0x3E0AF, size: 0x8, addend: 0x0, symName: _glad_glVertexAttribI4ubv, symObjAddr: 0x32AC0, symBinAddr: 0x1006117A0, symSize: 0x0 }
  - { offsetInCU: 0x4858, offset: 0x3E0D2, size: 0x8, addend: 0x0, symName: _glad_glVertexAttribI4ui, symObjAddr: 0x32AE0, symBinAddr: 0x1006117C0, symSize: 0x0 }
  - { offsetInCU: 0x489C, offset: 0x3E116, size: 0x8, addend: 0x0, symName: _glad_glVertexAttribI4uiv, symObjAddr: 0x32B00, symBinAddr: 0x1006117E0, symSize: 0x0 }
  - { offsetInCU: 0x48BF, offset: 0x3E139, size: 0x8, addend: 0x0, symName: _glad_glVertexAttribI4usv, symObjAddr: 0x32B20, symBinAddr: 0x100611800, symSize: 0x0 }
  - { offsetInCU: 0x48E2, offset: 0x3E15C, size: 0x8, addend: 0x0, symName: _glad_glVertexAttribIPointer, symObjAddr: 0x32B40, symBinAddr: 0x100611820, symSize: 0x0 }
  - { offsetInCU: 0x4926, offset: 0x3E1A0, size: 0x8, addend: 0x0, symName: _glad_glVertexAttribP1ui, symObjAddr: 0x32B60, symBinAddr: 0x100611840, symSize: 0x0 }
  - { offsetInCU: 0x4965, offset: 0x3E1DF, size: 0x8, addend: 0x0, symName: _glad_glVertexAttribP1uiv, symObjAddr: 0x32B80, symBinAddr: 0x100611860, symSize: 0x0 }
  - { offsetInCU: 0x49A4, offset: 0x3E21E, size: 0x8, addend: 0x0, symName: _glad_glVertexAttribP2ui, symObjAddr: 0x32BA0, symBinAddr: 0x100611880, symSize: 0x0 }
  - { offsetInCU: 0x49C7, offset: 0x3E241, size: 0x8, addend: 0x0, symName: _glad_glVertexAttribP2uiv, symObjAddr: 0x32BC0, symBinAddr: 0x1006118A0, symSize: 0x0 }
  - { offsetInCU: 0x49EA, offset: 0x3E264, size: 0x8, addend: 0x0, symName: _glad_glVertexAttribP3ui, symObjAddr: 0x32BE0, symBinAddr: 0x1006118C0, symSize: 0x0 }
  - { offsetInCU: 0x4A0D, offset: 0x3E287, size: 0x8, addend: 0x0, symName: _glad_glVertexAttribP3uiv, symObjAddr: 0x32C00, symBinAddr: 0x1006118E0, symSize: 0x0 }
  - { offsetInCU: 0x4A30, offset: 0x3E2AA, size: 0x8, addend: 0x0, symName: _glad_glVertexAttribP4ui, symObjAddr: 0x32C20, symBinAddr: 0x100611900, symSize: 0x0 }
  - { offsetInCU: 0x4A53, offset: 0x3E2CD, size: 0x8, addend: 0x0, symName: _glad_glVertexAttribP4uiv, symObjAddr: 0x32C40, symBinAddr: 0x100611920, symSize: 0x0 }
  - { offsetInCU: 0x4A76, offset: 0x3E2F0, size: 0x8, addend: 0x0, symName: _glad_glVertexAttribPointer, symObjAddr: 0x32C60, symBinAddr: 0x100611940, symSize: 0x0 }
  - { offsetInCU: 0x4ABF, offset: 0x3E339, size: 0x8, addend: 0x0, symName: _glad_glVertexP2ui, symObjAddr: 0x32C80, symBinAddr: 0x100611960, symSize: 0x0 }
  - { offsetInCU: 0x4AE2, offset: 0x3E35C, size: 0x8, addend: 0x0, symName: _glad_glVertexP2uiv, symObjAddr: 0x32CA0, symBinAddr: 0x100611980, symSize: 0x0 }
  - { offsetInCU: 0x4B05, offset: 0x3E37F, size: 0x8, addend: 0x0, symName: _glad_glVertexP3ui, symObjAddr: 0x32CC0, symBinAddr: 0x1006119A0, symSize: 0x0 }
  - { offsetInCU: 0x4B28, offset: 0x3E3A2, size: 0x8, addend: 0x0, symName: _glad_glVertexP3uiv, symObjAddr: 0x32CE0, symBinAddr: 0x1006119C0, symSize: 0x0 }
  - { offsetInCU: 0x4B4B, offset: 0x3E3C5, size: 0x8, addend: 0x0, symName: _glad_glVertexP4ui, symObjAddr: 0x32D00, symBinAddr: 0x1006119E0, symSize: 0x0 }
  - { offsetInCU: 0x4B6E, offset: 0x3E3E8, size: 0x8, addend: 0x0, symName: _glad_glVertexP4uiv, symObjAddr: 0x32D20, symBinAddr: 0x100611A00, symSize: 0x0 }
  - { offsetInCU: 0x4B91, offset: 0x3E40B, size: 0x8, addend: 0x0, symName: _glad_glViewport, symObjAddr: 0x32D40, symBinAddr: 0x100611A20, symSize: 0x0 }
  - { offsetInCU: 0x4BB4, offset: 0x3E42E, size: 0x8, addend: 0x0, symName: _glad_glWaitSync, symObjAddr: 0x32D60, symBinAddr: 0x100611A40, symSize: 0x0 }
  - { offsetInCU: 0x4BEA, offset: 0x3E464, size: 0x8, addend: 0x0, symName: _.str, symObjAddr: 0x4760, symBinAddr: 0x1004AF380, symSize: 0x0 }
  - { offsetInCU: 0x4C13, offset: 0x3E48D, size: 0x8, addend: 0x0, symName: _.str.1, symObjAddr: 0x4780, symBinAddr: 0x1004AF3A0, symSize: 0x0 }
  - { offsetInCU: 0x4C31, offset: 0x3E4AB, size: 0x8, addend: 0x0, symName: _.str.2, symObjAddr: 0x47E0, symBinAddr: 0x1004AF400, symSize: 0x0 }
  - { offsetInCU: 0x4C4F, offset: 0x3E4C9, size: 0x8, addend: 0x0, symName: _.str.3, symObjAddr: 0x4840, symBinAddr: 0x1004AF460, symSize: 0x0 }
  - { offsetInCU: 0x4C6D, offset: 0x3E4E7, size: 0x8, addend: 0x0, symName: _.str.4, symObjAddr: 0x48A0, symBinAddr: 0x1004AF4C0, symSize: 0x0 }
  - { offsetInCU: 0x4C83, offset: 0x3E4FD, size: 0x8, addend: 0x0, symName: __ZL7open_glv, symObjAddr: 0x4C, symBinAddr: 0x1000230F0, symSize: 0xF0 }
  - { offsetInCU: 0x4CAD, offset: 0x3E527, size: 0x8, addend: 0x0, symName: __ZZL7open_glvE5NAMES, symObjAddr: 0x93E0, symBinAddr: 0x10058D8E0, symSize: 0x0 }
  - { offsetInCU: 0x4CE3, offset: 0x3E55D, size: 0x8, addend: 0x0, symName: __ZL5libGL, symObjAddr: 0x32D80, symBinAddr: 0x100603F00, symSize: 0x0 }
  - { offsetInCU: 0x4CF9, offset: 0x3E573, size: 0x8, addend: 0x0, symName: _.str.5, symObjAddr: 0x4920, symBinAddr: 0x1004AF540, symSize: 0x0 }
  - { offsetInCU: 0x4D17, offset: 0x3E591, size: 0x8, addend: 0x0, symName: _.str.6, symObjAddr: 0x4940, symBinAddr: 0x1004AF560, symSize: 0x0 }
  - { offsetInCU: 0x4D29, offset: 0x3E5A3, size: 0x8, addend: 0x0, symName: _.str.7, symObjAddr: 0x4960, symBinAddr: 0x1004AF580, symSize: 0x0 }
  - { offsetInCU: 0x4D47, offset: 0x3E5C1, size: 0x8, addend: 0x0, symName: _.str.8, symObjAddr: 0x4980, symBinAddr: 0x1004AF5A0, symSize: 0x0 }
  - { offsetInCU: 0x4D68, offset: 0x3E5E2, size: 0x8, addend: 0x0, symName: __ZL16max_loaded_major, symObjAddr: 0x32DA0, symBinAddr: 0x100603F20, symSize: 0x0 }
  - { offsetInCU: 0x4D81, offset: 0x3E5FB, size: 0x8, addend: 0x0, symName: __ZL16max_loaded_minor, symObjAddr: 0x32DC0, symBinAddr: 0x100603F40, symSize: 0x0 }
  - { offsetInCU: 0x4D97, offset: 0x3E611, size: 0x8, addend: 0x0, symName: _.str.9, symObjAddr: 0x49A0, symBinAddr: 0x1004AF5C0, symSize: 0x0 }
  - { offsetInCU: 0x4DA9, offset: 0x3E623, size: 0x8, addend: 0x0, symName: _.str.10, symObjAddr: 0x49C0, symBinAddr: 0x1004AF5E0, symSize: 0x0 }
  - { offsetInCU: 0x4DBB, offset: 0x3E635, size: 0x8, addend: 0x0, symName: _.str.11, symObjAddr: 0x49E0, symBinAddr: 0x1004AF600, symSize: 0x0 }
  - { offsetInCU: 0x4DD9, offset: 0x3E653, size: 0x8, addend: 0x0, symName: _.str.12, symObjAddr: 0x4A00, symBinAddr: 0x1004AF620, symSize: 0x0 }
  - { offsetInCU: 0x4DEB, offset: 0x3E665, size: 0x8, addend: 0x0, symName: _.str.13, symObjAddr: 0x4A20, symBinAddr: 0x1004AF640, symSize: 0x0 }
  - { offsetInCU: 0x4DFD, offset: 0x3E677, size: 0x8, addend: 0x0, symName: _.str.14, symObjAddr: 0x4A40, symBinAddr: 0x1004AF660, symSize: 0x0 }
  - { offsetInCU: 0x4E0F, offset: 0x3E689, size: 0x8, addend: 0x0, symName: _.str.15, symObjAddr: 0x4A60, symBinAddr: 0x1004AF680, symSize: 0x0 }
  - { offsetInCU: 0x4E2D, offset: 0x3E6A7, size: 0x8, addend: 0x0, symName: _.str.16, symObjAddr: 0x4A80, symBinAddr: 0x1004AF6A0, symSize: 0x0 }
  - { offsetInCU: 0x4E4B, offset: 0x3E6C5, size: 0x8, addend: 0x0, symName: _.str.17, symObjAddr: 0x4AA0, symBinAddr: 0x1004AF6C0, symSize: 0x0 }
  - { offsetInCU: 0x4E69, offset: 0x3E6E3, size: 0x8, addend: 0x0, symName: _.str.18, symObjAddr: 0x4AE0, symBinAddr: 0x1004AF700, symSize: 0x0 }
  - { offsetInCU: 0x4E7B, offset: 0x3E6F5, size: 0x8, addend: 0x0, symName: _.str.19, symObjAddr: 0x4B00, symBinAddr: 0x1004AF720, symSize: 0x0 }
  - { offsetInCU: 0x4E8D, offset: 0x3E707, size: 0x8, addend: 0x0, symName: _.str.20, symObjAddr: 0x4B40, symBinAddr: 0x1004AF760, symSize: 0x0 }
  - { offsetInCU: 0x4EAB, offset: 0x3E725, size: 0x8, addend: 0x0, symName: _.str.21, symObjAddr: 0x4B60, symBinAddr: 0x1004AF780, symSize: 0x0 }
  - { offsetInCU: 0x4EBD, offset: 0x3E737, size: 0x8, addend: 0x0, symName: _.str.22, symObjAddr: 0x4B80, symBinAddr: 0x1004AF7A0, symSize: 0x0 }
  - { offsetInCU: 0x4ECF, offset: 0x3E749, size: 0x8, addend: 0x0, symName: _.str.23, symObjAddr: 0x4BA0, symBinAddr: 0x1004AF7C0, symSize: 0x0 }
  - { offsetInCU: 0x4EED, offset: 0x3E767, size: 0x8, addend: 0x0, symName: _.str.24, symObjAddr: 0x4BC0, symBinAddr: 0x1004AF7E0, symSize: 0x0 }
  - { offsetInCU: 0x4EFF, offset: 0x3E779, size: 0x8, addend: 0x0, symName: _.str.25, symObjAddr: 0x4BE0, symBinAddr: 0x1004AF800, symSize: 0x0 }
  - { offsetInCU: 0x4F1D, offset: 0x3E797, size: 0x8, addend: 0x0, symName: _.str.26, symObjAddr: 0x4C00, symBinAddr: 0x1004AF820, symSize: 0x0 }
  - { offsetInCU: 0x4F2F, offset: 0x3E7A9, size: 0x8, addend: 0x0, symName: _.str.27, symObjAddr: 0x4C20, symBinAddr: 0x1004AF840, symSize: 0x0 }
  - { offsetInCU: 0x4F41, offset: 0x3E7BB, size: 0x8, addend: 0x0, symName: _.str.28, symObjAddr: 0x4C40, symBinAddr: 0x1004AF860, symSize: 0x0 }
  - { offsetInCU: 0x4F53, offset: 0x3E7CD, size: 0x8, addend: 0x0, symName: _.str.29, symObjAddr: 0x4C60, symBinAddr: 0x1004AF880, symSize: 0x0 }
  - { offsetInCU: 0x4F65, offset: 0x3E7DF, size: 0x8, addend: 0x0, symName: _.str.30, symObjAddr: 0x4C80, symBinAddr: 0x1004AF8A0, symSize: 0x0 }
  - { offsetInCU: 0x4F77, offset: 0x3E7F1, size: 0x8, addend: 0x0, symName: _.str.31, symObjAddr: 0x4CA0, symBinAddr: 0x1004AF8C0, symSize: 0x0 }
  - { offsetInCU: 0x4F95, offset: 0x3E80F, size: 0x8, addend: 0x0, symName: _.str.32, symObjAddr: 0x4CC0, symBinAddr: 0x1004AF8E0, symSize: 0x0 }
  - { offsetInCU: 0x4FA7, offset: 0x3E821, size: 0x8, addend: 0x0, symName: _.str.33, symObjAddr: 0x4CE0, symBinAddr: 0x1004AF900, symSize: 0x0 }
  - { offsetInCU: 0x4FB9, offset: 0x3E833, size: 0x8, addend: 0x0, symName: _.str.34, symObjAddr: 0x4D00, symBinAddr: 0x1004AF920, symSize: 0x0 }
  - { offsetInCU: 0x4FCB, offset: 0x3E845, size: 0x8, addend: 0x0, symName: _.str.35, symObjAddr: 0x4D20, symBinAddr: 0x1004AF940, symSize: 0x0 }
  - { offsetInCU: 0x4FDD, offset: 0x3E857, size: 0x8, addend: 0x0, symName: _.str.36, symObjAddr: 0x4D40, symBinAddr: 0x1004AF960, symSize: 0x0 }
  - { offsetInCU: 0x4FEF, offset: 0x3E869, size: 0x8, addend: 0x0, symName: _.str.37, symObjAddr: 0x4D60, symBinAddr: 0x1004AF980, symSize: 0x0 }
  - { offsetInCU: 0x5001, offset: 0x3E87B, size: 0x8, addend: 0x0, symName: _.str.38, symObjAddr: 0x4D80, symBinAddr: 0x1004AF9A0, symSize: 0x0 }
  - { offsetInCU: 0x5013, offset: 0x3E88D, size: 0x8, addend: 0x0, symName: _.str.39, symObjAddr: 0x4DA0, symBinAddr: 0x1004AF9C0, symSize: 0x0 }
  - { offsetInCU: 0x5025, offset: 0x3E89F, size: 0x8, addend: 0x0, symName: _.str.40, symObjAddr: 0x4DC0, symBinAddr: 0x1004AF9E0, symSize: 0x0 }
  - { offsetInCU: 0x5037, offset: 0x3E8B1, size: 0x8, addend: 0x0, symName: _.str.41, symObjAddr: 0x4DE0, symBinAddr: 0x1004AFA00, symSize: 0x0 }
  - { offsetInCU: 0x5049, offset: 0x3E8C3, size: 0x8, addend: 0x0, symName: _.str.42, symObjAddr: 0x4E00, symBinAddr: 0x1004AFA20, symSize: 0x0 }
  - { offsetInCU: 0x505B, offset: 0x3E8D5, size: 0x8, addend: 0x0, symName: _.str.43, symObjAddr: 0x4E20, symBinAddr: 0x1004AFA40, symSize: 0x0 }
  - { offsetInCU: 0x506D, offset: 0x3E8E7, size: 0x8, addend: 0x0, symName: _.str.44, symObjAddr: 0x4E40, symBinAddr: 0x1004AFA60, symSize: 0x0 }
  - { offsetInCU: 0x507F, offset: 0x3E8F9, size: 0x8, addend: 0x0, symName: _.str.45, symObjAddr: 0x4E60, symBinAddr: 0x1004AFA80, symSize: 0x0 }
  - { offsetInCU: 0x5091, offset: 0x3E90B, size: 0x8, addend: 0x0, symName: _.str.46, symObjAddr: 0x4E80, symBinAddr: 0x1004AFAA0, symSize: 0x0 }
  - { offsetInCU: 0x50A3, offset: 0x3E91D, size: 0x8, addend: 0x0, symName: _.str.47, symObjAddr: 0x4EA0, symBinAddr: 0x1004AFAC0, symSize: 0x0 }
  - { offsetInCU: 0x50B5, offset: 0x3E92F, size: 0x8, addend: 0x0, symName: _.str.48, symObjAddr: 0x4EC0, symBinAddr: 0x1004AFAE0, symSize: 0x0 }
  - { offsetInCU: 0x50C7, offset: 0x3E941, size: 0x8, addend: 0x0, symName: _.str.49, symObjAddr: 0x4EE0, symBinAddr: 0x1004AFB00, symSize: 0x0 }
  - { offsetInCU: 0x50E5, offset: 0x3E95F, size: 0x8, addend: 0x0, symName: _.str.50, symObjAddr: 0x4F20, symBinAddr: 0x1004AFB40, symSize: 0x0 }
  - { offsetInCU: 0x50F7, offset: 0x3E971, size: 0x8, addend: 0x0, symName: _.str.51, symObjAddr: 0x4F60, symBinAddr: 0x1004AFB80, symSize: 0x0 }
  - { offsetInCU: 0x5115, offset: 0x3E98F, size: 0x8, addend: 0x0, symName: _.str.52, symObjAddr: 0x4FA0, symBinAddr: 0x1004AFBC0, symSize: 0x0 }
  - { offsetInCU: 0x5127, offset: 0x3E9A1, size: 0x8, addend: 0x0, symName: _.str.53, symObjAddr: 0x4FE0, symBinAddr: 0x1004AFC00, symSize: 0x0 }
  - { offsetInCU: 0x5139, offset: 0x3E9B3, size: 0x8, addend: 0x0, symName: _.str.54, symObjAddr: 0x5000, symBinAddr: 0x1004AFC20, symSize: 0x0 }
  - { offsetInCU: 0x514B, offset: 0x3E9C5, size: 0x8, addend: 0x0, symName: _.str.55, symObjAddr: 0x5020, symBinAddr: 0x1004AFC40, symSize: 0x0 }
  - { offsetInCU: 0x515D, offset: 0x3E9D7, size: 0x8, addend: 0x0, symName: _.str.56, symObjAddr: 0x5040, symBinAddr: 0x1004AFC60, symSize: 0x0 }
  - { offsetInCU: 0x516F, offset: 0x3E9E9, size: 0x8, addend: 0x0, symName: _.str.57, symObjAddr: 0x5060, symBinAddr: 0x1004AFC80, symSize: 0x0 }
  - { offsetInCU: 0x5181, offset: 0x3E9FB, size: 0x8, addend: 0x0, symName: _.str.58, symObjAddr: 0x5080, symBinAddr: 0x1004AFCA0, symSize: 0x0 }
  - { offsetInCU: 0x5193, offset: 0x3EA0D, size: 0x8, addend: 0x0, symName: _.str.59, symObjAddr: 0x50A0, symBinAddr: 0x1004AFCC0, symSize: 0x0 }
  - { offsetInCU: 0x51A5, offset: 0x3EA1F, size: 0x8, addend: 0x0, symName: _.str.60, symObjAddr: 0x50E0, symBinAddr: 0x1004AFD00, symSize: 0x0 }
  - { offsetInCU: 0x51B7, offset: 0x3EA31, size: 0x8, addend: 0x0, symName: _.str.61, symObjAddr: 0x5120, symBinAddr: 0x1004AFD40, symSize: 0x0 }
  - { offsetInCU: 0x51C9, offset: 0x3EA43, size: 0x8, addend: 0x0, symName: _.str.62, symObjAddr: 0x5160, symBinAddr: 0x1004AFD80, symSize: 0x0 }
  - { offsetInCU: 0x51DB, offset: 0x3EA55, size: 0x8, addend: 0x0, symName: _.str.63, symObjAddr: 0x51A0, symBinAddr: 0x1004AFDC0, symSize: 0x0 }
  - { offsetInCU: 0x51ED, offset: 0x3EA67, size: 0x8, addend: 0x0, symName: _.str.64, symObjAddr: 0x51C0, symBinAddr: 0x1004AFDE0, symSize: 0x0 }
  - { offsetInCU: 0x51FF, offset: 0x3EA79, size: 0x8, addend: 0x0, symName: _.str.65, symObjAddr: 0x51E0, symBinAddr: 0x1004AFE00, symSize: 0x0 }
  - { offsetInCU: 0x5211, offset: 0x3EA8B, size: 0x8, addend: 0x0, symName: _.str.66, symObjAddr: 0x5200, symBinAddr: 0x1004AFE20, symSize: 0x0 }
  - { offsetInCU: 0x5223, offset: 0x3EA9D, size: 0x8, addend: 0x0, symName: _.str.67, symObjAddr: 0x5240, symBinAddr: 0x1004AFE60, symSize: 0x0 }
  - { offsetInCU: 0x5235, offset: 0x3EAAF, size: 0x8, addend: 0x0, symName: _.str.68, symObjAddr: 0x5260, symBinAddr: 0x1004AFE80, symSize: 0x0 }
  - { offsetInCU: 0x5247, offset: 0x3EAC1, size: 0x8, addend: 0x0, symName: _.str.69, symObjAddr: 0x5280, symBinAddr: 0x1004AFEA0, symSize: 0x0 }
  - { offsetInCU: 0x5259, offset: 0x3EAD3, size: 0x8, addend: 0x0, symName: _.str.70, symObjAddr: 0x52C0, symBinAddr: 0x1004AFEE0, symSize: 0x0 }
  - { offsetInCU: 0x526B, offset: 0x3EAE5, size: 0x8, addend: 0x0, symName: _.str.71, symObjAddr: 0x52E0, symBinAddr: 0x1004AFF00, symSize: 0x0 }
  - { offsetInCU: 0x527D, offset: 0x3EAF7, size: 0x8, addend: 0x0, symName: _.str.72, symObjAddr: 0x5300, symBinAddr: 0x1004AFF20, symSize: 0x0 }
  - { offsetInCU: 0x528F, offset: 0x3EB09, size: 0x8, addend: 0x0, symName: _.str.73, symObjAddr: 0x5340, symBinAddr: 0x1004AFF60, symSize: 0x0 }
  - { offsetInCU: 0x52A1, offset: 0x3EB1B, size: 0x8, addend: 0x0, symName: _.str.74, symObjAddr: 0x5360, symBinAddr: 0x1004AFF80, symSize: 0x0 }
  - { offsetInCU: 0x52B3, offset: 0x3EB2D, size: 0x8, addend: 0x0, symName: _.str.75, symObjAddr: 0x53A0, symBinAddr: 0x1004AFFC0, symSize: 0x0 }
  - { offsetInCU: 0x52D1, offset: 0x3EB4B, size: 0x8, addend: 0x0, symName: _.str.76, symObjAddr: 0x53E0, symBinAddr: 0x1004B0000, symSize: 0x0 }
  - { offsetInCU: 0x52E3, offset: 0x3EB5D, size: 0x8, addend: 0x0, symName: _.str.77, symObjAddr: 0x5420, symBinAddr: 0x1004B0040, symSize: 0x0 }
  - { offsetInCU: 0x52F5, offset: 0x3EB6F, size: 0x8, addend: 0x0, symName: _.str.78, symObjAddr: 0x5460, symBinAddr: 0x1004B0080, symSize: 0x0 }
  - { offsetInCU: 0x5313, offset: 0x3EB8D, size: 0x8, addend: 0x0, symName: _.str.79, symObjAddr: 0x54A0, symBinAddr: 0x1004B00C0, symSize: 0x0 }
  - { offsetInCU: 0x5325, offset: 0x3EB9F, size: 0x8, addend: 0x0, symName: _.str.80, symObjAddr: 0x54E0, symBinAddr: 0x1004B0100, symSize: 0x0 }
  - { offsetInCU: 0x5337, offset: 0x3EBB1, size: 0x8, addend: 0x0, symName: _.str.81, symObjAddr: 0x5520, symBinAddr: 0x1004B0140, symSize: 0x0 }
  - { offsetInCU: 0x5355, offset: 0x3EBCF, size: 0x8, addend: 0x0, symName: _.str.82, symObjAddr: 0x5560, symBinAddr: 0x1004B0180, symSize: 0x0 }
  - { offsetInCU: 0x5367, offset: 0x3EBE1, size: 0x8, addend: 0x0, symName: _.str.83, symObjAddr: 0x55A0, symBinAddr: 0x1004B01C0, symSize: 0x0 }
  - { offsetInCU: 0x5385, offset: 0x3EBFF, size: 0x8, addend: 0x0, symName: _.str.84, symObjAddr: 0x55E0, symBinAddr: 0x1004B0200, symSize: 0x0 }
  - { offsetInCU: 0x5397, offset: 0x3EC11, size: 0x8, addend: 0x0, symName: _.str.85, symObjAddr: 0x5620, symBinAddr: 0x1004B0240, symSize: 0x0 }
  - { offsetInCU: 0x53A9, offset: 0x3EC23, size: 0x8, addend: 0x0, symName: _.str.86, symObjAddr: 0x5660, symBinAddr: 0x1004B0280, symSize: 0x0 }
  - { offsetInCU: 0x53C7, offset: 0x3EC41, size: 0x8, addend: 0x0, symName: _.str.87, symObjAddr: 0x56A0, symBinAddr: 0x1004B02C0, symSize: 0x0 }
  - { offsetInCU: 0x53D9, offset: 0x3EC53, size: 0x8, addend: 0x0, symName: _.str.88, symObjAddr: 0x56E0, symBinAddr: 0x1004B0300, symSize: 0x0 }
  - { offsetInCU: 0x53EB, offset: 0x3EC65, size: 0x8, addend: 0x0, symName: _.str.89, symObjAddr: 0x5720, symBinAddr: 0x1004B0340, symSize: 0x0 }
  - { offsetInCU: 0x53FD, offset: 0x3EC77, size: 0x8, addend: 0x0, symName: _.str.90, symObjAddr: 0x5740, symBinAddr: 0x1004B0360, symSize: 0x0 }
  - { offsetInCU: 0x540F, offset: 0x3EC89, size: 0x8, addend: 0x0, symName: _.str.91, symObjAddr: 0x5760, symBinAddr: 0x1004B0380, symSize: 0x0 }
  - { offsetInCU: 0x5421, offset: 0x3EC9B, size: 0x8, addend: 0x0, symName: _.str.92, symObjAddr: 0x5780, symBinAddr: 0x1004B03A0, symSize: 0x0 }
  - { offsetInCU: 0x5433, offset: 0x3ECAD, size: 0x8, addend: 0x0, symName: _.str.93, symObjAddr: 0x57A0, symBinAddr: 0x1004B03C0, symSize: 0x0 }
  - { offsetInCU: 0x5445, offset: 0x3ECBF, size: 0x8, addend: 0x0, symName: _.str.94, symObjAddr: 0x57C0, symBinAddr: 0x1004B03E0, symSize: 0x0 }
  - { offsetInCU: 0x5457, offset: 0x3ECD1, size: 0x8, addend: 0x0, symName: _.str.95, symObjAddr: 0x57E0, symBinAddr: 0x1004B0400, symSize: 0x0 }
  - { offsetInCU: 0x5469, offset: 0x3ECE3, size: 0x8, addend: 0x0, symName: _.str.96, symObjAddr: 0x5800, symBinAddr: 0x1004B0420, symSize: 0x0 }
  - { offsetInCU: 0x547B, offset: 0x3ECF5, size: 0x8, addend: 0x0, symName: _.str.97, symObjAddr: 0x5820, symBinAddr: 0x1004B0440, symSize: 0x0 }
  - { offsetInCU: 0x548D, offset: 0x3ED07, size: 0x8, addend: 0x0, symName: _.str.98, symObjAddr: 0x5860, symBinAddr: 0x1004B0480, symSize: 0x0 }
  - { offsetInCU: 0x549F, offset: 0x3ED19, size: 0x8, addend: 0x0, symName: _.str.99, symObjAddr: 0x58A0, symBinAddr: 0x1004B04C0, symSize: 0x0 }
  - { offsetInCU: 0x54B1, offset: 0x3ED2B, size: 0x8, addend: 0x0, symName: _.str.100, symObjAddr: 0x58C0, symBinAddr: 0x1004B04E0, symSize: 0x0 }
  - { offsetInCU: 0x54C3, offset: 0x3ED3D, size: 0x8, addend: 0x0, symName: _.str.101, symObjAddr: 0x58E0, symBinAddr: 0x1004B0500, symSize: 0x0 }
  - { offsetInCU: 0x54D5, offset: 0x3ED4F, size: 0x8, addend: 0x0, symName: _.str.102, symObjAddr: 0x5900, symBinAddr: 0x1004B0520, symSize: 0x0 }
  - { offsetInCU: 0x54E7, offset: 0x3ED61, size: 0x8, addend: 0x0, symName: _.str.103, symObjAddr: 0x5920, symBinAddr: 0x1004B0540, symSize: 0x0 }
  - { offsetInCU: 0x54F9, offset: 0x3ED73, size: 0x8, addend: 0x0, symName: _.str.104, symObjAddr: 0x5940, symBinAddr: 0x1004B0560, symSize: 0x0 }
  - { offsetInCU: 0x550B, offset: 0x3ED85, size: 0x8, addend: 0x0, symName: _.str.105, symObjAddr: 0x5960, symBinAddr: 0x1004B0580, symSize: 0x0 }
  - { offsetInCU: 0x551D, offset: 0x3ED97, size: 0x8, addend: 0x0, symName: _.str.106, symObjAddr: 0x59A0, symBinAddr: 0x1004B05C0, symSize: 0x0 }
  - { offsetInCU: 0x552F, offset: 0x3EDA9, size: 0x8, addend: 0x0, symName: _.str.107, symObjAddr: 0x59C0, symBinAddr: 0x1004B05E0, symSize: 0x0 }
  - { offsetInCU: 0x5541, offset: 0x3EDBB, size: 0x8, addend: 0x0, symName: _.str.108, symObjAddr: 0x59E0, symBinAddr: 0x1004B0600, symSize: 0x0 }
  - { offsetInCU: 0x5553, offset: 0x3EDCD, size: 0x8, addend: 0x0, symName: _.str.109, symObjAddr: 0x5A20, symBinAddr: 0x1004B0640, symSize: 0x0 }
  - { offsetInCU: 0x5565, offset: 0x3EDDF, size: 0x8, addend: 0x0, symName: _.str.110, symObjAddr: 0x5A60, symBinAddr: 0x1004B0680, symSize: 0x0 }
  - { offsetInCU: 0x5577, offset: 0x3EDF1, size: 0x8, addend: 0x0, symName: _.str.111, symObjAddr: 0x5AA0, symBinAddr: 0x1004B06C0, symSize: 0x0 }
  - { offsetInCU: 0x5589, offset: 0x3EE03, size: 0x8, addend: 0x0, symName: _.str.112, symObjAddr: 0x5AC0, symBinAddr: 0x1004B06E0, symSize: 0x0 }
  - { offsetInCU: 0x559B, offset: 0x3EE15, size: 0x8, addend: 0x0, symName: _.str.113, symObjAddr: 0x5B00, symBinAddr: 0x1004B0720, symSize: 0x0 }
  - { offsetInCU: 0x55B9, offset: 0x3EE33, size: 0x8, addend: 0x0, symName: _.str.114, symObjAddr: 0x5B40, symBinAddr: 0x1004B0760, symSize: 0x0 }
  - { offsetInCU: 0x55CB, offset: 0x3EE45, size: 0x8, addend: 0x0, symName: _.str.115, symObjAddr: 0x5B80, symBinAddr: 0x1004B07A0, symSize: 0x0 }
  - { offsetInCU: 0x55DD, offset: 0x3EE57, size: 0x8, addend: 0x0, symName: _.str.116, symObjAddr: 0x5BA0, symBinAddr: 0x1004B07C0, symSize: 0x0 }
  - { offsetInCU: 0x55FB, offset: 0x3EE75, size: 0x8, addend: 0x0, symName: _.str.117, symObjAddr: 0x5BE0, symBinAddr: 0x1004B0800, symSize: 0x0 }
  - { offsetInCU: 0x560D, offset: 0x3EE87, size: 0x8, addend: 0x0, symName: _.str.118, symObjAddr: 0x5C00, symBinAddr: 0x1004B0820, symSize: 0x0 }
  - { offsetInCU: 0x561F, offset: 0x3EE99, size: 0x8, addend: 0x0, symName: _.str.119, symObjAddr: 0x5C20, symBinAddr: 0x1004B0840, symSize: 0x0 }
  - { offsetInCU: 0x5631, offset: 0x3EEAB, size: 0x8, addend: 0x0, symName: _.str.120, symObjAddr: 0x5C40, symBinAddr: 0x1004B0860, symSize: 0x0 }
  - { offsetInCU: 0x5643, offset: 0x3EEBD, size: 0x8, addend: 0x0, symName: _.str.121, symObjAddr: 0x5C60, symBinAddr: 0x1004B0880, symSize: 0x0 }
  - { offsetInCU: 0x5655, offset: 0x3EECF, size: 0x8, addend: 0x0, symName: _.str.122, symObjAddr: 0x5C80, symBinAddr: 0x1004B08A0, symSize: 0x0 }
  - { offsetInCU: 0x5667, offset: 0x3EEE1, size: 0x8, addend: 0x0, symName: _.str.123, symObjAddr: 0x5CA0, symBinAddr: 0x1004B08C0, symSize: 0x0 }
  - { offsetInCU: 0x5685, offset: 0x3EEFF, size: 0x8, addend: 0x0, symName: _.str.124, symObjAddr: 0x5CE0, symBinAddr: 0x1004B0900, symSize: 0x0 }
  - { offsetInCU: 0x5697, offset: 0x3EF11, size: 0x8, addend: 0x0, symName: _.str.125, symObjAddr: 0x5D20, symBinAddr: 0x1004B0940, symSize: 0x0 }
  - { offsetInCU: 0x56A9, offset: 0x3EF23, size: 0x8, addend: 0x0, symName: _.str.126, symObjAddr: 0x5D60, symBinAddr: 0x1004B0980, symSize: 0x0 }
  - { offsetInCU: 0x56BB, offset: 0x3EF35, size: 0x8, addend: 0x0, symName: _.str.127, symObjAddr: 0x5DA0, symBinAddr: 0x1004B09C0, symSize: 0x0 }
  - { offsetInCU: 0x56CD, offset: 0x3EF47, size: 0x8, addend: 0x0, symName: _.str.128, symObjAddr: 0x5DE0, symBinAddr: 0x1004B0A00, symSize: 0x0 }
  - { offsetInCU: 0x56DF, offset: 0x3EF59, size: 0x8, addend: 0x0, symName: _.str.129, symObjAddr: 0x5E20, symBinAddr: 0x1004B0A40, symSize: 0x0 }
  - { offsetInCU: 0x56F1, offset: 0x3EF6B, size: 0x8, addend: 0x0, symName: _.str.130, symObjAddr: 0x5E40, symBinAddr: 0x1004B0A60, symSize: 0x0 }
  - { offsetInCU: 0x5703, offset: 0x3EF7D, size: 0x8, addend: 0x0, symName: _.str.131, symObjAddr: 0x5E80, symBinAddr: 0x1004B0AA0, symSize: 0x0 }
  - { offsetInCU: 0x5715, offset: 0x3EF8F, size: 0x8, addend: 0x0, symName: _.str.132, symObjAddr: 0x5EA0, symBinAddr: 0x1004B0AC0, symSize: 0x0 }
  - { offsetInCU: 0x5727, offset: 0x3EFA1, size: 0x8, addend: 0x0, symName: _.str.133, symObjAddr: 0x5EE0, symBinAddr: 0x1004B0B00, symSize: 0x0 }
  - { offsetInCU: 0x5739, offset: 0x3EFB3, size: 0x8, addend: 0x0, symName: _.str.134, symObjAddr: 0x5F20, symBinAddr: 0x1004B0B40, symSize: 0x0 }
  - { offsetInCU: 0x574B, offset: 0x3EFC5, size: 0x8, addend: 0x0, symName: _.str.135, symObjAddr: 0x5F60, symBinAddr: 0x1004B0B80, symSize: 0x0 }
  - { offsetInCU: 0x575D, offset: 0x3EFD7, size: 0x8, addend: 0x0, symName: _.str.136, symObjAddr: 0x5F80, symBinAddr: 0x1004B0BA0, symSize: 0x0 }
  - { offsetInCU: 0x576F, offset: 0x3EFE9, size: 0x8, addend: 0x0, symName: _.str.137, symObjAddr: 0x5FA0, symBinAddr: 0x1004B0BC0, symSize: 0x0 }
  - { offsetInCU: 0x5781, offset: 0x3EFFB, size: 0x8, addend: 0x0, symName: _.str.138, symObjAddr: 0x5FE0, symBinAddr: 0x1004B0C00, symSize: 0x0 }
  - { offsetInCU: 0x5793, offset: 0x3F00D, size: 0x8, addend: 0x0, symName: _.str.139, symObjAddr: 0x6020, symBinAddr: 0x1004B0C40, symSize: 0x0 }
  - { offsetInCU: 0x57A5, offset: 0x3F01F, size: 0x8, addend: 0x0, symName: _.str.140, symObjAddr: 0x6060, symBinAddr: 0x1004B0C80, symSize: 0x0 }
  - { offsetInCU: 0x57B7, offset: 0x3F031, size: 0x8, addend: 0x0, symName: _.str.141, symObjAddr: 0x60A0, symBinAddr: 0x1004B0CC0, symSize: 0x0 }
  - { offsetInCU: 0x57C9, offset: 0x3F043, size: 0x8, addend: 0x0, symName: _.str.142, symObjAddr: 0x60C0, symBinAddr: 0x1004B0CE0, symSize: 0x0 }
  - { offsetInCU: 0x57DB, offset: 0x3F055, size: 0x8, addend: 0x0, symName: _.str.143, symObjAddr: 0x60E0, symBinAddr: 0x1004B0D00, symSize: 0x0 }
  - { offsetInCU: 0x57ED, offset: 0x3F067, size: 0x8, addend: 0x0, symName: _.str.144, symObjAddr: 0x6100, symBinAddr: 0x1004B0D20, symSize: 0x0 }
  - { offsetInCU: 0x57FF, offset: 0x3F079, size: 0x8, addend: 0x0, symName: _.str.145, symObjAddr: 0x6120, symBinAddr: 0x1004B0D40, symSize: 0x0 }
  - { offsetInCU: 0x5811, offset: 0x3F08B, size: 0x8, addend: 0x0, symName: _.str.146, symObjAddr: 0x6140, symBinAddr: 0x1004B0D60, symSize: 0x0 }
  - { offsetInCU: 0x5823, offset: 0x3F09D, size: 0x8, addend: 0x0, symName: _.str.147, symObjAddr: 0x6160, symBinAddr: 0x1004B0D80, symSize: 0x0 }
  - { offsetInCU: 0x5835, offset: 0x3F0AF, size: 0x8, addend: 0x0, symName: _.str.148, symObjAddr: 0x6180, symBinAddr: 0x1004B0DA0, symSize: 0x0 }
  - { offsetInCU: 0x5847, offset: 0x3F0C1, size: 0x8, addend: 0x0, symName: _.str.149, symObjAddr: 0x61A0, symBinAddr: 0x1004B0DC0, symSize: 0x0 }
  - { offsetInCU: 0x5859, offset: 0x3F0D3, size: 0x8, addend: 0x0, symName: _.str.150, symObjAddr: 0x61C0, symBinAddr: 0x1004B0DE0, symSize: 0x0 }
  - { offsetInCU: 0x586B, offset: 0x3F0E5, size: 0x8, addend: 0x0, symName: _.str.151, symObjAddr: 0x61E0, symBinAddr: 0x1004B0E00, symSize: 0x0 }
  - { offsetInCU: 0x587D, offset: 0x3F0F7, size: 0x8, addend: 0x0, symName: _.str.152, symObjAddr: 0x6200, symBinAddr: 0x1004B0E20, symSize: 0x0 }
  - { offsetInCU: 0x588F, offset: 0x3F109, size: 0x8, addend: 0x0, symName: _.str.153, symObjAddr: 0x6220, symBinAddr: 0x1004B0E40, symSize: 0x0 }
  - { offsetInCU: 0x58A1, offset: 0x3F11B, size: 0x8, addend: 0x0, symName: _.str.154, symObjAddr: 0x6240, symBinAddr: 0x1004B0E60, symSize: 0x0 }
  - { offsetInCU: 0x58B3, offset: 0x3F12D, size: 0x8, addend: 0x0, symName: _.str.155, symObjAddr: 0x6260, symBinAddr: 0x1004B0E80, symSize: 0x0 }
  - { offsetInCU: 0x58C5, offset: 0x3F13F, size: 0x8, addend: 0x0, symName: _.str.156, symObjAddr: 0x6280, symBinAddr: 0x1004B0EA0, symSize: 0x0 }
  - { offsetInCU: 0x58D7, offset: 0x3F151, size: 0x8, addend: 0x0, symName: _.str.157, symObjAddr: 0x62A0, symBinAddr: 0x1004B0EC0, symSize: 0x0 }
  - { offsetInCU: 0x58E9, offset: 0x3F163, size: 0x8, addend: 0x0, symName: _.str.158, symObjAddr: 0x62C0, symBinAddr: 0x1004B0EE0, symSize: 0x0 }
  - { offsetInCU: 0x58FB, offset: 0x3F175, size: 0x8, addend: 0x0, symName: _.str.159, symObjAddr: 0x62E0, symBinAddr: 0x1004B0F00, symSize: 0x0 }
  - { offsetInCU: 0x590D, offset: 0x3F187, size: 0x8, addend: 0x0, symName: _.str.160, symObjAddr: 0x6300, symBinAddr: 0x1004B0F20, symSize: 0x0 }
  - { offsetInCU: 0x591F, offset: 0x3F199, size: 0x8, addend: 0x0, symName: _.str.161, symObjAddr: 0x6320, symBinAddr: 0x1004B0F40, symSize: 0x0 }
  - { offsetInCU: 0x5931, offset: 0x3F1AB, size: 0x8, addend: 0x0, symName: _.str.162, symObjAddr: 0x6340, symBinAddr: 0x1004B0F60, symSize: 0x0 }
  - { offsetInCU: 0x5943, offset: 0x3F1BD, size: 0x8, addend: 0x0, symName: _.str.163, symObjAddr: 0x6380, symBinAddr: 0x1004B0FA0, symSize: 0x0 }
  - { offsetInCU: 0x5955, offset: 0x3F1CF, size: 0x8, addend: 0x0, symName: _.str.164, symObjAddr: 0x63C0, symBinAddr: 0x1004B0FE0, symSize: 0x0 }
  - { offsetInCU: 0x5967, offset: 0x3F1E1, size: 0x8, addend: 0x0, symName: _.str.165, symObjAddr: 0x6400, symBinAddr: 0x1004B1020, symSize: 0x0 }
  - { offsetInCU: 0x5979, offset: 0x3F1F3, size: 0x8, addend: 0x0, symName: _.str.166, symObjAddr: 0x6440, symBinAddr: 0x1004B1060, symSize: 0x0 }
  - { offsetInCU: 0x598B, offset: 0x3F205, size: 0x8, addend: 0x0, symName: _.str.167, symObjAddr: 0x6480, symBinAddr: 0x1004B10A0, symSize: 0x0 }
  - { offsetInCU: 0x599D, offset: 0x3F217, size: 0x8, addend: 0x0, symName: _.str.168, symObjAddr: 0x64C0, symBinAddr: 0x1004B10E0, symSize: 0x0 }
  - { offsetInCU: 0x59AF, offset: 0x3F229, size: 0x8, addend: 0x0, symName: _.str.169, symObjAddr: 0x6500, symBinAddr: 0x1004B1120, symSize: 0x0 }
  - { offsetInCU: 0x59C1, offset: 0x3F23B, size: 0x8, addend: 0x0, symName: _.str.170, symObjAddr: 0x6540, symBinAddr: 0x1004B1160, symSize: 0x0 }
  - { offsetInCU: 0x59D3, offset: 0x3F24D, size: 0x8, addend: 0x0, symName: _.str.171, symObjAddr: 0x6580, symBinAddr: 0x1004B11A0, symSize: 0x0 }
  - { offsetInCU: 0x59E5, offset: 0x3F25F, size: 0x8, addend: 0x0, symName: _.str.172, symObjAddr: 0x65C0, symBinAddr: 0x1004B11E0, symSize: 0x0 }
  - { offsetInCU: 0x59F7, offset: 0x3F271, size: 0x8, addend: 0x0, symName: _.str.173, symObjAddr: 0x6600, symBinAddr: 0x1004B1220, symSize: 0x0 }
  - { offsetInCU: 0x5A09, offset: 0x3F283, size: 0x8, addend: 0x0, symName: _.str.174, symObjAddr: 0x6640, symBinAddr: 0x1004B1260, symSize: 0x0 }
  - { offsetInCU: 0x5A1B, offset: 0x3F295, size: 0x8, addend: 0x0, symName: _.str.175, symObjAddr: 0x6680, symBinAddr: 0x1004B12A0, symSize: 0x0 }
  - { offsetInCU: 0x5A2D, offset: 0x3F2A7, size: 0x8, addend: 0x0, symName: _.str.176, symObjAddr: 0x66C0, symBinAddr: 0x1004B12E0, symSize: 0x0 }
  - { offsetInCU: 0x5A3F, offset: 0x3F2B9, size: 0x8, addend: 0x0, symName: _.str.177, symObjAddr: 0x6700, symBinAddr: 0x1004B1320, symSize: 0x0 }
  - { offsetInCU: 0x5A51, offset: 0x3F2CB, size: 0x8, addend: 0x0, symName: _.str.178, symObjAddr: 0x6740, symBinAddr: 0x1004B1360, symSize: 0x0 }
  - { offsetInCU: 0x5A63, offset: 0x3F2DD, size: 0x8, addend: 0x0, symName: _.str.179, symObjAddr: 0x6780, symBinAddr: 0x1004B13A0, symSize: 0x0 }
  - { offsetInCU: 0x5A75, offset: 0x3F2EF, size: 0x8, addend: 0x0, symName: _.str.180, symObjAddr: 0x67C0, symBinAddr: 0x1004B13E0, symSize: 0x0 }
  - { offsetInCU: 0x5A87, offset: 0x3F301, size: 0x8, addend: 0x0, symName: _.str.181, symObjAddr: 0x6800, symBinAddr: 0x1004B1420, symSize: 0x0 }
  - { offsetInCU: 0x5A99, offset: 0x3F313, size: 0x8, addend: 0x0, symName: _.str.182, symObjAddr: 0x6840, symBinAddr: 0x1004B1460, symSize: 0x0 }
  - { offsetInCU: 0x5AAB, offset: 0x3F325, size: 0x8, addend: 0x0, symName: _.str.183, symObjAddr: 0x6880, symBinAddr: 0x1004B14A0, symSize: 0x0 }
  - { offsetInCU: 0x5ABD, offset: 0x3F337, size: 0x8, addend: 0x0, symName: _.str.184, symObjAddr: 0x68C0, symBinAddr: 0x1004B14E0, symSize: 0x0 }
  - { offsetInCU: 0x5ACF, offset: 0x3F349, size: 0x8, addend: 0x0, symName: _.str.185, symObjAddr: 0x6900, symBinAddr: 0x1004B1520, symSize: 0x0 }
  - { offsetInCU: 0x5AE1, offset: 0x3F35B, size: 0x8, addend: 0x0, symName: _.str.186, symObjAddr: 0x6940, symBinAddr: 0x1004B1560, symSize: 0x0 }
  - { offsetInCU: 0x5AF3, offset: 0x3F36D, size: 0x8, addend: 0x0, symName: _.str.187, symObjAddr: 0x6980, symBinAddr: 0x1004B15A0, symSize: 0x0 }
  - { offsetInCU: 0x5B05, offset: 0x3F37F, size: 0x8, addend: 0x0, symName: _.str.188, symObjAddr: 0x69C0, symBinAddr: 0x1004B15E0, symSize: 0x0 }
  - { offsetInCU: 0x5B17, offset: 0x3F391, size: 0x8, addend: 0x0, symName: _.str.189, symObjAddr: 0x6A00, symBinAddr: 0x1004B1620, symSize: 0x0 }
  - { offsetInCU: 0x5B29, offset: 0x3F3A3, size: 0x8, addend: 0x0, symName: _.str.190, symObjAddr: 0x6A40, symBinAddr: 0x1004B1660, symSize: 0x0 }
  - { offsetInCU: 0x5B3B, offset: 0x3F3B5, size: 0x8, addend: 0x0, symName: _.str.191, symObjAddr: 0x6A80, symBinAddr: 0x1004B16A0, symSize: 0x0 }
  - { offsetInCU: 0x5B4D, offset: 0x3F3C7, size: 0x8, addend: 0x0, symName: _.str.192, symObjAddr: 0x6AC0, symBinAddr: 0x1004B16E0, symSize: 0x0 }
  - { offsetInCU: 0x5B5F, offset: 0x3F3D9, size: 0x8, addend: 0x0, symName: _.str.193, symObjAddr: 0x6B00, symBinAddr: 0x1004B1720, symSize: 0x0 }
  - { offsetInCU: 0x5B71, offset: 0x3F3EB, size: 0x8, addend: 0x0, symName: _.str.194, symObjAddr: 0x6B40, symBinAddr: 0x1004B1760, symSize: 0x0 }
  - { offsetInCU: 0x5B83, offset: 0x3F3FD, size: 0x8, addend: 0x0, symName: _.str.195, symObjAddr: 0x6B80, symBinAddr: 0x1004B17A0, symSize: 0x0 }
  - { offsetInCU: 0x5B95, offset: 0x3F40F, size: 0x8, addend: 0x0, symName: _.str.196, symObjAddr: 0x6BC0, symBinAddr: 0x1004B17E0, symSize: 0x0 }
  - { offsetInCU: 0x5BA7, offset: 0x3F421, size: 0x8, addend: 0x0, symName: _.str.197, symObjAddr: 0x6C00, symBinAddr: 0x1004B1820, symSize: 0x0 }
  - { offsetInCU: 0x5BB9, offset: 0x3F433, size: 0x8, addend: 0x0, symName: _.str.198, symObjAddr: 0x6C40, symBinAddr: 0x1004B1860, symSize: 0x0 }
  - { offsetInCU: 0x5BCB, offset: 0x3F445, size: 0x8, addend: 0x0, symName: _.str.199, symObjAddr: 0x6C80, symBinAddr: 0x1004B18A0, symSize: 0x0 }
  - { offsetInCU: 0x5BDD, offset: 0x3F457, size: 0x8, addend: 0x0, symName: _.str.200, symObjAddr: 0x6CC0, symBinAddr: 0x1004B18E0, symSize: 0x0 }
  - { offsetInCU: 0x5BEF, offset: 0x3F469, size: 0x8, addend: 0x0, symName: _.str.201, symObjAddr: 0x6D00, symBinAddr: 0x1004B1920, symSize: 0x0 }
  - { offsetInCU: 0x5C01, offset: 0x3F47B, size: 0x8, addend: 0x0, symName: _.str.202, symObjAddr: 0x6D40, symBinAddr: 0x1004B1960, symSize: 0x0 }
  - { offsetInCU: 0x5C13, offset: 0x3F48D, size: 0x8, addend: 0x0, symName: _.str.203, symObjAddr: 0x6D80, symBinAddr: 0x1004B19A0, symSize: 0x0 }
  - { offsetInCU: 0x5C25, offset: 0x3F49F, size: 0x8, addend: 0x0, symName: _.str.204, symObjAddr: 0x6DC0, symBinAddr: 0x1004B19E0, symSize: 0x0 }
  - { offsetInCU: 0x5C37, offset: 0x3F4B1, size: 0x8, addend: 0x0, symName: _.str.205, symObjAddr: 0x6E00, symBinAddr: 0x1004B1A20, symSize: 0x0 }
  - { offsetInCU: 0x5C49, offset: 0x3F4C3, size: 0x8, addend: 0x0, symName: _.str.206, symObjAddr: 0x6E40, symBinAddr: 0x1004B1A60, symSize: 0x0 }
  - { offsetInCU: 0x5C5B, offset: 0x3F4D5, size: 0x8, addend: 0x0, symName: _.str.207, symObjAddr: 0x6E80, symBinAddr: 0x1004B1AA0, symSize: 0x0 }
  - { offsetInCU: 0x5C6D, offset: 0x3F4E7, size: 0x8, addend: 0x0, symName: _.str.208, symObjAddr: 0x6EC0, symBinAddr: 0x1004B1AE0, symSize: 0x0 }
  - { offsetInCU: 0x5C7F, offset: 0x3F4F9, size: 0x8, addend: 0x0, symName: _.str.209, symObjAddr: 0x6F00, symBinAddr: 0x1004B1B20, symSize: 0x0 }
  - { offsetInCU: 0x5C91, offset: 0x3F50B, size: 0x8, addend: 0x0, symName: _.str.210, symObjAddr: 0x6F20, symBinAddr: 0x1004B1B40, symSize: 0x0 }
  - { offsetInCU: 0x5CA3, offset: 0x3F51D, size: 0x8, addend: 0x0, symName: _.str.211, symObjAddr: 0x6F40, symBinAddr: 0x1004B1B60, symSize: 0x0 }
  - { offsetInCU: 0x5CB5, offset: 0x3F52F, size: 0x8, addend: 0x0, symName: _.str.212, symObjAddr: 0x6F60, symBinAddr: 0x1004B1B80, symSize: 0x0 }
  - { offsetInCU: 0x5CC7, offset: 0x3F541, size: 0x8, addend: 0x0, symName: _.str.213, symObjAddr: 0x6F80, symBinAddr: 0x1004B1BA0, symSize: 0x0 }
  - { offsetInCU: 0x5CD9, offset: 0x3F553, size: 0x8, addend: 0x0, symName: _.str.214, symObjAddr: 0x6FA0, symBinAddr: 0x1004B1BC0, symSize: 0x0 }
  - { offsetInCU: 0x5CEB, offset: 0x3F565, size: 0x8, addend: 0x0, symName: _.str.215, symObjAddr: 0x6FC0, symBinAddr: 0x1004B1BE0, symSize: 0x0 }
  - { offsetInCU: 0x5CFD, offset: 0x3F577, size: 0x8, addend: 0x0, symName: _.str.216, symObjAddr: 0x7000, symBinAddr: 0x1004B1C20, symSize: 0x0 }
  - { offsetInCU: 0x5D0F, offset: 0x3F589, size: 0x8, addend: 0x0, symName: _.str.217, symObjAddr: 0x7040, symBinAddr: 0x1004B1C60, symSize: 0x0 }
  - { offsetInCU: 0x5D21, offset: 0x3F59B, size: 0x8, addend: 0x0, symName: _.str.218, symObjAddr: 0x7080, symBinAddr: 0x1004B1CA0, symSize: 0x0 }
  - { offsetInCU: 0x5D33, offset: 0x3F5AD, size: 0x8, addend: 0x0, symName: _.str.219, symObjAddr: 0x70C0, symBinAddr: 0x1004B1CE0, symSize: 0x0 }
  - { offsetInCU: 0x5D51, offset: 0x3F5CB, size: 0x8, addend: 0x0, symName: _.str.220, symObjAddr: 0x7100, symBinAddr: 0x1004B1D20, symSize: 0x0 }
  - { offsetInCU: 0x5D6F, offset: 0x3F5E9, size: 0x8, addend: 0x0, symName: _.str.221, symObjAddr: 0x7140, symBinAddr: 0x1004B1D60, symSize: 0x0 }
  - { offsetInCU: 0x5D81, offset: 0x3F5FB, size: 0x8, addend: 0x0, symName: _.str.222, symObjAddr: 0x7160, symBinAddr: 0x1004B1D80, symSize: 0x0 }
  - { offsetInCU: 0x5D93, offset: 0x3F60D, size: 0x8, addend: 0x0, symName: _.str.223, symObjAddr: 0x71A0, symBinAddr: 0x1004B1DC0, symSize: 0x0 }
  - { offsetInCU: 0x5DA5, offset: 0x3F61F, size: 0x8, addend: 0x0, symName: _.str.224, symObjAddr: 0x71E0, symBinAddr: 0x1004B1E00, symSize: 0x0 }
  - { offsetInCU: 0x5DB7, offset: 0x3F631, size: 0x8, addend: 0x0, symName: _.str.225, symObjAddr: 0x7220, symBinAddr: 0x1004B1E40, symSize: 0x0 }
  - { offsetInCU: 0x5DC9, offset: 0x3F643, size: 0x8, addend: 0x0, symName: _.str.226, symObjAddr: 0x7260, symBinAddr: 0x1004B1E80, symSize: 0x0 }
  - { offsetInCU: 0x5DDB, offset: 0x3F655, size: 0x8, addend: 0x0, symName: _.str.227, symObjAddr: 0x72A0, symBinAddr: 0x1004B1EC0, symSize: 0x0 }
  - { offsetInCU: 0x5DED, offset: 0x3F667, size: 0x8, addend: 0x0, symName: _.str.228, symObjAddr: 0x72E0, symBinAddr: 0x1004B1F00, symSize: 0x0 }
  - { offsetInCU: 0x5DFF, offset: 0x3F679, size: 0x8, addend: 0x0, symName: _.str.229, symObjAddr: 0x7320, symBinAddr: 0x1004B1F40, symSize: 0x0 }
  - { offsetInCU: 0x5E11, offset: 0x3F68B, size: 0x8, addend: 0x0, symName: _.str.230, symObjAddr: 0x7360, symBinAddr: 0x1004B1F80, symSize: 0x0 }
  - { offsetInCU: 0x5E23, offset: 0x3F69D, size: 0x8, addend: 0x0, symName: _.str.231, symObjAddr: 0x73A0, symBinAddr: 0x1004B1FC0, symSize: 0x0 }
  - { offsetInCU: 0x5E35, offset: 0x3F6AF, size: 0x8, addend: 0x0, symName: _.str.232, symObjAddr: 0x73E0, symBinAddr: 0x1004B2000, symSize: 0x0 }
  - { offsetInCU: 0x5E47, offset: 0x3F6C1, size: 0x8, addend: 0x0, symName: _.str.233, symObjAddr: 0x7420, symBinAddr: 0x1004B2040, symSize: 0x0 }
  - { offsetInCU: 0x5E59, offset: 0x3F6D3, size: 0x8, addend: 0x0, symName: _.str.234, symObjAddr: 0x7460, symBinAddr: 0x1004B2080, symSize: 0x0 }
  - { offsetInCU: 0x5E6B, offset: 0x3F6E5, size: 0x8, addend: 0x0, symName: _.str.235, symObjAddr: 0x74A0, symBinAddr: 0x1004B20C0, symSize: 0x0 }
  - { offsetInCU: 0x5E7D, offset: 0x3F6F7, size: 0x8, addend: 0x0, symName: _.str.236, symObjAddr: 0x74E0, symBinAddr: 0x1004B2100, symSize: 0x0 }
  - { offsetInCU: 0x5E8F, offset: 0x3F709, size: 0x8, addend: 0x0, symName: _.str.237, symObjAddr: 0x7520, symBinAddr: 0x1004B2140, symSize: 0x0 }
  - { offsetInCU: 0x5EA1, offset: 0x3F71B, size: 0x8, addend: 0x0, symName: _.str.238, symObjAddr: 0x7560, symBinAddr: 0x1004B2180, symSize: 0x0 }
  - { offsetInCU: 0x5EB3, offset: 0x3F72D, size: 0x8, addend: 0x0, symName: _.str.239, symObjAddr: 0x75A0, symBinAddr: 0x1004B21C0, symSize: 0x0 }
  - { offsetInCU: 0x5EC5, offset: 0x3F73F, size: 0x8, addend: 0x0, symName: _.str.240, symObjAddr: 0x75E0, symBinAddr: 0x1004B2200, symSize: 0x0 }
  - { offsetInCU: 0x5ED7, offset: 0x3F751, size: 0x8, addend: 0x0, symName: _.str.241, symObjAddr: 0x7620, symBinAddr: 0x1004B2240, symSize: 0x0 }
  - { offsetInCU: 0x5EE9, offset: 0x3F763, size: 0x8, addend: 0x0, symName: _.str.242, symObjAddr: 0x7660, symBinAddr: 0x1004B2280, symSize: 0x0 }
  - { offsetInCU: 0x5EFB, offset: 0x3F775, size: 0x8, addend: 0x0, symName: _.str.243, symObjAddr: 0x76A0, symBinAddr: 0x1004B22C0, symSize: 0x0 }
  - { offsetInCU: 0x5F0D, offset: 0x3F787, size: 0x8, addend: 0x0, symName: _.str.244, symObjAddr: 0x76E0, symBinAddr: 0x1004B2300, symSize: 0x0 }
  - { offsetInCU: 0x5F1F, offset: 0x3F799, size: 0x8, addend: 0x0, symName: _.str.245, symObjAddr: 0x7720, symBinAddr: 0x1004B2340, symSize: 0x0 }
  - { offsetInCU: 0x5F31, offset: 0x3F7AB, size: 0x8, addend: 0x0, symName: _.str.246, symObjAddr: 0x7760, symBinAddr: 0x1004B2380, symSize: 0x0 }
  - { offsetInCU: 0x5F43, offset: 0x3F7BD, size: 0x8, addend: 0x0, symName: _.str.247, symObjAddr: 0x77A0, symBinAddr: 0x1004B23C0, symSize: 0x0 }
  - { offsetInCU: 0x5F55, offset: 0x3F7CF, size: 0x8, addend: 0x0, symName: _.str.248, symObjAddr: 0x77C0, symBinAddr: 0x1004B23E0, symSize: 0x0 }
  - { offsetInCU: 0x5F67, offset: 0x3F7E1, size: 0x8, addend: 0x0, symName: _.str.249, symObjAddr: 0x7800, symBinAddr: 0x1004B2420, symSize: 0x0 }
  - { offsetInCU: 0x5F79, offset: 0x3F7F3, size: 0x8, addend: 0x0, symName: _.str.250, symObjAddr: 0x7840, symBinAddr: 0x1004B2460, symSize: 0x0 }
  - { offsetInCU: 0x5F8B, offset: 0x3F805, size: 0x8, addend: 0x0, symName: _.str.251, symObjAddr: 0x7860, symBinAddr: 0x1004B2480, symSize: 0x0 }
  - { offsetInCU: 0x5F9D, offset: 0x3F817, size: 0x8, addend: 0x0, symName: _.str.252, symObjAddr: 0x7880, symBinAddr: 0x1004B24A0, symSize: 0x0 }
  - { offsetInCU: 0x5FAF, offset: 0x3F829, size: 0x8, addend: 0x0, symName: _.str.253, symObjAddr: 0x78A0, symBinAddr: 0x1004B24C0, symSize: 0x0 }
  - { offsetInCU: 0x5FC1, offset: 0x3F83B, size: 0x8, addend: 0x0, symName: _.str.254, symObjAddr: 0x78C0, symBinAddr: 0x1004B24E0, symSize: 0x0 }
  - { offsetInCU: 0x5FD3, offset: 0x3F84D, size: 0x8, addend: 0x0, symName: _.str.255, symObjAddr: 0x78E0, symBinAddr: 0x1004B2500, symSize: 0x0 }
  - { offsetInCU: 0x5FE5, offset: 0x3F85F, size: 0x8, addend: 0x0, symName: _.str.256, symObjAddr: 0x7900, symBinAddr: 0x1004B2520, symSize: 0x0 }
  - { offsetInCU: 0x5FF7, offset: 0x3F871, size: 0x8, addend: 0x0, symName: _.str.257, symObjAddr: 0x7920, symBinAddr: 0x1004B2540, symSize: 0x0 }
  - { offsetInCU: 0x6009, offset: 0x3F883, size: 0x8, addend: 0x0, symName: _.str.258, symObjAddr: 0x7940, symBinAddr: 0x1004B2560, symSize: 0x0 }
  - { offsetInCU: 0x601B, offset: 0x3F895, size: 0x8, addend: 0x0, symName: _.str.259, symObjAddr: 0x7980, symBinAddr: 0x1004B25A0, symSize: 0x0 }
  - { offsetInCU: 0x602D, offset: 0x3F8A7, size: 0x8, addend: 0x0, symName: _.str.260, symObjAddr: 0x79C0, symBinAddr: 0x1004B25E0, symSize: 0x0 }
  - { offsetInCU: 0x603F, offset: 0x3F8B9, size: 0x8, addend: 0x0, symName: _.str.261, symObjAddr: 0x7A00, symBinAddr: 0x1004B2620, symSize: 0x0 }
  - { offsetInCU: 0x6051, offset: 0x3F8CB, size: 0x8, addend: 0x0, symName: _.str.262, symObjAddr: 0x7A40, symBinAddr: 0x1004B2660, symSize: 0x0 }
  - { offsetInCU: 0x6063, offset: 0x3F8DD, size: 0x8, addend: 0x0, symName: _.str.263, symObjAddr: 0x7A60, symBinAddr: 0x1004B2680, symSize: 0x0 }
  - { offsetInCU: 0x6075, offset: 0x3F8EF, size: 0x8, addend: 0x0, symName: _.str.264, symObjAddr: 0x7AA0, symBinAddr: 0x1004B26C0, symSize: 0x0 }
  - { offsetInCU: 0x6087, offset: 0x3F901, size: 0x8, addend: 0x0, symName: _.str.265, symObjAddr: 0x7AC0, symBinAddr: 0x1004B26E0, symSize: 0x0 }
  - { offsetInCU: 0x6099, offset: 0x3F913, size: 0x8, addend: 0x0, symName: _.str.266, symObjAddr: 0x7AE0, symBinAddr: 0x1004B2700, symSize: 0x0 }
  - { offsetInCU: 0x60AB, offset: 0x3F925, size: 0x8, addend: 0x0, symName: _.str.267, symObjAddr: 0x7B00, symBinAddr: 0x1004B2720, symSize: 0x0 }
  - { offsetInCU: 0x60BD, offset: 0x3F937, size: 0x8, addend: 0x0, symName: _.str.268, symObjAddr: 0x7B40, symBinAddr: 0x1004B2760, symSize: 0x0 }
  - { offsetInCU: 0x60CF, offset: 0x3F949, size: 0x8, addend: 0x0, symName: _.str.269, symObjAddr: 0x7B80, symBinAddr: 0x1004B27A0, symSize: 0x0 }
  - { offsetInCU: 0x60E1, offset: 0x3F95B, size: 0x8, addend: 0x0, symName: _.str.270, symObjAddr: 0x7BC0, symBinAddr: 0x1004B27E0, symSize: 0x0 }
  - { offsetInCU: 0x60F3, offset: 0x3F96D, size: 0x8, addend: 0x0, symName: _.str.271, symObjAddr: 0x7C00, symBinAddr: 0x1004B2820, symSize: 0x0 }
  - { offsetInCU: 0x6105, offset: 0x3F97F, size: 0x8, addend: 0x0, symName: _.str.272, symObjAddr: 0x7C40, symBinAddr: 0x1004B2860, symSize: 0x0 }
  - { offsetInCU: 0x6123, offset: 0x3F99D, size: 0x8, addend: 0x0, symName: _.str.273, symObjAddr: 0x7C80, symBinAddr: 0x1004B28A0, symSize: 0x0 }
  - { offsetInCU: 0x6135, offset: 0x3F9AF, size: 0x8, addend: 0x0, symName: _.str.274, symObjAddr: 0x7CA0, symBinAddr: 0x1004B28C0, symSize: 0x0 }
  - { offsetInCU: 0x6147, offset: 0x3F9C1, size: 0x8, addend: 0x0, symName: _.str.275, symObjAddr: 0x7CE0, symBinAddr: 0x1004B2900, symSize: 0x0 }
  - { offsetInCU: 0x6159, offset: 0x3F9D3, size: 0x8, addend: 0x0, symName: _.str.276, symObjAddr: 0x7D20, symBinAddr: 0x1004B2940, symSize: 0x0 }
  - { offsetInCU: 0x616B, offset: 0x3F9E5, size: 0x8, addend: 0x0, symName: _.str.277, symObjAddr: 0x7D60, symBinAddr: 0x1004B2980, symSize: 0x0 }
  - { offsetInCU: 0x617D, offset: 0x3F9F7, size: 0x8, addend: 0x0, symName: _.str.278, symObjAddr: 0x7DA0, symBinAddr: 0x1004B29C0, symSize: 0x0 }
  - { offsetInCU: 0x618F, offset: 0x3FA09, size: 0x8, addend: 0x0, symName: _.str.279, symObjAddr: 0x7DE0, symBinAddr: 0x1004B2A00, symSize: 0x0 }
  - { offsetInCU: 0x61A1, offset: 0x3FA1B, size: 0x8, addend: 0x0, symName: _.str.280, symObjAddr: 0x7E20, symBinAddr: 0x1004B2A40, symSize: 0x0 }
  - { offsetInCU: 0x61B3, offset: 0x3FA2D, size: 0x8, addend: 0x0, symName: _.str.281, symObjAddr: 0x7E60, symBinAddr: 0x1004B2A80, symSize: 0x0 }
  - { offsetInCU: 0x61C5, offset: 0x3FA3F, size: 0x8, addend: 0x0, symName: _.str.282, symObjAddr: 0x7EA0, symBinAddr: 0x1004B2AC0, symSize: 0x0 }
  - { offsetInCU: 0x61D7, offset: 0x3FA51, size: 0x8, addend: 0x0, symName: _.str.283, symObjAddr: 0x7F00, symBinAddr: 0x1004B2B20, symSize: 0x0 }
  - { offsetInCU: 0x61E9, offset: 0x3FA63, size: 0x8, addend: 0x0, symName: _.str.284, symObjAddr: 0x7F40, symBinAddr: 0x1004B2B60, symSize: 0x0 }
  - { offsetInCU: 0x61FB, offset: 0x3FA75, size: 0x8, addend: 0x0, symName: _.str.285, symObjAddr: 0x7F80, symBinAddr: 0x1004B2BA0, symSize: 0x0 }
  - { offsetInCU: 0x6219, offset: 0x3FA93, size: 0x8, addend: 0x0, symName: _.str.286, symObjAddr: 0x7FE0, symBinAddr: 0x1004B2C00, symSize: 0x0 }
  - { offsetInCU: 0x622B, offset: 0x3FAA5, size: 0x8, addend: 0x0, symName: _.str.287, symObjAddr: 0x8020, symBinAddr: 0x1004B2C40, symSize: 0x0 }
  - { offsetInCU: 0x623D, offset: 0x3FAB7, size: 0x8, addend: 0x0, symName: _.str.288, symObjAddr: 0x8060, symBinAddr: 0x1004B2C80, symSize: 0x0 }
  - { offsetInCU: 0x624F, offset: 0x3FAC9, size: 0x8, addend: 0x0, symName: _.str.289, symObjAddr: 0x80A0, symBinAddr: 0x1004B2CC0, symSize: 0x0 }
  - { offsetInCU: 0x6261, offset: 0x3FADB, size: 0x8, addend: 0x0, symName: _.str.290, symObjAddr: 0x80E0, symBinAddr: 0x1004B2D00, symSize: 0x0 }
  - { offsetInCU: 0x6273, offset: 0x3FAED, size: 0x8, addend: 0x0, symName: _.str.291, symObjAddr: 0x8120, symBinAddr: 0x1004B2D40, symSize: 0x0 }
  - { offsetInCU: 0x6285, offset: 0x3FAFF, size: 0x8, addend: 0x0, symName: _.str.292, symObjAddr: 0x8160, symBinAddr: 0x1004B2D80, symSize: 0x0 }
  - { offsetInCU: 0x6297, offset: 0x3FB11, size: 0x8, addend: 0x0, symName: _.str.293, symObjAddr: 0x8180, symBinAddr: 0x1004B2DA0, symSize: 0x0 }
  - { offsetInCU: 0x62A9, offset: 0x3FB23, size: 0x8, addend: 0x0, symName: _.str.294, symObjAddr: 0x81C0, symBinAddr: 0x1004B2DE0, symSize: 0x0 }
  - { offsetInCU: 0x62BB, offset: 0x3FB35, size: 0x8, addend: 0x0, symName: _.str.295, symObjAddr: 0x8200, symBinAddr: 0x1004B2E20, symSize: 0x0 }
  - { offsetInCU: 0x62CD, offset: 0x3FB47, size: 0x8, addend: 0x0, symName: _.str.296, symObjAddr: 0x8220, symBinAddr: 0x1004B2E40, symSize: 0x0 }
  - { offsetInCU: 0x62DF, offset: 0x3FB59, size: 0x8, addend: 0x0, symName: _.str.297, symObjAddr: 0x8260, symBinAddr: 0x1004B2E80, symSize: 0x0 }
  - { offsetInCU: 0x62F1, offset: 0x3FB6B, size: 0x8, addend: 0x0, symName: _.str.298, symObjAddr: 0x82A0, symBinAddr: 0x1004B2EC0, symSize: 0x0 }
  - { offsetInCU: 0x6303, offset: 0x3FB7D, size: 0x8, addend: 0x0, symName: _.str.299, symObjAddr: 0x82E0, symBinAddr: 0x1004B2F00, symSize: 0x0 }
  - { offsetInCU: 0x6315, offset: 0x3FB8F, size: 0x8, addend: 0x0, symName: _.str.300, symObjAddr: 0x8320, symBinAddr: 0x1004B2F40, symSize: 0x0 }
  - { offsetInCU: 0x6327, offset: 0x3FBA1, size: 0x8, addend: 0x0, symName: _.str.301, symObjAddr: 0x8360, symBinAddr: 0x1004B2F80, symSize: 0x0 }
  - { offsetInCU: 0x6339, offset: 0x3FBB3, size: 0x8, addend: 0x0, symName: _.str.302, symObjAddr: 0x83A0, symBinAddr: 0x1004B2FC0, symSize: 0x0 }
  - { offsetInCU: 0x634B, offset: 0x3FBC5, size: 0x8, addend: 0x0, symName: _.str.303, symObjAddr: 0x83E0, symBinAddr: 0x1004B3000, symSize: 0x0 }
  - { offsetInCU: 0x635D, offset: 0x3FBD7, size: 0x8, addend: 0x0, symName: _.str.304, symObjAddr: 0x8420, symBinAddr: 0x1004B3040, symSize: 0x0 }
  - { offsetInCU: 0x636F, offset: 0x3FBE9, size: 0x8, addend: 0x0, symName: _.str.305, symObjAddr: 0x8460, symBinAddr: 0x1004B3080, symSize: 0x0 }
  - { offsetInCU: 0x6381, offset: 0x3FBFB, size: 0x8, addend: 0x0, symName: _.str.306, symObjAddr: 0x84A0, symBinAddr: 0x1004B30C0, symSize: 0x0 }
  - { offsetInCU: 0x6393, offset: 0x3FC0D, size: 0x8, addend: 0x0, symName: _.str.307, symObjAddr: 0x84E0, symBinAddr: 0x1004B3100, symSize: 0x0 }
  - { offsetInCU: 0x63B1, offset: 0x3FC2B, size: 0x8, addend: 0x0, symName: _.str.308, symObjAddr: 0x8540, symBinAddr: 0x1004B3160, symSize: 0x0 }
  - { offsetInCU: 0x63C3, offset: 0x3FC3D, size: 0x8, addend: 0x0, symName: _.str.309, symObjAddr: 0x8580, symBinAddr: 0x1004B31A0, symSize: 0x0 }
  - { offsetInCU: 0x63D5, offset: 0x3FC4F, size: 0x8, addend: 0x0, symName: _.str.310, symObjAddr: 0x85C0, symBinAddr: 0x1004B31E0, symSize: 0x0 }
  - { offsetInCU: 0x63E7, offset: 0x3FC61, size: 0x8, addend: 0x0, symName: _.str.311, symObjAddr: 0x85E0, symBinAddr: 0x1004B3200, symSize: 0x0 }
  - { offsetInCU: 0x63F9, offset: 0x3FC73, size: 0x8, addend: 0x0, symName: _.str.312, symObjAddr: 0x8600, symBinAddr: 0x1004B3220, symSize: 0x0 }
  - { offsetInCU: 0x640B, offset: 0x3FC85, size: 0x8, addend: 0x0, symName: _.str.313, symObjAddr: 0x8620, symBinAddr: 0x1004B3240, symSize: 0x0 }
  - { offsetInCU: 0x641D, offset: 0x3FC97, size: 0x8, addend: 0x0, symName: _.str.314, symObjAddr: 0x8660, symBinAddr: 0x1004B3280, symSize: 0x0 }
  - { offsetInCU: 0x642F, offset: 0x3FCA9, size: 0x8, addend: 0x0, symName: _.str.315, symObjAddr: 0x8680, symBinAddr: 0x1004B32A0, symSize: 0x0 }
  - { offsetInCU: 0x6441, offset: 0x3FCBB, size: 0x8, addend: 0x0, symName: _.str.316, symObjAddr: 0x86A0, symBinAddr: 0x1004B32C0, symSize: 0x0 }
  - { offsetInCU: 0x6453, offset: 0x3FCCD, size: 0x8, addend: 0x0, symName: _.str.317, symObjAddr: 0x86C0, symBinAddr: 0x1004B32E0, symSize: 0x0 }
  - { offsetInCU: 0x6465, offset: 0x3FCDF, size: 0x8, addend: 0x0, symName: _.str.318, symObjAddr: 0x8700, symBinAddr: 0x1004B3320, symSize: 0x0 }
  - { offsetInCU: 0x6477, offset: 0x3FCF1, size: 0x8, addend: 0x0, symName: _.str.319, symObjAddr: 0x8740, symBinAddr: 0x1004B3360, symSize: 0x0 }
  - { offsetInCU: 0x6489, offset: 0x3FD03, size: 0x8, addend: 0x0, symName: _.str.320, symObjAddr: 0x8780, symBinAddr: 0x1004B33A0, symSize: 0x0 }
  - { offsetInCU: 0x649B, offset: 0x3FD15, size: 0x8, addend: 0x0, symName: _.str.321, symObjAddr: 0x87C0, symBinAddr: 0x1004B33E0, symSize: 0x0 }
  - { offsetInCU: 0x64AD, offset: 0x3FD27, size: 0x8, addend: 0x0, symName: _.str.322, symObjAddr: 0x8800, symBinAddr: 0x1004B3420, symSize: 0x0 }
  - { offsetInCU: 0x64BF, offset: 0x3FD39, size: 0x8, addend: 0x0, symName: _.str.323, symObjAddr: 0x8840, symBinAddr: 0x1004B3460, symSize: 0x0 }
  - { offsetInCU: 0x64D1, offset: 0x3FD4B, size: 0x8, addend: 0x0, symName: _.str.324, symObjAddr: 0x8860, symBinAddr: 0x1004B3480, symSize: 0x0 }
  - { offsetInCU: 0x64E3, offset: 0x3FD5D, size: 0x8, addend: 0x0, symName: _.str.325, symObjAddr: 0x88A0, symBinAddr: 0x1004B34C0, symSize: 0x0 }
  - { offsetInCU: 0x64F5, offset: 0x3FD6F, size: 0x8, addend: 0x0, symName: _.str.326, symObjAddr: 0x88E0, symBinAddr: 0x1004B3500, symSize: 0x0 }
  - { offsetInCU: 0x6507, offset: 0x3FD81, size: 0x8, addend: 0x0, symName: _.str.327, symObjAddr: 0x8900, symBinAddr: 0x1004B3520, symSize: 0x0 }
  - { offsetInCU: 0x6519, offset: 0x3FD93, size: 0x8, addend: 0x0, symName: _.str.328, symObjAddr: 0x8940, symBinAddr: 0x1004B3560, symSize: 0x0 }
  - { offsetInCU: 0x652B, offset: 0x3FDA5, size: 0x8, addend: 0x0, symName: _.str.329, symObjAddr: 0x8960, symBinAddr: 0x1004B3580, symSize: 0x0 }
  - { offsetInCU: 0x653D, offset: 0x3FDB7, size: 0x8, addend: 0x0, symName: _.str.330, symObjAddr: 0x8980, symBinAddr: 0x1004B35A0, symSize: 0x0 }
  - { offsetInCU: 0x654F, offset: 0x3FDC9, size: 0x8, addend: 0x0, symName: _.str.331, symObjAddr: 0x89C0, symBinAddr: 0x1004B35E0, symSize: 0x0 }
  - { offsetInCU: 0x6561, offset: 0x3FDDB, size: 0x8, addend: 0x0, symName: _.str.332, symObjAddr: 0x8A00, symBinAddr: 0x1004B3620, symSize: 0x0 }
  - { offsetInCU: 0x6573, offset: 0x3FDED, size: 0x8, addend: 0x0, symName: _.str.333, symObjAddr: 0x8A40, symBinAddr: 0x1004B3660, symSize: 0x0 }
  - { offsetInCU: 0x6585, offset: 0x3FDFF, size: 0x8, addend: 0x0, symName: _.str.334, symObjAddr: 0x8A80, symBinAddr: 0x1004B36A0, symSize: 0x0 }
  - { offsetInCU: 0x6597, offset: 0x3FE11, size: 0x8, addend: 0x0, symName: _.str.335, symObjAddr: 0x8AC0, symBinAddr: 0x1004B36E0, symSize: 0x0 }
  - { offsetInCU: 0x65A9, offset: 0x3FE23, size: 0x8, addend: 0x0, symName: _.str.336, symObjAddr: 0x8B00, symBinAddr: 0x1004B3720, symSize: 0x0 }
  - { offsetInCU: 0x65BB, offset: 0x3FE35, size: 0x8, addend: 0x0, symName: _.str.337, symObjAddr: 0x8B40, symBinAddr: 0x1004B3760, symSize: 0x0 }
  - { offsetInCU: 0x65CD, offset: 0x3FE47, size: 0x8, addend: 0x0, symName: _.str.338, symObjAddr: 0x8B80, symBinAddr: 0x1004B37A0, symSize: 0x0 }
  - { offsetInCU: 0x65DF, offset: 0x3FE59, size: 0x8, addend: 0x0, symName: _.str.339, symObjAddr: 0x8BC0, symBinAddr: 0x1004B37E0, symSize: 0x0 }
  - { offsetInCU: 0x65F1, offset: 0x3FE6B, size: 0x8, addend: 0x0, symName: _.str.340, symObjAddr: 0x8C00, symBinAddr: 0x1004B3820, symSize: 0x0 }
  - { offsetInCU: 0x6603, offset: 0x3FE7D, size: 0x8, addend: 0x0, symName: _.str.341, symObjAddr: 0x8C20, symBinAddr: 0x1004B3840, symSize: 0x0 }
  - { offsetInCU: 0x6615, offset: 0x3FE8F, size: 0x8, addend: 0x0, symName: _.str.342, symObjAddr: 0x8C60, symBinAddr: 0x1004B3880, symSize: 0x0 }
  - { offsetInCU: 0x6627, offset: 0x3FEA1, size: 0x8, addend: 0x0, symName: _.str.343, symObjAddr: 0x8CA0, symBinAddr: 0x1004B38C0, symSize: 0x0 }
  - { offsetInCU: 0x6639, offset: 0x3FEB3, size: 0x8, addend: 0x0, symName: _.str.344, symObjAddr: 0x8CE0, symBinAddr: 0x1004B3900, symSize: 0x0 }
  - { offsetInCU: 0x664B, offset: 0x3FEC5, size: 0x8, addend: 0x0, symName: _.str.345, symObjAddr: 0x8D20, symBinAddr: 0x1004B3940, symSize: 0x0 }
  - { offsetInCU: 0x665D, offset: 0x3FED7, size: 0x8, addend: 0x0, symName: _.str.346, symObjAddr: 0x8D60, symBinAddr: 0x1004B3980, symSize: 0x0 }
  - { offsetInCU: 0x666F, offset: 0x3FEE9, size: 0x8, addend: 0x0, symName: _.str.347, symObjAddr: 0x8DA0, symBinAddr: 0x1004B39C0, symSize: 0x0 }
  - { offsetInCU: 0x6681, offset: 0x3FEFB, size: 0x8, addend: 0x0, symName: _.str.348, symObjAddr: 0x8DE0, symBinAddr: 0x1004B3A00, symSize: 0x0 }
  - { offsetInCU: 0x6693, offset: 0x3FF0D, size: 0x8, addend: 0x0, symName: _.str.349, symObjAddr: 0x8E20, symBinAddr: 0x1004B3A40, symSize: 0x0 }
  - { offsetInCU: 0x66A5, offset: 0x3FF1F, size: 0x8, addend: 0x0, symName: _.str.350, symObjAddr: 0x8E60, symBinAddr: 0x1004B3A80, symSize: 0x0 }
  - { offsetInCU: 0x66B7, offset: 0x3FF31, size: 0x8, addend: 0x0, symName: _.str.351, symObjAddr: 0x8EA0, symBinAddr: 0x1004B3AC0, symSize: 0x0 }
  - { offsetInCU: 0x66C9, offset: 0x3FF43, size: 0x8, addend: 0x0, symName: _.str.352, symObjAddr: 0x8EE0, symBinAddr: 0x1004B3B00, symSize: 0x0 }
  - { offsetInCU: 0x66DB, offset: 0x3FF55, size: 0x8, addend: 0x0, symName: _.str.353, symObjAddr: 0x8F00, symBinAddr: 0x1004B3B20, symSize: 0x0 }
  - { offsetInCU: 0x66ED, offset: 0x3FF67, size: 0x8, addend: 0x0, symName: _.str.354, symObjAddr: 0x8F20, symBinAddr: 0x1004B3B40, symSize: 0x0 }
  - { offsetInCU: 0x66FF, offset: 0x3FF79, size: 0x8, addend: 0x0, symName: _.str.355, symObjAddr: 0x8F40, symBinAddr: 0x1004B3B60, symSize: 0x0 }
  - { offsetInCU: 0x6711, offset: 0x3FF8B, size: 0x8, addend: 0x0, symName: _.str.356, symObjAddr: 0x8F60, symBinAddr: 0x1004B3B80, symSize: 0x0 }
  - { offsetInCU: 0x6723, offset: 0x3FF9D, size: 0x8, addend: 0x0, symName: _.str.357, symObjAddr: 0x8F80, symBinAddr: 0x1004B3BA0, symSize: 0x0 }
  - { offsetInCU: 0x6735, offset: 0x3FFAF, size: 0x8, addend: 0x0, symName: _.str.358, symObjAddr: 0x8FA0, symBinAddr: 0x1004B3BC0, symSize: 0x0 }
  - { offsetInCU: 0x6747, offset: 0x3FFC1, size: 0x8, addend: 0x0, symName: _.str.359, symObjAddr: 0x8FC0, symBinAddr: 0x1004B3BE0, symSize: 0x0 }
  - { offsetInCU: 0x6759, offset: 0x3FFD3, size: 0x8, addend: 0x0, symName: _.str.360, symObjAddr: 0x8FE0, symBinAddr: 0x1004B3C00, symSize: 0x0 }
  - { offsetInCU: 0x676B, offset: 0x3FFE5, size: 0x8, addend: 0x0, symName: _.str.361, symObjAddr: 0x9000, symBinAddr: 0x1004B3C20, symSize: 0x0 }
  - { offsetInCU: 0x677D, offset: 0x3FFF7, size: 0x8, addend: 0x0, symName: _.str.362, symObjAddr: 0x9020, symBinAddr: 0x1004B3C40, symSize: 0x0 }
  - { offsetInCU: 0x678F, offset: 0x40009, size: 0x8, addend: 0x0, symName: _.str.363, symObjAddr: 0x9040, symBinAddr: 0x1004B3C60, symSize: 0x0 }
  - { offsetInCU: 0x67A1, offset: 0x4001B, size: 0x8, addend: 0x0, symName: _.str.364, symObjAddr: 0x9060, symBinAddr: 0x1004B3C80, symSize: 0x0 }
  - { offsetInCU: 0x67B3, offset: 0x4002D, size: 0x8, addend: 0x0, symName: _.str.365, symObjAddr: 0x9080, symBinAddr: 0x1004B3CA0, symSize: 0x0 }
  - { offsetInCU: 0x67C5, offset: 0x4003F, size: 0x8, addend: 0x0, symName: _.str.366, symObjAddr: 0x90A0, symBinAddr: 0x1004B3CC0, symSize: 0x0 }
  - { offsetInCU: 0x67D7, offset: 0x40051, size: 0x8, addend: 0x0, symName: _.str.367, symObjAddr: 0x90E0, symBinAddr: 0x1004B3D00, symSize: 0x0 }
  - { offsetInCU: 0x67E9, offset: 0x40063, size: 0x8, addend: 0x0, symName: _.str.368, symObjAddr: 0x9120, symBinAddr: 0x1004B3D40, symSize: 0x0 }
  - { offsetInCU: 0x67FB, offset: 0x40075, size: 0x8, addend: 0x0, symName: _.str.369, symObjAddr: 0x9160, symBinAddr: 0x1004B3D80, symSize: 0x0 }
  - { offsetInCU: 0x680D, offset: 0x40087, size: 0x8, addend: 0x0, symName: _.str.370, symObjAddr: 0x91A0, symBinAddr: 0x1004B3DC0, symSize: 0x0 }
  - { offsetInCU: 0x681F, offset: 0x40099, size: 0x8, addend: 0x0, symName: _.str.371, symObjAddr: 0x91E0, symBinAddr: 0x1004B3E00, symSize: 0x0 }
  - { offsetInCU: 0x6831, offset: 0x400AB, size: 0x8, addend: 0x0, symName: _.str.372, symObjAddr: 0x9220, symBinAddr: 0x1004B3E40, symSize: 0x0 }
  - { offsetInCU: 0x6843, offset: 0x400BD, size: 0x8, addend: 0x0, symName: _.str.373, symObjAddr: 0x9260, symBinAddr: 0x1004B3E80, symSize: 0x0 }
  - { offsetInCU: 0x6855, offset: 0x400CF, size: 0x8, addend: 0x0, symName: _.str.374, symObjAddr: 0x92A0, symBinAddr: 0x1004B3EC0, symSize: 0x0 }
  - { offsetInCU: 0x6867, offset: 0x400E1, size: 0x8, addend: 0x0, symName: _.str.375, symObjAddr: 0x92C0, symBinAddr: 0x1004B3EE0, symSize: 0x0 }
  - { offsetInCU: 0x6879, offset: 0x400F3, size: 0x8, addend: 0x0, symName: _.str.376, symObjAddr: 0x92E0, symBinAddr: 0x1004B3F00, symSize: 0x0 }
  - { offsetInCU: 0x688B, offset: 0x40105, size: 0x8, addend: 0x0, symName: _.str.377, symObjAddr: 0x9300, symBinAddr: 0x1004B3F20, symSize: 0x0 }
  - { offsetInCU: 0x689D, offset: 0x40117, size: 0x8, addend: 0x0, symName: _.str.378, symObjAddr: 0x9320, symBinAddr: 0x1004B3F40, symSize: 0x0 }
  - { offsetInCU: 0x68AF, offset: 0x40129, size: 0x8, addend: 0x0, symName: _.str.379, symObjAddr: 0x9340, symBinAddr: 0x1004B3F60, symSize: 0x0 }
  - { offsetInCU: 0x68C1, offset: 0x4013B, size: 0x8, addend: 0x0, symName: _.str.380, symObjAddr: 0x9360, symBinAddr: 0x1004B3F80, symSize: 0x0 }
  - { offsetInCU: 0x68D3, offset: 0x4014D, size: 0x8, addend: 0x0, symName: _.str.381, symObjAddr: 0x93A0, symBinAddr: 0x1004B3FC0, symSize: 0x0 }
  - { offsetInCU: 0x68E8, offset: 0x40162, size: 0x8, addend: 0x0, symName: __ZL4exts, symObjAddr: 0x32DE0, symBinAddr: 0x100603F60, symSize: 0x0 }
  - { offsetInCU: 0x6901, offset: 0x4017B, size: 0x8, addend: 0x0, symName: __ZL10num_exts_i, symObjAddr: 0x32E00, symBinAddr: 0x100603F80, symSize: 0x0 }
  - { offsetInCU: 0x691A, offset: 0x40194, size: 0x8, addend: 0x0, symName: __ZL6exts_i, symObjAddr: 0x32E20, symBinAddr: 0x100603FA0, symSize: 0x0 }
  - { offsetInCU: 0x694E, offset: 0x401C8, size: 0x8, addend: 0x0, symName: _gladLoadGL, symObjAddr: 0x0, symBinAddr: 0x1000230A4, symSize: 0x4C }
  - { offsetInCU: 0x6977, offset: 0x401F1, size: 0x8, addend: 0x0, symName: _gladLoadGLLoader, symObjAddr: 0x13C, symBinAddr: 0x1000231E0, symSize: 0x15C }
  - { offsetInCU: 0x69A2, offset: 0x4021C, size: 0x8, addend: 0x0, symName: __ZL8get_procPKc, symObjAddr: 0x298, symBinAddr: 0x10002333C, symSize: 0x8C }
  - { offsetInCU: 0x69DD, offset: 0x40257, size: 0x8, addend: 0x0, symName: __ZL8close_glv, symObjAddr: 0x324, symBinAddr: 0x1000233C8, symSize: 0x4C }
  - { offsetInCU: 0x69F7, offset: 0x40271, size: 0x8, addend: 0x0, symName: __ZL11find_coreGLv, symObjAddr: 0x370, symBinAddr: 0x100023414, symSize: 0x15E0 }
  - { offsetInCU: 0x6A83, offset: 0x402FD, size: 0x8, addend: 0x0, symName: __ZL19load_GL_VERSION_1_0PFPvPKcE, symObjAddr: 0x1950, symBinAddr: 0x1000249F4, symSize: 0x4BC }
  - { offsetInCU: 0x6AAE, offset: 0x40328, size: 0x8, addend: 0x0, symName: __ZL19load_GL_VERSION_1_1PFPvPKcE, symObjAddr: 0x1E0C, symBinAddr: 0x100024EB0, symSize: 0x174 }
  - { offsetInCU: 0x6AD9, offset: 0x40353, size: 0x8, addend: 0x0, symName: __ZL19load_GL_VERSION_1_2PFPvPKcE, symObjAddr: 0x1F80, symBinAddr: 0x100025024, symSize: 0x9C }
  - { offsetInCU: 0x6B04, offset: 0x4037E, size: 0x8, addend: 0x0, symName: __ZL19load_GL_VERSION_1_3PFPvPKcE, symObjAddr: 0x201C, symBinAddr: 0x1000250C0, symSize: 0x114 }
  - { offsetInCU: 0x6B2F, offset: 0x403A9, size: 0x8, addend: 0x0, symName: __ZL19load_GL_VERSION_1_4PFPvPKcE, symObjAddr: 0x2130, symBinAddr: 0x1000251D4, symSize: 0x114 }
  - { offsetInCU: 0x6B5A, offset: 0x403D4, size: 0x8, addend: 0x0, symName: __ZL19load_GL_VERSION_1_5PFPvPKcE, symObjAddr: 0x2244, symBinAddr: 0x1000252E8, symSize: 0x204 }
  - { offsetInCU: 0x6B85, offset: 0x403FF, size: 0x8, addend: 0x0, symName: __ZL19load_GL_VERSION_2_0PFPvPKcE, symObjAddr: 0x2448, symBinAddr: 0x1000254EC, symSize: 0x8F4 }
  - { offsetInCU: 0x6BB0, offset: 0x4042A, size: 0x8, addend: 0x0, symName: __ZL19load_GL_VERSION_2_1PFPvPKcE, symObjAddr: 0x2D3C, symBinAddr: 0x100025DE0, symSize: 0xCC }
  - { offsetInCU: 0x6BDB, offset: 0x40455, size: 0x8, addend: 0x0, symName: __ZL19load_GL_VERSION_3_0PFPvPKcE, symObjAddr: 0x2E08, symBinAddr: 0x100025EAC, symSize: 0x81C }
  - { offsetInCU: 0x6C06, offset: 0x40480, size: 0x8, addend: 0x0, symName: __ZL19load_GL_VERSION_3_1PFPvPKcE, symObjAddr: 0x3624, symBinAddr: 0x1000266C8, symSize: 0x1A4 }
  - { offsetInCU: 0x6C31, offset: 0x404AB, size: 0x8, addend: 0x0, symName: __ZL19load_GL_VERSION_3_2PFPvPKcE, symObjAddr: 0x37C8, symBinAddr: 0x10002686C, symSize: 0x204 }
  - { offsetInCU: 0x6C5C, offset: 0x404D6, size: 0x8, addend: 0x0, symName: __ZL19load_GL_VERSION_3_3PFPvPKcE, symObjAddr: 0x39CC, symBinAddr: 0x100026A70, symSize: 0x5AC }
  - { offsetInCU: 0x6C87, offset: 0x40501, size: 0x8, addend: 0x0, symName: __ZL17find_extensionsGLv, symObjAddr: 0x3F78, symBinAddr: 0x10002701C, symSize: 0x48 }
  - { offsetInCU: 0x6CA6, offset: 0x40520, size: 0x8, addend: 0x0, symName: __ZL8get_extsv, symObjAddr: 0x3FC0, symBinAddr: 0x100027064, symSize: 0x204 }
  - { offsetInCU: 0x6D19, offset: 0x40593, size: 0x8, addend: 0x0, symName: __ZL7has_extPKc, symObjAddr: 0x41C4, symBinAddr: 0x100027268, symSize: 0x3E8 }
  - { offsetInCU: 0x6DAF, offset: 0x40629, size: 0x8, addend: 0x0, symName: __ZL9free_extsv, symObjAddr: 0x45AC, symBinAddr: 0x100027650, symSize: 0xE0 }
  - { offsetInCU: 0x6DE6, offset: 0x40660, size: 0x8, addend: 0x0, symName: __Z6strstrB8ue170006Ua9enable_ifIXLb1EEEPKcS0_, symObjAddr: 0x468C, symBinAddr: 0x100027730, symSize: 0x2C }
  - { offsetInCU: 0x3F, offset: 0x406FA, size: 0x8, addend: 0x0, symName: __ZL13cube_vertices, symObjAddr: 0x12D720, symBinAddr: 0x100603FC0, symSize: 0x0 }
  - { offsetInCU: 0x439B, offset: 0x44A56, size: 0x8, addend: 0x0, symName: __ZNSt3__111make_uniqueB8ue170006I3AppJRA15_KcEEENS_11__unique_ifIT_E15__unique_singleEDpOT0_, symObjAddr: 0x780, symBinAddr: 0x100027A8C, symSize: 0x34C }
  - { offsetInCU: 0x43DE, offset: 0x44A99, size: 0x8, addend: 0x0, symName: __ZNSt3__118__constexpr_strlenB8ue170006EPKc, symObjAddr: 0xC214, symBinAddr: 0x100028220, symSize: 0x24 }
  - { offsetInCU: 0x44CD, offset: 0x44B88, size: 0x8, addend: 0x0, symName: __ZL15square_vertices, symObjAddr: 0x12D760, symBinAddr: 0x100604000, symSize: 0x0 }
  - { offsetInCU: 0x44E6, offset: 0x44BA1, size: 0x8, addend: 0x0, symName: __ZL14square_indices, symObjAddr: 0x12D7A0, symBinAddr: 0x100604040, symSize: 0x0 }
  - { offsetInCU: 0x4575, offset: 0x44C30, size: 0x8, addend: 0x0, symName: _.str, symObjAddr: 0x22680, symBinAddr: 0x1004B4000, symSize: 0x0 }
  - { offsetInCU: 0x45A7, offset: 0x44C62, size: 0x8, addend: 0x0, symName: _.str.5, symObjAddr: 0x226A0, symBinAddr: 0x1004B4020, symSize: 0x0 }
  - { offsetInCU: 0x6674, offset: 0x46D2F, size: 0x8, addend: 0x0, symName: _main, symObjAddr: 0x4E8, symBinAddr: 0x1000277F4, symSize: 0x298 }
  - { offsetInCU: 0x66A1, offset: 0x46D5C, size: 0x8, addend: 0x0, symName: __ZNKSt3__110unique_ptrI3AppNS_14default_deleteIS1_EEEptB8ue170006Ev, symObjAddr: 0xACC, symBinAddr: 0x100027DD8, symSize: 0x6C }
  - { offsetInCU: 0x66C7, offset: 0x46D82, size: 0x8, addend: 0x0, symName: __ZNSt3__110unique_ptrI3AppNS_14default_deleteIS1_EEED1B8ue170006Ev, symObjAddr: 0xB38, symBinAddr: 0x100027E44, symSize: 0x2C }
  - { offsetInCU: 0x672D, offset: 0x46DE8, size: 0x8, addend: 0x0, symName: __ZNSt3__112basic_stringIcNS_11char_traitsIcEENS_9allocatorIcEEEC1B8ue170006ILi0EEEPKc, symObjAddr: 0xBE64, symBinAddr: 0x100027E70, symSize: 0x34 }
  - { offsetInCU: 0x676C, offset: 0x46E27, size: 0x8, addend: 0x0, symName: __ZNSt3__110unique_ptrI3AppNS_14default_deleteIS1_EEEC1B8ue170006ILb1EvEEPS1_, symObjAddr: 0xBE98, symBinAddr: 0x100027EA4, symSize: 0x34 }
  - { offsetInCU: 0x67AF, offset: 0x46E6A, size: 0x8, addend: 0x0, symName: __ZNSt3__112basic_stringIcNS_11char_traitsIcEENS_9allocatorIcEEEC2B8ue170006ILi0EEEPKc, symObjAddr: 0xBECC, symBinAddr: 0x100027ED8, symSize: 0x210 }
  - { offsetInCU: 0x67F0, offset: 0x46EAB, size: 0x8, addend: 0x0, symName: __ZNSt3__117__compressed_pairINS_12basic_stringIcNS_11char_traitsIcEENS_9allocatorIcEEE5__repES5_EC1B8ue170006INS_18__default_init_tagESA_EEOT_OT0_, symObjAddr: 0xC0DC, symBinAddr: 0x1000280E8, symSize: 0x3C }
  - { offsetInCU: 0x6848, offset: 0x46F03, size: 0x8, addend: 0x0, symName: __ZNSt3__111char_traitsIcE6lengthB8ue170006EPKc, symObjAddr: 0xC118, symBinAddr: 0x100028124, symSize: 0x40 }
  - { offsetInCU: 0x686B, offset: 0x46F26, size: 0x8, addend: 0x0, symName: __ZNSt3__117__compressed_pairINS_12basic_stringIcNS_11char_traitsIcEENS_9allocatorIcEEE5__repES5_EC2B8ue170006INS_18__default_init_tagESA_EEOT_OT0_, symObjAddr: 0xC158, symBinAddr: 0x100028164, symSize: 0x3C }
  - { offsetInCU: 0x68C3, offset: 0x46F7E, size: 0x8, addend: 0x0, symName: __ZNSt3__122__compressed_pair_elemINS_12basic_stringIcNS_11char_traitsIcEENS_9allocatorIcEEE5__repELi0ELb0EEC2B8ue170006ENS_18__default_init_tagE, symObjAddr: 0xC194, symBinAddr: 0x1000281A0, symSize: 0x14 }
  - { offsetInCU: 0x68F8, offset: 0x46FB3, size: 0x8, addend: 0x0, symName: __ZNSt3__122__compressed_pair_elemINS_9allocatorIcEELi1ELb1EEC2B8ue170006ENS_18__default_init_tagE, symObjAddr: 0xC1A8, symBinAddr: 0x1000281B4, symSize: 0x2C }
  - { offsetInCU: 0x692D, offset: 0x46FE8, size: 0x8, addend: 0x0, symName: __ZNSt3__19allocatorIcEC2B8ue170006Ev, symObjAddr: 0xC1D4, symBinAddr: 0x1000281E0, symSize: 0x2C }
  - { offsetInCU: 0x6957, offset: 0x47012, size: 0x8, addend: 0x0, symName: __ZNSt3__116__non_trivial_ifILb1ENS_9allocatorIcEEEC2B8ue170006Ev, symObjAddr: 0xC200, symBinAddr: 0x10002820C, symSize: 0x14 }
  - { offsetInCU: 0x6981, offset: 0x4703C, size: 0x8, addend: 0x0, symName: __ZNSt3__110unique_ptrI3AppNS_14default_deleteIS1_EEEC2B8ue170006ILb1EvEEPS1_, symObjAddr: 0xC238, symBinAddr: 0x100028244, symSize: 0x260 }
  - { offsetInCU: 0x69CE, offset: 0x47089, size: 0x8, addend: 0x0, symName: __ZNSt3__117__compressed_pairIP3AppNS_14default_deleteIS1_EEEC1B8ue170006IRS2_NS_16__value_init_tagEEEOT_OT0_, symObjAddr: 0xC498, symBinAddr: 0x1000284A4, symSize: 0x3C }
  - { offsetInCU: 0x6A26, offset: 0x470E1, size: 0x8, addend: 0x0, symName: __ZNSt3__117__compressed_pairIP3AppNS_14default_deleteIS1_EEEC2B8ue170006IRS2_NS_16__value_init_tagEEEOT_OT0_, symObjAddr: 0xC4D4, symBinAddr: 0x1000284E0, symSize: 0x40 }
  - { offsetInCU: 0x6A7E, offset: 0x47139, size: 0x8, addend: 0x0, symName: __ZNSt3__122__compressed_pair_elemIP3AppLi0ELb0EEC2B8ue170006IRS2_vEEOT_, symObjAddr: 0xC514, symBinAddr: 0x100028520, symSize: 0xB0 }
  - { offsetInCU: 0x6AC0, offset: 0x4717B, size: 0x8, addend: 0x0, symName: __ZNSt3__122__compressed_pair_elemINS_14default_deleteI3AppEELi1ELb1EEC2B8ue170006ENS_16__value_init_tagE, symObjAddr: 0xC5C4, symBinAddr: 0x1000285D0, symSize: 0x14 }
  - { offsetInCU: 0x6AF5, offset: 0x471B0, size: 0x8, addend: 0x0, symName: __ZNSt3__110unique_ptrI3AppNS_14default_deleteIS1_EEED2B8ue170006Ev, symObjAddr: 0xC5D8, symBinAddr: 0x1000285E4, symSize: 0x30 }
  - { offsetInCU: 0x6B1F, offset: 0x471DA, size: 0x8, addend: 0x0, symName: __ZNSt3__110unique_ptrI3AppNS_14default_deleteIS1_EEE5resetB8ue170006EPS1_, symObjAddr: 0xC608, symBinAddr: 0x100028614, symSize: 0xEC }
  - { offsetInCU: 0x6B63, offset: 0x4721E, size: 0x8, addend: 0x0, symName: __ZNSt3__117__compressed_pairIP3AppNS_14default_deleteIS1_EEE5firstB8ue170006Ev, symObjAddr: 0xC6F4, symBinAddr: 0x100028700, symSize: 0x24 }
  - { offsetInCU: 0x6B89, offset: 0x47244, size: 0x8, addend: 0x0, symName: __ZNSt3__117__compressed_pairIP3AppNS_14default_deleteIS1_EEE6secondB8ue170006Ev, symObjAddr: 0xC718, symBinAddr: 0x100028724, symSize: 0x24 }
  - { offsetInCU: 0x6BAF, offset: 0x4726A, size: 0x8, addend: 0x0, symName: __ZNKSt3__114default_deleteI3AppEclB8ue170006EPS1_, symObjAddr: 0xC73C, symBinAddr: 0x100028748, symSize: 0x4C }
  - { offsetInCU: 0x6BE3, offset: 0x4729E, size: 0x8, addend: 0x0, symName: __ZNSt3__122__compressed_pair_elemIP3AppLi0ELb0EE5__getB8ue170006Ev, symObjAddr: 0xC788, symBinAddr: 0x100028794, symSize: 0x14 }
  - { offsetInCU: 0x6C09, offset: 0x472C4, size: 0x8, addend: 0x0, symName: __ZNSt3__122__compressed_pair_elemINS_14default_deleteI3AppEELi1ELb1EE5__getB8ue170006Ev, symObjAddr: 0xC79C, symBinAddr: 0x1000287A8, symSize: 0x14 }
  - { offsetInCU: 0x6C2F, offset: 0x472EA, size: 0x8, addend: 0x0, symName: __ZN3AppD1Ev, symObjAddr: 0xC7B0, symBinAddr: 0x1000287BC, symSize: 0x2C }
  - { offsetInCU: 0x6C5B, offset: 0x47316, size: 0x8, addend: 0x0, symName: __ZN3AppD2Ev, symObjAddr: 0xC7DC, symBinAddr: 0x1000287E8, symSize: 0x2C }
  - { offsetInCU: 0x6C87, offset: 0x47342, size: 0x8, addend: 0x0, symName: __ZNKSt3__117__compressed_pairIP3AppNS_14default_deleteIS1_EEE5firstB8ue170006Ev, symObjAddr: 0x20E20, symBinAddr: 0x100028814, symSize: 0x24 }
  - { offsetInCU: 0x6CAD, offset: 0x47368, size: 0x8, addend: 0x0, symName: __ZNKSt3__122__compressed_pair_elemIP3AppLi0ELb0EE5__getB8ue170006Ev, symObjAddr: 0x20E44, symBinAddr: 0x100028838, symSize: 0x14 }
  - { offsetInCU: 0x3F, offset: 0x47405, size: 0x8, addend: 0x0, symName: __ZL13cube_vertices, symObjAddr: 0x137E20, symBinAddr: 0x100604080, symSize: 0x0 }
  - { offsetInCU: 0x404A, offset: 0x4B410, size: 0x8, addend: 0x0, symName: __ZNSt3__124__put_character_sequenceB8ue170006IcNS_11char_traitsIcEEEERNS_13basic_ostreamIT_T0_EES7_PKS4_m, symObjAddr: 0xDEEC, symBinAddr: 0x10002B778, symSize: 0x744 }
  - { offsetInCU: 0x5D5F, offset: 0x4D125, size: 0x8, addend: 0x0, symName: __ZNSt3__1lsB8ue170006INS_11char_traitsIcEEEERNS_13basic_ostreamIcT_EES6_PKc, symObjAddr: 0xA50, symBinAddr: 0x100029780, symSize: 0x48 }
  - { offsetInCU: 0x5DA5, offset: 0x4D16B, size: 0x8, addend: 0x0, symName: __ZNSt3__14endlB8ue170006IcNS_11char_traitsIcEEEERNS_13basic_ostreamIT_T0_EES7_, symObjAddr: 0xAC4, symBinAddr: 0x1000297F4, symSize: 0xD4 }
  - { offsetInCU: 0x5DE5, offset: 0x4D1AB, size: 0x8, addend: 0x0, symName: __ZNSt3__111make_uniqueB8ue170006I8SContextJbEEENS_11__unique_ifIT_E15__unique_singleEDpOT0_, symObjAddr: 0x17C8, symBinAddr: 0x10002A4F8, symSize: 0xE0 }
  - { offsetInCU: 0x5E27, offset: 0x4D1ED, size: 0x8, addend: 0x0, symName: __ZNSt3__116__pad_and_outputB8ue170006IcNS_11char_traitsIcEEEENS_19ostreambuf_iteratorIT_T0_EES6_PKS4_S8_S8_RNS_8ios_baseES4_, symObjAddr: 0xE6F8, symBinAddr: 0x10002BF44, symSize: 0x760 }
  - { offsetInCU: 0x5F05, offset: 0x4D2CB, size: 0x8, addend: 0x0, symName: __ZNSt3__112__to_addressB8ue170006IcEEPT_S2_, symObjAddr: 0xF594, symBinAddr: 0x10002CDE0, symSize: 0x14 }
  - { offsetInCU: 0x5F6D, offset: 0x4D333, size: 0x8, addend: 0x0, symName: __ZNSt3__19use_facetB8ue170006INS_5ctypeIcEEEERKT_RKNS_6localeE, symObjAddr: 0xFBE8, symBinAddr: 0x10002D358, symSize: 0x2C }
  - { offsetInCU: 0x6507, offset: 0x4D8CD, size: 0x8, addend: 0x0, symName: __ZL15square_vertices, symObjAddr: 0x137E60, symBinAddr: 0x1006040C0, symSize: 0x0 }
  - { offsetInCU: 0x6520, offset: 0x4D8E6, size: 0x8, addend: 0x0, symName: __ZL14square_indices, symObjAddr: 0x137EA0, symBinAddr: 0x100604100, symSize: 0x0 }
  - { offsetInCU: 0x65AF, offset: 0x4D975, size: 0x8, addend: 0x0, symName: _.str, symObjAddr: 0x25D80, symBinAddr: 0x1004B4040, symSize: 0x0 }
  - { offsetInCU: 0x65E0, offset: 0x4D9A6, size: 0x8, addend: 0x0, symName: _.str.5, symObjAddr: 0x25DC0, symBinAddr: 0x1004B4080, symSize: 0x0 }
  - { offsetInCU: 0x65FE, offset: 0x4D9C4, size: 0x8, addend: 0x0, symName: _.str.6, symObjAddr: 0x25E00, symBinAddr: 0x1004B40C0, symSize: 0x0 }
  - { offsetInCU: 0x6610, offset: 0x4D9D6, size: 0x8, addend: 0x0, symName: _.str.7, symObjAddr: 0x25E40, symBinAddr: 0x1004B4100, symSize: 0x0 }
  - { offsetInCU: 0x6622, offset: 0x4D9E8, size: 0x8, addend: 0x0, symName: _.str.8, symObjAddr: 0x25E80, symBinAddr: 0x1004B4140, symSize: 0x0 }
  - { offsetInCU: 0x6634, offset: 0x4D9FA, size: 0x8, addend: 0x0, symName: _.str.9, symObjAddr: 0x25EC0, symBinAddr: 0x1004B4180, symSize: 0x0 }
  - { offsetInCU: 0x6653, offset: 0x4DA19, size: 0x8, addend: 0x0, symName: _.str.10, symObjAddr: 0x25F20, symBinAddr: 0x1004B41E0, symSize: 0x0 }
  - { offsetInCU: 0x8B09, offset: 0x4FECF, size: 0x8, addend: 0x0, symName: __ZN7SWindow14HandleKeyInputEiiii, symObjAddr: 0x4E8, symBinAddr: 0x100029218, symSize: 0x568 }
  - { offsetInCU: 0x8B69, offset: 0x4FF2F, size: 0x8, addend: 0x0, symName: __ZNSt3__113basic_ostreamIcNS_11char_traitsIcEEElsB8ue170006EPFRS3_S4_E, symObjAddr: 0xA98, symBinAddr: 0x1000297C8, symSize: 0x2C }
  - { offsetInCU: 0x8B9D, offset: 0x4FF63, size: 0x8, addend: 0x0, symName: __ZN7SWindow18HandleWindowResizeEii, symObjAddr: 0xB98, symBinAddr: 0x1000298C8, symSize: 0xE0 }
  - { offsetInCU: 0x8BE1, offset: 0x4FFA7, size: 0x8, addend: 0x0, symName: __ZNKSt3__110unique_ptrI8SContextNS_14default_deleteIS1_EEEptB8ue170006Ev, symObjAddr: 0xC78, symBinAddr: 0x1000299A8, symSize: 0x6C }
  - { offsetInCU: 0x8C07, offset: 0x4FFCD, size: 0x8, addend: 0x0, symName: __ZN7SWindowC2Ev, symObjAddr: 0xCE4, symBinAddr: 0x100029A14, symSize: 0x514 }
  - { offsetInCU: 0x8C34, offset: 0x4FFFA, size: 0x8, addend: 0x0, symName: __ZN7UWindowC2Ev, symObjAddr: 0x11F8, symBinAddr: 0x100029F28, symSize: 0x5A4 }
  - { offsetInCU: 0x8C61, offset: 0x50027, size: 0x8, addend: 0x0, symName: __ZNSt3__110unique_ptrI8SContextNS_14default_deleteIS1_EEEC1B8ue170006ILb1EvEEv, symObjAddr: 0x179C, symBinAddr: 0x10002A4CC, symSize: 0x2C }
  - { offsetInCU: 0x8C96, offset: 0x5005C, size: 0x8, addend: 0x0, symName: __ZNSt3__110unique_ptrI8SContextNS_14default_deleteIS1_EEEaSB8ue170006EOS4_, symObjAddr: 0x18A8, symBinAddr: 0x10002A5D8, symSize: 0x50 }
  - { offsetInCU: 0x8CCA, offset: 0x50090, size: 0x8, addend: 0x0, symName: __ZN7SWindowC1Ev, symObjAddr: 0x19A4, symBinAddr: 0x10002A628, symSize: 0x2C }
  - { offsetInCU: 0x8CF6, offset: 0x500BC, size: 0x8, addend: 0x0, symName: __ZN7SWindow4initEiiRKNSt3__112basic_stringIcNS0_11char_traitsIcEENS0_9allocatorIcEEEE, symObjAddr: 0x19D0, symBinAddr: 0x10002A654, symSize: 0x350 }
  - { offsetInCU: 0x8D48, offset: 0x5010E, size: 0x8, addend: 0x0, symName: __ZN7SWindow6renderEv, symObjAddr: 0x1D20, symBinAddr: 0x10002A9A4, symSize: 0x3B4 }
  - { offsetInCU: 0x8D7E, offset: 0x50144, size: 0x8, addend: 0x0, symName: __ZN7SWindow15GetNativeWindowEv, symObjAddr: 0x20D4, symBinAddr: 0x10002AD58, symSize: 0x64 }
  - { offsetInCU: 0x8DA4, offset: 0x5016A, size: 0x8, addend: 0x0, symName: __ZN7SWindow15SetNativeWindowEPv, symObjAddr: 0x2138, symBinAddr: 0x10002ADBC, symSize: 0x74 }
  - { offsetInCU: 0x8DD8, offset: 0x5019E, size: 0x8, addend: 0x0, symName: __ZNSt3__112basic_stringIcNS_11char_traitsIcEENS_9allocatorIcEEEC1B8ue170006Ev, symObjAddr: 0x21AC, symBinAddr: 0x10002AE30, symSize: 0x2C }
  - { offsetInCU: 0x8E02, offset: 0x501C8, size: 0x8, addend: 0x0, symName: __ZN3glm3vecILi3EfLNS_9qualifierE0EEC1Efff, symObjAddr: 0x21D8, symBinAddr: 0x10002AE5C, symSize: 0x44 }
  - { offsetInCU: 0x8E58, offset: 0x5021E, size: 0x8, addend: 0x0, symName: __ZNSt3__112basic_stringIcNS_11char_traitsIcEENS_9allocatorIcEEEC2B8ue170006Ev, symObjAddr: 0x221C, symBinAddr: 0x10002AEA0, symSize: 0x20C }
  - { offsetInCU: 0x8E83, offset: 0x50249, size: 0x8, addend: 0x0, symName: __ZNSt3__112basic_stringIcNS_11char_traitsIcEENS_9allocatorIcEEE14__default_initB8ue170006Ev, symObjAddr: 0x2470, symBinAddr: 0x10002B0AC, symSize: 0x22C }
  - { offsetInCU: 0x8EAA, offset: 0x50270, size: 0x8, addend: 0x0, symName: __ZNSt3__117__compressed_pairINS_12basic_stringIcNS_11char_traitsIcEENS_9allocatorIcEEE5__repES5_E5firstB8ue170006Ev, symObjAddr: 0x2758, symBinAddr: 0x10002B2D8, symSize: 0x24 }
  - { offsetInCU: 0x8ED0, offset: 0x50296, size: 0x8, addend: 0x0, symName: __ZNSt3__122__compressed_pair_elemINS_12basic_stringIcNS_11char_traitsIcEENS_9allocatorIcEEE5__repELi0ELb0EE5__getB8ue170006Ev, symObjAddr: 0x277C, symBinAddr: 0x10002B2FC, symSize: 0x14 }
  - { offsetInCU: 0x8EF6, offset: 0x502BC, size: 0x8, addend: 0x0, symName: __ZN3glm3vecILi3EfLNS_9qualifierE0EEC2Efff, symObjAddr: 0x2790, symBinAddr: 0x10002B310, symSize: 0x17C }
  - { offsetInCU: 0x8F4C, offset: 0x50312, size: 0x8, addend: 0x0, symName: __ZNSt3__110unique_ptrI8SContextNS_14default_deleteIS1_EEEC2B8ue170006ILb1EvEEv, symObjAddr: 0x290C, symBinAddr: 0x10002B48C, symSize: 0x200 }
  - { offsetInCU: 0x8F87, offset: 0x5034D, size: 0x8, addend: 0x0, symName: __ZNSt3__117__compressed_pairIP8SContextNS_14default_deleteIS1_EEEC1B8ue170006INS_16__value_init_tagES7_EEOT_OT0_, symObjAddr: 0x2B0C, symBinAddr: 0x10002B68C, symSize: 0x3C }
  - { offsetInCU: 0x8FDF, offset: 0x503A5, size: 0x8, addend: 0x0, symName: __ZNSt3__117__compressed_pairIP8SContextNS_14default_deleteIS1_EEEC2B8ue170006INS_16__value_init_tagES7_EEOT_OT0_, symObjAddr: 0x2B48, symBinAddr: 0x10002B6C8, symSize: 0x3C }
  - { offsetInCU: 0x9037, offset: 0x503FD, size: 0x8, addend: 0x0, symName: __ZNSt3__122__compressed_pair_elemIP8SContextLi0ELb0EEC2B8ue170006ENS_16__value_init_tagE, symObjAddr: 0x2B84, symBinAddr: 0x10002B704, symSize: 0x60 }
  - { offsetInCU: 0x906C, offset: 0x50432, size: 0x8, addend: 0x0, symName: __ZNSt3__122__compressed_pair_elemINS_14default_deleteI8SContextEELi1ELb1EEC2B8ue170006ENS_16__value_init_tagE, symObjAddr: 0x2BE4, symBinAddr: 0x10002B764, symSize: 0x14 }
  - { offsetInCU: 0x90F1, offset: 0x504B7, size: 0x8, addend: 0x0, symName: __ZNKSt3__113basic_ostreamIcNS_11char_traitsIcEEE6sentrycvbB8ue170006Ev, symObjAddr: 0xE670, symBinAddr: 0x10002BEBC, symSize: 0x88 }
  - { offsetInCU: 0x9117, offset: 0x504DD, size: 0x8, addend: 0x0, symName: __ZNSt3__119ostreambuf_iteratorIcNS_11char_traitsIcEEEC1B8ue170006ERNS_13basic_ostreamIcS2_EE, symObjAddr: 0xEE58, symBinAddr: 0x10002C6A4, symSize: 0x34 }
  - { offsetInCU: 0x914F, offset: 0x50515, size: 0x8, addend: 0x0, symName: __ZNKSt3__18ios_base5flagsB8ue170006Ev, symObjAddr: 0xEE8C, symBinAddr: 0x10002C6D8, symSize: 0x8C }
  - { offsetInCU: 0x9177, offset: 0x5053D, size: 0x8, addend: 0x0, symName: __ZNKSt3__19basic_iosIcNS_11char_traitsIcEEE4fillB8ue170006Ev, symObjAddr: 0xEF18, symBinAddr: 0x10002C764, symSize: 0x198 }
  - { offsetInCU: 0x919F, offset: 0x50565, size: 0x8, addend: 0x0, symName: __ZNKSt3__119ostreambuf_iteratorIcNS_11char_traitsIcEEE6failedB8ue170006Ev, symObjAddr: 0xF0B0, symBinAddr: 0x10002C8FC, symSize: 0x6C }
  - { offsetInCU: 0x91C5, offset: 0x5058B, size: 0x8, addend: 0x0, symName: __ZNSt3__19basic_iosIcNS_11char_traitsIcEEE8setstateB8ue170006Ej, symObjAddr: 0xF11C, symBinAddr: 0x10002C968, symSize: 0x2C }
  - { offsetInCU: 0x91FA, offset: 0x505C0, size: 0x8, addend: 0x0, symName: __ZNKSt3__18ios_base5widthB8ue170006Ev, symObjAddr: 0xF148, symBinAddr: 0x10002C994, symSize: 0x64 }
  - { offsetInCU: 0x9222, offset: 0x505E8, size: 0x8, addend: 0x0, symName: __ZNSt3__115basic_streambufIcNS_11char_traitsIcEEE5sputnB8ue170006EPKcl, symObjAddr: 0xF1AC, symBinAddr: 0x10002C9F8, symSize: 0xC8 }
  - { offsetInCU: 0x9264, offset: 0x5062A, size: 0x8, addend: 0x0, symName: __ZNSt3__112basic_stringIcNS_11char_traitsIcEENS_9allocatorIcEEEC1B8ue170006Emc, symObjAddr: 0xF274, symBinAddr: 0x10002CAC0, symSize: 0x3C }
  - { offsetInCU: 0x92AC, offset: 0x50672, size: 0x8, addend: 0x0, symName: __ZNSt3__112basic_stringIcNS_11char_traitsIcEENS_9allocatorIcEEE4dataB8ue170006Ev, symObjAddr: 0xF2B0, symBinAddr: 0x10002CAFC, symSize: 0x28 }
  - { offsetInCU: 0x92D2, offset: 0x50698, size: 0x8, addend: 0x0, symName: __ZNSt3__18ios_base5widthB8ue170006El, symObjAddr: 0xF2D8, symBinAddr: 0x10002CB24, symSize: 0xB8 }
  - { offsetInCU: 0x9318, offset: 0x506DE, size: 0x8, addend: 0x0, symName: __ZNSt3__112basic_stringIcNS_11char_traitsIcEENS_9allocatorIcEEEC2B8ue170006Emc, symObjAddr: 0xF390, symBinAddr: 0x10002CBDC, symSize: 0x204 }
  - { offsetInCU: 0x9363, offset: 0x50729, size: 0x8, addend: 0x0, symName: __ZNSt3__112basic_stringIcNS_11char_traitsIcEENS_9allocatorIcEEE13__get_pointerB8ue170006Ev, symObjAddr: 0xF5A8, symBinAddr: 0x10002CDF4, symSize: 0x54 }
  - { offsetInCU: 0x9389, offset: 0x5074F, size: 0x8, addend: 0x0, symName: __ZNSt3__112basic_stringIcNS_11char_traitsIcEENS_9allocatorIcEEE18__get_long_pointerB8ue170006Ev, symObjAddr: 0xF6A0, symBinAddr: 0x10002CE48, symSize: 0x6C }
  - { offsetInCU: 0x93AF, offset: 0x50775, size: 0x8, addend: 0x0, symName: __ZNSt3__112basic_stringIcNS_11char_traitsIcEENS_9allocatorIcEEE19__get_short_pointerB8ue170006Ev, symObjAddr: 0xF70C, symBinAddr: 0x10002CEB4, symSize: 0x28 }
  - { offsetInCU: 0x93D5, offset: 0x5079B, size: 0x8, addend: 0x0, symName: __ZNSt3__114pointer_traitsIPcE10pointer_toB8ue170006ERc, symObjAddr: 0xF76C, symBinAddr: 0x10002CEDC, symSize: 0x14 }
  - { offsetInCU: 0x93F8, offset: 0x507BE, size: 0x8, addend: 0x0, symName: __ZNSt3__119ostreambuf_iteratorIcNS_11char_traitsIcEEEC2B8ue170006ERNS_13basic_ostreamIcS2_EE, symObjAddr: 0xF780, symBinAddr: 0x10002CEF0, symSize: 0x10C }
  - { offsetInCU: 0x9430, offset: 0x507F6, size: 0x8, addend: 0x0, symName: __ZNKSt3__19basic_iosIcNS_11char_traitsIcEEE5rdbufB8ue170006Ev, symObjAddr: 0xF88C, symBinAddr: 0x10002CFFC, symSize: 0x24 }
  - { offsetInCU: 0x9458, offset: 0x5081E, size: 0x8, addend: 0x0, symName: __ZNKSt3__18ios_base5rdbufB8ue170006Ev, symObjAddr: 0xF8B0, symBinAddr: 0x10002D020, symSize: 0x64 }
  - { offsetInCU: 0x947E, offset: 0x50844, size: 0x8, addend: 0x0, symName: __ZNSt3__111char_traitsIcE11eq_int_typeB8ue170006Eii, symObjAddr: 0xF914, symBinAddr: 0x10002D084, symSize: 0x28 }
  - { offsetInCU: 0x94B1, offset: 0x50877, size: 0x8, addend: 0x0, symName: __ZNSt3__111char_traitsIcE3eofB8ue170006Ev, symObjAddr: 0xF93C, symBinAddr: 0x10002D0AC, symSize: 0x8 }
  - { offsetInCU: 0x94C5, offset: 0x5088B, size: 0x8, addend: 0x0, symName: __ZNKSt3__19basic_iosIcNS_11char_traitsIcEEE5widenB8ue170006Ec, symObjAddr: 0xF944, symBinAddr: 0x10002D0B4, symSize: 0x2A4 }
  - { offsetInCU: 0x9530, offset: 0x508F6, size: 0x8, addend: 0x0, symName: __ZNKSt3__15ctypeIcE5widenB8ue170006Ec, symObjAddr: 0xFC14, symBinAddr: 0x10002D384, symSize: 0xBC }
  - { offsetInCU: 0x9565, offset: 0x5092B, size: 0x8, addend: 0x0, symName: __ZNSt3__18ios_base8setstateB8ue170006Ej, symObjAddr: 0xFCD0, symBinAddr: 0x10002D440, symSize: 0x9C }
  - { offsetInCU: 0x959C, offset: 0x50962, size: 0x8, addend: 0x0, symName: __ZNKSt3__117__compressed_pairIP8SContextNS_14default_deleteIS1_EEE5firstB8ue170006Ev, symObjAddr: 0x23F68, symBinAddr: 0x10002D4DC, symSize: 0x24 }
  - { offsetInCU: 0x95C2, offset: 0x50988, size: 0x8, addend: 0x0, symName: __ZNKSt3__122__compressed_pair_elemIP8SContextLi0ELb0EE5__getB8ue170006Ev, symObjAddr: 0x23F8C, symBinAddr: 0x10002D500, symSize: 0x14 }
  - { offsetInCU: 0x95E8, offset: 0x509AE, size: 0x8, addend: 0x0, symName: __ZNSt3__110unique_ptrI8SContextNS_14default_deleteIS1_EEEC1B8ue170006ILb1EvEEPS1_, symObjAddr: 0x23FA0, symBinAddr: 0x10002D514, symSize: 0x34 }
  - { offsetInCU: 0x962B, offset: 0x509F1, size: 0x8, addend: 0x0, symName: __ZNSt3__110unique_ptrI8SContextNS_14default_deleteIS1_EEEC2B8ue170006ILb1EvEEPS1_, symObjAddr: 0x23FD4, symBinAddr: 0x10002D548, symSize: 0x260 }
  - { offsetInCU: 0x9673, offset: 0x50A39, size: 0x8, addend: 0x0, symName: __ZNSt3__117__compressed_pairIP8SContextNS_14default_deleteIS1_EEEC1B8ue170006IRS2_NS_16__value_init_tagEEEOT_OT0_, symObjAddr: 0x24234, symBinAddr: 0x10002D7A8, symSize: 0x3C }
  - { offsetInCU: 0x96CB, offset: 0x50A91, size: 0x8, addend: 0x0, symName: __ZNSt3__117__compressed_pairIP8SContextNS_14default_deleteIS1_EEEC2B8ue170006IRS2_NS_16__value_init_tagEEEOT_OT0_, symObjAddr: 0x24270, symBinAddr: 0x10002D7E4, symSize: 0x40 }
  - { offsetInCU: 0x9723, offset: 0x50AE9, size: 0x8, addend: 0x0, symName: __ZNSt3__122__compressed_pair_elemIP8SContextLi0ELb0EEC2B8ue170006IRS2_vEEOT_, symObjAddr: 0x242B0, symBinAddr: 0x10002D824, symSize: 0xB0 }
  - { offsetInCU: 0x9765, offset: 0x50B2B, size: 0x8, addend: 0x0, symName: __ZNSt3__110unique_ptrI8SContextNS_14default_deleteIS1_EEE7releaseB8ue170006Ev, symObjAddr: 0x24360, symBinAddr: 0x10002D8D4, symSize: 0xB8 }
  - { offsetInCU: 0x979A, offset: 0x50B60, size: 0x8, addend: 0x0, symName: __ZNSt3__110unique_ptrI8SContextNS_14default_deleteIS1_EEE11get_deleterB8ue170006Ev, symObjAddr: 0x24418, symBinAddr: 0x10002D98C, symSize: 0x24 }
  - { offsetInCU: 0x3F, offset: 0x50C19, size: 0x8, addend: 0x0, symName: __ZL13cube_vertices, symObjAddr: 0xE5F00, symBinAddr: 0x100604140, symSize: 0x0 }
  - { offsetInCU: 0x10E1E, offset: 0x619F8, size: 0x8, addend: 0x0, symName: __ZNSt3__1neB8ue170006ERKNS_19__hash_map_iteratorINS_15__hash_iteratorIPNS_11__hash_nodeINS_17__hash_value_typeINS_12basic_stringIcNS_11char_traitsIcEENS_9allocatorIcEEEEP9BasicMeshEEPvEEEEEESJ_, symObjAddr: 0xDA4, symBinAddr: 0x10002EC38, symSize: 0x30 }
  - { offsetInCU: 0x10E5B, offset: 0x61A35, size: 0x8, addend: 0x0, symName: __ZNSt3__1neB8ue170006ERKNS_19__hash_map_iteratorINS_15__hash_iteratorIPNS_11__hash_nodeINS_17__hash_value_typeINS_12basic_stringIcNS_11char_traitsIcEENS_9allocatorIcEEEEP5ModelEEPvEEEEEESJ_, symObjAddr: 0x198C, symBinAddr: 0x10002F820, symSize: 0x30 }
  - { offsetInCU: 0x10E98, offset: 0x61A72, size: 0x8, addend: 0x0, symName: __ZNSt3__1neB8ue170006ERKNS_15__hash_iteratorIPNS_11__hash_nodeINS_17__hash_value_typeINS_12basic_stringIcNS_11char_traitsIcEENS_9allocatorIcEEEEP9BasicMeshEEPvEEEESH_, symObjAddr: 0xD998, symBinAddr: 0x1000304F4, symSize: 0x34 }
  - { offsetInCU: 0x10ED5, offset: 0x61AAF, size: 0x8, addend: 0x0, symName: __ZNSt3__1eqB8ue170006ERKNS_15__hash_iteratorIPNS_11__hash_nodeINS_17__hash_value_typeINS_12basic_stringIcNS_11char_traitsIcEENS_9allocatorIcEEEEP9BasicMeshEEPvEEEESH_, symObjAddr: 0xD9CC, symBinAddr: 0x100030528, symSize: 0xB8 }
  - { offsetInCU: 0x10F45, offset: 0x61B1F, size: 0x8, addend: 0x0, symName: __ZNSt3__17launderB8ue170006IKNS_4pairIKNS_12basic_stringIcNS_11char_traitsIcEENS_9allocatorIcEEEEP9BasicMeshEEEEPT_SE_, symObjAddr: 0x1254C, symBinAddr: 0x100032230, symSize: 0x24 }
  - { offsetInCU: 0x10F7C, offset: 0x61B56, size: 0x8, addend: 0x0, symName: __ZNSt3__19__launderB8ue170006IKNS_4pairIKNS_12basic_stringIcNS_11char_traitsIcEENS_9allocatorIcEEEEP9BasicMeshEEEEPT_SE_, symObjAddr: 0x12570, symBinAddr: 0x100032254, symSize: 0x14 }
  - { offsetInCU: 0x10FD1, offset: 0x61BAB, size: 0x8, addend: 0x0, symName: __ZNSt3__1neB8ue170006ERKNS_15__hash_iteratorIPNS_11__hash_nodeINS_17__hash_value_typeINS_12basic_stringIcNS_11char_traitsIcEENS_9allocatorIcEEEEP5ModelEEPvEEEESH_, symObjAddr: 0x152F4, symBinAddr: 0x100034950, symSize: 0x34 }
  - { offsetInCU: 0x1100E, offset: 0x61BE8, size: 0x8, addend: 0x0, symName: __ZNSt3__1eqB8ue170006ERKNS_15__hash_iteratorIPNS_11__hash_nodeINS_17__hash_value_typeINS_12basic_stringIcNS_11char_traitsIcEENS_9allocatorIcEEEEP5ModelEEPvEEEESH_, symObjAddr: 0x15328, symBinAddr: 0x100034984, symSize: 0xB8 }
  - { offsetInCU: 0x1107E, offset: 0x61C58, size: 0x8, addend: 0x0, symName: __ZNSt3__17launderB8ue170006IKNS_4pairIKNS_12basic_stringIcNS_11char_traitsIcEENS_9allocatorIcEEEEP5ModelEEEEPT_SE_, symObjAddr: 0x17078, symBinAddr: 0x100036640, symSize: 0x24 }
  - { offsetInCU: 0x110B5, offset: 0x61C8F, size: 0x8, addend: 0x0, symName: __ZNSt3__19__launderB8ue170006IKNS_4pairIKNS_12basic_stringIcNS_11char_traitsIcEENS_9allocatorIcEEEEP5ModelEEEEPT_SE_, symObjAddr: 0x1709C, symBinAddr: 0x100036664, symSize: 0x14 }
  - { offsetInCU: 0x112FB, offset: 0x61ED5, size: 0x8, addend: 0x0, symName: __ZL15square_vertices, symObjAddr: 0xE5F40, symBinAddr: 0x100604180, symSize: 0x0 }
  - { offsetInCU: 0x11314, offset: 0x61EEE, size: 0x8, addend: 0x0, symName: __ZL14square_indices, symObjAddr: 0xE5F80, symBinAddr: 0x1006041C0, symSize: 0x0 }
  - { offsetInCU: 0x113A9, offset: 0x61F83, size: 0x8, addend: 0x0, symName: _.str, symObjAddr: 0x1A700, symBinAddr: 0x1004B4200, symSize: 0x0 }
  - { offsetInCU: 0x1518A, offset: 0x65D64, size: 0x8, addend: 0x0, symName: __ZN16CollisionHandler11FeedObjectsERNSt3__113unordered_mapINS0_12basic_stringIcNS0_11char_traitsIcEENS0_9allocatorIcEEEEP9BasicMeshNS0_4hashIS7_EENS0_8equal_toIS7_EENS5_INS0_4pairIKS7_S9_EEEEEE, symObjAddr: 0x4E8, symBinAddr: 0x10002E37C, symSize: 0x354 }
  - { offsetInCU: 0x1521D, offset: 0x65DF7, size: 0x8, addend: 0x0, symName: __ZNSt3__113unordered_mapINS_12basic_stringIcNS_11char_traitsIcEENS_9allocatorIcEEEEP9BasicMeshNS_4hashIS6_EENS_8equal_toIS6_EENS4_INS_4pairIKS6_S8_EEEEE5beginB8ue170006Ev, symObjAddr: 0x83C, symBinAddr: 0x10002E6D0, symSize: 0x2B4 }
  - { offsetInCU: 0x15244, offset: 0x65E1E, size: 0x8, addend: 0x0, symName: __ZNSt3__113unordered_mapINS_12basic_stringIcNS_11char_traitsIcEENS_9allocatorIcEEEEP9BasicMeshNS_4hashIS6_EENS_8equal_toIS6_EENS4_INS_4pairIKS6_S8_EEEEE3endB8ue170006Ev, symObjAddr: 0xAF0, symBinAddr: 0x10002E984, symSize: 0x2B4 }
  - { offsetInCU: 0x1526B, offset: 0x65E45, size: 0x8, addend: 0x0, symName: __ZNKSt3__119__hash_map_iteratorINS_15__hash_iteratorIPNS_11__hash_nodeINS_17__hash_value_typeINS_12basic_stringIcNS_11char_traitsIcEENS_9allocatorIcEEEEP9BasicMeshEEPvEEEEEdeB8ue170006Ev, symObjAddr: 0xDD4, symBinAddr: 0x10002EC68, symSize: 0x28 }
  - { offsetInCU: 0x15291, offset: 0x65E6B, size: 0x8, addend: 0x0, symName: __ZNSt3__113unordered_mapINS_12basic_stringIcNS_11char_traitsIcEENS_9allocatorIcEEEEP9BasicMeshNS_4hashIS6_EENS_8equal_toIS6_EENS4_INS_4pairIKS6_S8_EEEEE6insertB8ue170006ERKSF_, symObjAddr: 0xDFC, symBinAddr: 0x10002EC90, symSize: 0x2A8 }
  - { offsetInCU: 0x152C8, offset: 0x65EA2, size: 0x8, addend: 0x0, symName: __ZNSt3__119__hash_map_iteratorINS_15__hash_iteratorIPNS_11__hash_nodeINS_17__hash_value_typeINS_12basic_stringIcNS_11char_traitsIcEENS_9allocatorIcEEEEP9BasicMeshEEPvEEEEEppB8ue170006Ev, symObjAddr: 0x10A4, symBinAddr: 0x10002EF38, symSize: 0x2C }
  - { offsetInCU: 0x152EE, offset: 0x65EC8, size: 0x8, addend: 0x0, symName: __ZN16CollisionHandler11FeedObjectsERNSt3__113unordered_mapINS0_12basic_stringIcNS0_11char_traitsIcEENS0_9allocatorIcEEEEP5ModelNS0_4hashIS7_EENS0_8equal_toIS7_EENS5_INS0_4pairIKS7_S9_EEEEEE, symObjAddr: 0x10D0, symBinAddr: 0x10002EF64, symSize: 0x354 }
  - { offsetInCU: 0x15381, offset: 0x65F5B, size: 0x8, addend: 0x0, symName: __ZNSt3__113unordered_mapINS_12basic_stringIcNS_11char_traitsIcEENS_9allocatorIcEEEEP5ModelNS_4hashIS6_EENS_8equal_toIS6_EENS4_INS_4pairIKS6_S8_EEEEE5beginB8ue170006Ev, symObjAddr: 0x1424, symBinAddr: 0x10002F2B8, symSize: 0x2B4 }
  - { offsetInCU: 0x153A8, offset: 0x65F82, size: 0x8, addend: 0x0, symName: __ZNSt3__113unordered_mapINS_12basic_stringIcNS_11char_traitsIcEENS_9allocatorIcEEEEP5ModelNS_4hashIS6_EENS_8equal_toIS6_EENS4_INS_4pairIKS6_S8_EEEEE3endB8ue170006Ev, symObjAddr: 0x16D8, symBinAddr: 0x10002F56C, symSize: 0x2B4 }
  - { offsetInCU: 0x153CF, offset: 0x65FA9, size: 0x8, addend: 0x0, symName: __ZNKSt3__119__hash_map_iteratorINS_15__hash_iteratorIPNS_11__hash_nodeINS_17__hash_value_typeINS_12basic_stringIcNS_11char_traitsIcEENS_9allocatorIcEEEEP5ModelEEPvEEEEEdeB8ue170006Ev, symObjAddr: 0x19BC, symBinAddr: 0x10002F850, symSize: 0x28 }
  - { offsetInCU: 0x153F5, offset: 0x65FCF, size: 0x8, addend: 0x0, symName: __ZNSt3__113unordered_mapINS_12basic_stringIcNS_11char_traitsIcEENS_9allocatorIcEEEEP5ModelNS_4hashIS6_EENS_8equal_toIS6_EENS4_INS_4pairIKS6_S8_EEEEE6insertB8ue170006ERKSF_, symObjAddr: 0x19E4, symBinAddr: 0x10002F878, symSize: 0x2A8 }
  - { offsetInCU: 0x1542C, offset: 0x66006, size: 0x8, addend: 0x0, symName: __ZNSt3__119__hash_map_iteratorINS_15__hash_iteratorIPNS_11__hash_nodeINS_17__hash_value_typeINS_12basic_stringIcNS_11char_traitsIcEENS_9allocatorIcEEEEP5ModelEEPvEEEEEppB8ue170006Ev, symObjAddr: 0x1C8C, symBinAddr: 0x10002FB20, symSize: 0x2C }
  - { offsetInCU: 0x15452, offset: 0x6602C, size: 0x8, addend: 0x0, symName: __ZN16CollisionHandler11FeedTerrainEP7Terrain, symObjAddr: 0x1CB8, symBinAddr: 0x10002FB4C, symSize: 0x74 }
  - { offsetInCU: 0x15488, offset: 0x66062, size: 0x8, addend: 0x0, symName: __ZN16CollisionHandler15CheckCollisionsEv, symObjAddr: 0x1D2C, symBinAddr: 0x10002FBC0, symSize: 0x10 }
  - { offsetInCU: 0x154B0, offset: 0x6608A, size: 0x8, addend: 0x0, symName: __ZN16CollisionHandler15ManageCollisionEv, symObjAddr: 0x1D3C, symBinAddr: 0x10002FBD0, symSize: 0x10 }
  - { offsetInCU: 0x1550A, offset: 0x660E4, size: 0x8, addend: 0x0, symName: __ZNSt3__112__hash_tableINS_17__hash_value_typeINS_12basic_stringIcNS_11char_traitsIcEENS_9allocatorIcEEEEP9BasicMeshEENS_22__unordered_map_hasherIS7_SA_NS_4hashIS7_EENS_8equal_toIS7_EELb1EEENS_21__unordered_map_equalIS7_SA_SF_SD_Lb1EEENS5_ISA_EEE5beginEv, symObjAddr: 0xD04C, symBinAddr: 0x10002FBE0, symSize: 0x23C }
  - { offsetInCU: 0x15533, offset: 0x6610D, size: 0x8, addend: 0x0, symName: __ZNSt3__119__hash_map_iteratorINS_15__hash_iteratorIPNS_11__hash_nodeINS_17__hash_value_typeINS_12basic_stringIcNS_11char_traitsIcEENS_9allocatorIcEEEEP9BasicMeshEEPvEEEEEC1B8ue170006ESG_, symObjAddr: 0xD288, symBinAddr: 0x10002FE1C, symSize: 0x238 }
  - { offsetInCU: 0x15571, offset: 0x6614B, size: 0x8, addend: 0x0, symName: __ZNSt3__115__hash_iteratorIPNS_11__hash_nodeINS_17__hash_value_typeINS_12basic_stringIcNS_11char_traitsIcEENS_9allocatorIcEEEEP9BasicMeshEEPvEEEC1B8ue170006EPNS_16__hash_node_baseISE_EE, symObjAddr: 0xD4E4, symBinAddr: 0x100030054, symSize: 0x34 }
  - { offsetInCU: 0x155AA, offset: 0x66184, size: 0x8, addend: 0x0, symName: __ZNSt3__115__hash_iteratorIPNS_11__hash_nodeINS_17__hash_value_typeINS_12basic_stringIcNS_11char_traitsIcEENS_9allocatorIcEEEEP9BasicMeshEEPvEEEC2B8ue170006EPNS_16__hash_node_baseISE_EE, symObjAddr: 0xD52C, symBinAddr: 0x100030088, symSize: 0x70 }
  - { offsetInCU: 0x155E3, offset: 0x661BD, size: 0x8, addend: 0x0, symName: __ZNSt3__119__hash_map_iteratorINS_15__hash_iteratorIPNS_11__hash_nodeINS_17__hash_value_typeINS_12basic_stringIcNS_11char_traitsIcEENS_9allocatorIcEEEEP9BasicMeshEEPvEEEEEC2B8ue170006ESG_, symObjAddr: 0xD59C, symBinAddr: 0x1000300F8, symSize: 0x204 }
  - { offsetInCU: 0x15621, offset: 0x661FB, size: 0x8, addend: 0x0, symName: __ZNSt3__112__hash_tableINS_17__hash_value_typeINS_12basic_stringIcNS_11char_traitsIcEENS_9allocatorIcEEEEP9BasicMeshEENS_22__unordered_map_hasherIS7_SA_NS_4hashIS7_EENS_8equal_toIS7_EELb1EEENS_21__unordered_map_equalIS7_SA_SF_SD_Lb1EEENS5_ISA_EEE3endEv, symObjAddr: 0xD7A0, symBinAddr: 0x1000302FC, symSize: 0x1F8 }
  - { offsetInCU: 0x1564A, offset: 0x66224, size: 0x8, addend: 0x0, symName: __ZNSt3__115__hash_iteratorIPNS_11__hash_nodeINS_17__hash_value_typeINS_12basic_stringIcNS_11char_traitsIcEENS_9allocatorIcEEEEP9BasicMeshEEPvEEEppB8ue170006Ev, symObjAddr: 0xDA84, symBinAddr: 0x1000305E0, symSize: 0xDC }
  - { offsetInCU: 0x15670, offset: 0x6624A, size: 0x8, addend: 0x0, symName: __ZNKSt3__115__hash_iteratorIPNS_11__hash_nodeINS_17__hash_value_typeINS_12basic_stringIcNS_11char_traitsIcEENS_9allocatorIcEEEEP9BasicMeshEEPvEEEptB8ue170006Ev, symObjAddr: 0xDB60, symBinAddr: 0x1000306BC, symSize: 0x6C }
  - { offsetInCU: 0x15696, offset: 0x66270, size: 0x8, addend: 0x0, symName: __ZNSt3__114pointer_traitsIPNS_17__hash_value_typeINS_12basic_stringIcNS_11char_traitsIcEENS_9allocatorIcEEEEP9BasicMeshEEE10pointer_toB8ue170006ERSA_, symObjAddr: 0xDBF0, symBinAddr: 0x100030728, symSize: 0x14 }
  - { offsetInCU: 0x156B9, offset: 0x66293, size: 0x8, addend: 0x0, symName: __ZNSt3__112__hash_tableINS_17__hash_value_typeINS_12basic_stringIcNS_11char_traitsIcEENS_9allocatorIcEEEEP9BasicMeshEENS_22__unordered_map_hasherIS7_SA_NS_4hashIS7_EENS_8equal_toIS7_EELb1EEENS_21__unordered_map_equalIS7_SA_SF_SD_Lb1EEENS5_ISA_EEE15__insert_uniqueB8ue170006ERKNS_4pairIKS7_S9_EE, symObjAddr: 0xDC74, symBinAddr: 0x10003073C, symSize: 0x238 }
  - { offsetInCU: 0x156F0, offset: 0x662CA, size: 0x8, addend: 0x0, symName: __ZNSt3__14pairINS_19__hash_map_iteratorINS_15__hash_iteratorIPNS_11__hash_nodeINS_17__hash_value_typeINS_12basic_stringIcNS_11char_traitsIcEENS_9allocatorIcEEEEP9BasicMeshEEPvEEEEEEbEC1B8ue170006ISH_bLSE_0EEEONS0_IT_T0_EE, symObjAddr: 0xDEAC, symBinAddr: 0x100030974, symSize: 0x34 }
  - { offsetInCU: 0x15741, offset: 0x6631B, size: 0x8, addend: 0x0, symName: __ZNSt3__112__hash_tableINS_17__hash_value_typeINS_12basic_stringIcNS_11char_traitsIcEENS_9allocatorIcEEEEP9BasicMeshEENS_22__unordered_map_hasherIS7_SA_NS_4hashIS7_EENS_8equal_toIS7_EELb1EEENS_21__unordered_map_equalIS7_SA_SF_SD_Lb1EEENS5_ISA_EEE25__emplace_unique_key_argsIS7_JRKNS_4pairIKS7_S9_EEEEENSM_INS_15__hash_iteratorIPNS_11__hash_nodeISA_PvEEEEbEERKT_DpOT0_, symObjAddr: 0xDEE0, symBinAddr: 0x1000309A8, symSize: 0xE40 }
  - { offsetInCU: 0x1582C, offset: 0x66406, size: 0x8, addend: 0x0, symName: __ZNSt3__122__hash_key_value_typesINS_17__hash_value_typeINS_12basic_stringIcNS_11char_traitsIcEENS_9allocatorIcEEEEP9BasicMeshEEE9__get_keyB8ue170006ERKNS_4pairIKS7_S9_EE, symObjAddr: 0xED20, symBinAddr: 0x1000317E8, symSize: 0x14 }
  - { offsetInCU: 0x1584F, offset: 0x66429, size: 0x8, addend: 0x0, symName: __ZNSt3__112__hash_tableINS_17__hash_value_typeINS_12basic_stringIcNS_11char_traitsIcEENS_9allocatorIcEEEEP9BasicMeshEENS_22__unordered_map_hasherIS7_SA_NS_4hashIS7_EENS_8equal_toIS7_EELb1EEENS_21__unordered_map_equalIS7_SA_SF_SD_Lb1EEENS5_ISA_EEE13hash_functionB8ue170006Ev, symObjAddr: 0xED34, symBinAddr: 0x1000317FC, symSize: 0x28 }
  - { offsetInCU: 0x15875, offset: 0x6644F, size: 0x8, addend: 0x0, symName: __ZNKSt3__122__unordered_map_hasherINS_12basic_stringIcNS_11char_traitsIcEENS_9allocatorIcEEEENS_17__hash_value_typeIS6_P9BasicMeshEENS_4hashIS6_EENS_8equal_toIS6_EELb1EEclB8ue170006ERKS6_, symObjAddr: 0xED5C, symBinAddr: 0x100031824, symSize: 0x2C }
  - { offsetInCU: 0x158AA, offset: 0x66484, size: 0x8, addend: 0x0, symName: __ZNKSt3__112__hash_tableINS_17__hash_value_typeINS_12basic_stringIcNS_11char_traitsIcEENS_9allocatorIcEEEEP9BasicMeshEENS_22__unordered_map_hasherIS7_SA_NS_4hashIS7_EENS_8equal_toIS7_EELb1EEENS_21__unordered_map_equalIS7_SA_SF_SD_Lb1EEENS5_ISA_EEE12bucket_countB8ue170006Ev, symObjAddr: 0xED88, symBinAddr: 0x100031850, symSize: 0x28 }
  - { offsetInCU: 0x158D0, offset: 0x664AA, size: 0x8, addend: 0x0, symName: __ZNKSt3__110unique_ptrIA_PNS_16__hash_node_baseIPNS_11__hash_nodeINS_17__hash_value_typeINS_12basic_stringIcNS_11char_traitsIcEENS_9allocatorIcEEEEP9BasicMeshEEPvEEEENS_25__bucket_list_deallocatorINS7_ISH_EEEEEixB8ue170006Em, symObjAddr: 0xEE48, symBinAddr: 0x100031878, symSize: 0x78 }
  - { offsetInCU: 0x15905, offset: 0x664DF, size: 0x8, addend: 0x0, symName: __ZNKSt3__116__hash_node_baseIPNS_11__hash_nodeINS_17__hash_value_typeINS_12basic_stringIcNS_11char_traitsIcEENS_9allocatorIcEEEEP9BasicMeshEEPvEEE6__hashB8ue170006Ev, symObjAddr: 0xEEC0, symBinAddr: 0x1000318F0, symSize: 0x64 }
  - { offsetInCU: 0x1592B, offset: 0x66505, size: 0x8, addend: 0x0, symName: __ZNSt3__112__hash_tableINS_17__hash_value_typeINS_12basic_stringIcNS_11char_traitsIcEENS_9allocatorIcEEEEP9BasicMeshEENS_22__unordered_map_hasherIS7_SA_NS_4hashIS7_EENS_8equal_toIS7_EELb1EEENS_21__unordered_map_equalIS7_SA_SF_SD_Lb1EEENS5_ISA_EEE6key_eqB8ue170006Ev, symObjAddr: 0xEF24, symBinAddr: 0x100031954, symSize: 0x28 }
  - { offsetInCU: 0x15951, offset: 0x6652B, size: 0x8, addend: 0x0, symName: __ZNKSt3__121__unordered_map_equalINS_12basic_stringIcNS_11char_traitsIcEENS_9allocatorIcEEEENS_17__hash_value_typeIS6_P9BasicMeshEENS_8equal_toIS6_EENS_4hashIS6_EELb1EEclB8ue170006ERKSA_RKS6_, symObjAddr: 0xEF4C, symBinAddr: 0x10003197C, symSize: 0x48 }
  - { offsetInCU: 0x15995, offset: 0x6656F, size: 0x8, addend: 0x0, symName: __ZNSt3__112__hash_tableINS_17__hash_value_typeINS_12basic_stringIcNS_11char_traitsIcEENS_9allocatorIcEEEEP9BasicMeshEENS_22__unordered_map_hasherIS7_SA_NS_4hashIS7_EENS_8equal_toIS7_EELb1EEENS_21__unordered_map_equalIS7_SA_SF_SD_Lb1EEENS5_ISA_EEE21__construct_node_hashIRKNS_4pairIKS7_S9_EEJEEENS_10unique_ptrINS_11__hash_nodeISA_PvEENS_22__hash_node_destructorINS5_ISU_EEEEEEmOT_DpOT0_, symObjAddr: 0xEF94, symBinAddr: 0x1000319C4, symSize: 0x418 }
  - { offsetInCU: 0x15A0D, offset: 0x665E7, size: 0x8, addend: 0x0, symName: __ZNSt3__112__hash_tableINS_17__hash_value_typeINS_12basic_stringIcNS_11char_traitsIcEENS_9allocatorIcEEEEP9BasicMeshEENS_22__unordered_map_hasherIS7_SA_NS_4hashIS7_EENS_8equal_toIS7_EELb1EEENS_21__unordered_map_equalIS7_SA_SF_SD_Lb1EEENS5_ISA_EEE4sizeB8ue170006Ev, symObjAddr: 0xF3AC, symBinAddr: 0x100031DDC, symSize: 0x28 }
  - { offsetInCU: 0x15A33, offset: 0x6660D, size: 0x8, addend: 0x0, symName: __ZNSt3__112__hash_tableINS_17__hash_value_typeINS_12basic_stringIcNS_11char_traitsIcEENS_9allocatorIcEEEEP9BasicMeshEENS_22__unordered_map_hasherIS7_SA_NS_4hashIS7_EENS_8equal_toIS7_EELb1EEENS_21__unordered_map_equalIS7_SA_SF_SD_Lb1EEENS5_ISA_EEE15max_load_factorB8ue170006Ev, symObjAddr: 0xF3D4, symBinAddr: 0x100031E04, symSize: 0x28 }
  - { offsetInCU: 0x15A59, offset: 0x66633, size: 0x8, addend: 0x0, symName: __ZNSt3__112__hash_tableINS_17__hash_value_typeINS_12basic_stringIcNS_11char_traitsIcEENS_9allocatorIcEEEEP9BasicMeshEENS_22__unordered_map_hasherIS7_SA_NS_4hashIS7_EENS_8equal_toIS7_EELb1EEENS_21__unordered_map_equalIS7_SA_SF_SD_Lb1EEENS5_ISA_EEE15__rehash_uniqueB8ue170006Em, symObjAddr: 0xF3FC, symBinAddr: 0x100031E2C, symSize: 0x2C }
  - { offsetInCU: 0x15A8E, offset: 0x66668, size: 0x8, addend: 0x0, symName: __ZNSt3__116__hash_node_baseIPNS_11__hash_nodeINS_17__hash_value_typeINS_12basic_stringIcNS_11char_traitsIcEENS_9allocatorIcEEEEP9BasicMeshEEPvEEE5__ptrB8ue170006Ev, symObjAddr: 0xF4BC, symBinAddr: 0x100031E58, symSize: 0x24 }
  - { offsetInCU: 0x15AB4, offset: 0x6668E, size: 0x8, addend: 0x0, symName: __ZNKSt3__110unique_ptrINS_11__hash_nodeINS_17__hash_value_typeINS_12basic_stringIcNS_11char_traitsIcEENS_9allocatorIcEEEEP9BasicMeshEEPvEENS_22__hash_node_destructorINS6_ISD_EEEEEptB8ue170006Ev, symObjAddr: 0xF4E0, symBinAddr: 0x100031E7C, symSize: 0x6C }
  - { offsetInCU: 0x15ADA, offset: 0x666B4, size: 0x8, addend: 0x0, symName: __ZNKSt3__110unique_ptrINS_11__hash_nodeINS_17__hash_value_typeINS_12basic_stringIcNS_11char_traitsIcEENS_9allocatorIcEEEEP9BasicMeshEEPvEENS_22__hash_node_destructorINS6_ISD_EEEEE3getB8ue170006Ev, symObjAddr: 0xF54C, symBinAddr: 0x100031EE8, symSize: 0x6C }
  - { offsetInCU: 0x15B00, offset: 0x666DA, size: 0x8, addend: 0x0, symName: __ZNSt3__110unique_ptrINS_11__hash_nodeINS_17__hash_value_typeINS_12basic_stringIcNS_11char_traitsIcEENS_9allocatorIcEEEEP9BasicMeshEEPvEENS_22__hash_node_destructorINS6_ISD_EEEEE7releaseB8ue170006Ev, symObjAddr: 0xF5B8, symBinAddr: 0x100031F54, symSize: 0xB8 }
  - { offsetInCU: 0x15B35, offset: 0x6670F, size: 0x8, addend: 0x0, symName: __ZNSt3__110unique_ptrINS_11__hash_nodeINS_17__hash_value_typeINS_12basic_stringIcNS_11char_traitsIcEENS_9allocatorIcEEEEP9BasicMeshEEPvEENS_22__hash_node_destructorINS6_ISD_EEEEED1B8ue170006Ev, symObjAddr: 0xF670, symBinAddr: 0x10003200C, symSize: 0x2C }
  - { offsetInCU: 0x15B69, offset: 0x66743, size: 0x8, addend: 0x0, symName: __ZNSt3__14pairINS_15__hash_iteratorIPNS_11__hash_nodeINS_17__hash_value_typeINS_12basic_stringIcNS_11char_traitsIcEENS_9allocatorIcEEEEP9BasicMeshEEPvEEEEbEC1B8ue170006ISG_RbLSD_0EEEOT_OT0_, symObjAddr: 0xF69C, symBinAddr: 0x100032038, symSize: 0x3C }
  - { offsetInCU: 0x15BC7, offset: 0x667A1, size: 0x8, addend: 0x0, symName: __ZNSt3__117__compressed_pairImNS_22__unordered_map_hasherINS_12basic_stringIcNS_11char_traitsIcEENS_9allocatorIcEEEENS_17__hash_value_typeIS7_P9BasicMeshEENS_4hashIS7_EENS_8equal_toIS7_EELb1EEEE6secondB8ue170006Ev, symObjAddr: 0xF6D8, symBinAddr: 0x100032074, symSize: 0x24 }
  - { offsetInCU: 0x15BED, offset: 0x667C7, size: 0x8, addend: 0x0, symName: __ZNSt3__122__compressed_pair_elemINS_22__unordered_map_hasherINS_12basic_stringIcNS_11char_traitsIcEENS_9allocatorIcEEEENS_17__hash_value_typeIS7_P9BasicMeshEENS_4hashIS7_EENS_8equal_toIS7_EELb1EEELi1ELb1EE5__getB8ue170006Ev, symObjAddr: 0xF6FC, symBinAddr: 0x100032098, symSize: 0x14 }
  - { offsetInCU: 0x15C13, offset: 0x667ED, size: 0x8, addend: 0x0, symName: __ZNKSt3__110unique_ptrIA_PNS_16__hash_node_baseIPNS_11__hash_nodeINS_17__hash_value_typeINS_12basic_stringIcNS_11char_traitsIcEENS_9allocatorIcEEEEP9BasicMeshEEPvEEEENS_25__bucket_list_deallocatorINS7_ISH_EEEEE11get_deleterB8ue170006Ev, symObjAddr: 0x12118, symBinAddr: 0x1000320AC, symSize: 0x24 }
  - { offsetInCU: 0x15C39, offset: 0x66813, size: 0x8, addend: 0x0, symName: __ZNKSt3__125__bucket_list_deallocatorINS_9allocatorIPNS_16__hash_node_baseIPNS_11__hash_nodeINS_17__hash_value_typeINS_12basic_stringIcNS_11char_traitsIcEENS1_IcEEEEP9BasicMeshEEPvEEEEEEE4sizeB8ue170006Ev, symObjAddr: 0x1213C, symBinAddr: 0x1000320D0, symSize: 0x6C }
  - { offsetInCU: 0x15C5F, offset: 0x66839, size: 0x8, addend: 0x0, symName: __ZNKSt3__117__compressed_pairIPPNS_16__hash_node_baseIPNS_11__hash_nodeINS_17__hash_value_typeINS_12basic_stringIcNS_11char_traitsIcEENS_9allocatorIcEEEEP9BasicMeshEEPvEEEENS_25__bucket_list_deallocatorINS7_ISH_EEEEE6secondB8ue170006Ev, symObjAddr: 0x121A8, symBinAddr: 0x10003213C, symSize: 0x28 }
  - { offsetInCU: 0x15C85, offset: 0x6685F, size: 0x8, addend: 0x0, symName: __ZNKSt3__122__compressed_pair_elemINS_25__bucket_list_deallocatorINS_9allocatorIPNS_16__hash_node_baseIPNS_11__hash_nodeINS_17__hash_value_typeINS_12basic_stringIcNS_11char_traitsIcEENS2_IcEEEEP9BasicMeshEEPvEEEEEEEELi1ELb0EE5__getB8ue170006Ev, symObjAddr: 0x121D0, symBinAddr: 0x100032164, symSize: 0x14 }
  - { offsetInCU: 0x15CAB, offset: 0x66885, size: 0x8, addend: 0x0, symName: __ZNKSt3__117__compressed_pairImNS_9allocatorIPNS_16__hash_node_baseIPNS_11__hash_nodeINS_17__hash_value_typeINS_12basic_stringIcNS_11char_traitsIcEENS1_IcEEEEP9BasicMeshEEPvEEEEEEE5firstB8ue170006Ev, symObjAddr: 0x121E4, symBinAddr: 0x100032178, symSize: 0x24 }
  - { offsetInCU: 0x15CD1, offset: 0x668AB, size: 0x8, addend: 0x0, symName: __ZNKSt3__117__compressed_pairIPPNS_16__hash_node_baseIPNS_11__hash_nodeINS_17__hash_value_typeINS_12basic_stringIcNS_11char_traitsIcEENS_9allocatorIcEEEEP9BasicMeshEEPvEEEENS_25__bucket_list_deallocatorINS7_ISH_EEEEE5firstB8ue170006Ev, symObjAddr: 0x1221C, symBinAddr: 0x10003219C, symSize: 0x24 }
  - { offsetInCU: 0x15CF7, offset: 0x668D1, size: 0x8, addend: 0x0, symName: __ZNKSt3__122__compressed_pair_elemIPPNS_16__hash_node_baseIPNS_11__hash_nodeINS_17__hash_value_typeINS_12basic_stringIcNS_11char_traitsIcEENS_9allocatorIcEEEEP9BasicMeshEEPvEEEELi0ELb0EE5__getB8ue170006Ev, symObjAddr: 0x12240, symBinAddr: 0x1000321C0, symSize: 0x14 }
  - { offsetInCU: 0x15D1D, offset: 0x668F7, size: 0x8, addend: 0x0, symName: __ZNSt3__117__compressed_pairIfNS_21__unordered_map_equalINS_12basic_stringIcNS_11char_traitsIcEENS_9allocatorIcEEEENS_17__hash_value_typeIS7_P9BasicMeshEENS_8equal_toIS7_EENS_4hashIS7_EELb1EEEE6secondB8ue170006Ev, symObjAddr: 0x12254, symBinAddr: 0x1000321D4, symSize: 0x24 }
  - { offsetInCU: 0x15D43, offset: 0x6691D, size: 0x8, addend: 0x0, symName: __ZNSt3__122__compressed_pair_elemINS_21__unordered_map_equalINS_12basic_stringIcNS_11char_traitsIcEENS_9allocatorIcEEEENS_17__hash_value_typeIS7_P9BasicMeshEENS_8equal_toIS7_EENS_4hashIS7_EELb1EEELi1ELb1EE5__getB8ue170006Ev, symObjAddr: 0x12278, symBinAddr: 0x1000321F8, symSize: 0x14 }
  - { offsetInCU: 0x15D69, offset: 0x66943, size: 0x8, addend: 0x0, symName: __ZNKSt3__117__hash_value_typeINS_12basic_stringIcNS_11char_traitsIcEENS_9allocatorIcEEEEP9BasicMeshE11__get_valueB8ue170006Ev, symObjAddr: 0x122C0, symBinAddr: 0x10003220C, symSize: 0x24 }
  - { offsetInCU: 0x15D8F, offset: 0x66969, size: 0x8, addend: 0x0, symName: __ZNSt3__116allocator_traitsINS_9allocatorINS_11__hash_nodeINS_17__hash_value_typeINS_12basic_stringIcNS_11char_traitsIcEENS1_IcEEEEP9BasicMeshEEPvEEEEE8allocateB8ue170006ERSE_m, symObjAddr: 0x125AC, symBinAddr: 0x100032268, symSize: 0x2C }
  - { offsetInCU: 0x15DC2, offset: 0x6699C, size: 0x8, addend: 0x0, symName: __ZNSt3__122__hash_node_destructorINS_9allocatorINS_11__hash_nodeINS_17__hash_value_typeINS_12basic_stringIcNS_11char_traitsIcEENS1_IcEEEEP9BasicMeshEEPvEEEEEC1B8ue170006ERSE_b, symObjAddr: 0x125D8, symBinAddr: 0x100032294, symSize: 0x48 }
  - { offsetInCU: 0x15E0F, offset: 0x669E9, size: 0x8, addend: 0x0, symName: __ZNSt3__110unique_ptrINS_11__hash_nodeINS_17__hash_value_typeINS_12basic_stringIcNS_11char_traitsIcEENS_9allocatorIcEEEEP9BasicMeshEEPvEENS_22__hash_node_destructorINS6_ISD_EEEEEC1B8ue170006ILb1EvEEPSD_NS_16__dependent_typeINS_27__unique_ptr_deleter_sfinaeISG_EEXT_EE20__good_rval_ref_typeE, symObjAddr: 0x12620, symBinAddr: 0x1000322DC, symSize: 0x3C }
  - { offsetInCU: 0x15E60, offset: 0x66A3A, size: 0x8, addend: 0x0, symName: __ZNSt3__116allocator_traitsINS_9allocatorINS_11__hash_nodeINS_17__hash_value_typeINS_12basic_stringIcNS_11char_traitsIcEENS1_IcEEEEP9BasicMeshEEPvEEEEE9constructB8ue170006INS_4pairIKS8_SA_EEJRKSJ_EvEEvRSE_PT_DpOT0_, symObjAddr: 0x1265C, symBinAddr: 0x100032318, symSize: 0x34 }
  - { offsetInCU: 0x15EB7, offset: 0x66A91, size: 0x8, addend: 0x0, symName: __ZNSt3__110unique_ptrINS_11__hash_nodeINS_17__hash_value_typeINS_12basic_stringIcNS_11char_traitsIcEENS_9allocatorIcEEEEP9BasicMeshEEPvEENS_22__hash_node_destructorINS6_ISD_EEEEE11get_deleterB8ue170006Ev, symObjAddr: 0x126B4, symBinAddr: 0x10003234C, symSize: 0x24 }
  - { offsetInCU: 0x15EDD, offset: 0x66AB7, size: 0x8, addend: 0x0, symName: __ZNSt3__19allocatorINS_11__hash_nodeINS_17__hash_value_typeINS_12basic_stringIcNS_11char_traitsIcEENS0_IcEEEEP9BasicMeshEEPvEEE8allocateB8ue170006Em, symObjAddr: 0x12710, symBinAddr: 0x100032370, symSize: 0x60 }
  - { offsetInCU: 0x15F1B, offset: 0x66AF5, size: 0x8, addend: 0x0, symName: __ZNSt3__116allocator_traitsINS_9allocatorINS_11__hash_nodeINS_17__hash_value_typeINS_12basic_stringIcNS_11char_traitsIcEENS1_IcEEEEP9BasicMeshEEPvEEEEE8max_sizeB8ue170006ISE_vEEmRKSE_, symObjAddr: 0x12770, symBinAddr: 0x1000323D0, symSize: 0x24 }
  - { offsetInCU: 0x15F49, offset: 0x66B23, size: 0x8, addend: 0x0, symName: __ZNKSt3__19allocatorINS_11__hash_nodeINS_17__hash_value_typeINS_12basic_stringIcNS_11char_traitsIcEENS0_IcEEEEP9BasicMeshEEPvEEE8max_sizeB8ue170006Ev, symObjAddr: 0x12794, symBinAddr: 0x1000323F4, symSize: 0x18 }
  - { offsetInCU: 0x15F6F, offset: 0x66B49, size: 0x8, addend: 0x0, symName: __ZNSt3__122__hash_node_destructorINS_9allocatorINS_11__hash_nodeINS_17__hash_value_typeINS_12basic_stringIcNS_11char_traitsIcEENS1_IcEEEEP9BasicMeshEEPvEEEEEC2B8ue170006ERSE_b, symObjAddr: 0x127AC, symBinAddr: 0x10003240C, symSize: 0xF0 }
  - { offsetInCU: 0x15FB7, offset: 0x66B91, size: 0x8, addend: 0x0, symName: __ZNSt3__110unique_ptrINS_11__hash_nodeINS_17__hash_value_typeINS_12basic_stringIcNS_11char_traitsIcEENS_9allocatorIcEEEEP9BasicMeshEEPvEENS_22__hash_node_destructorINS6_ISD_EEEEEC2B8ue170006ILb1EvEEPSD_NS_16__dependent_typeINS_27__unique_ptr_deleter_sfinaeISG_EEXT_EE20__good_rval_ref_typeE, symObjAddr: 0x1289C, symBinAddr: 0x1000324FC, symSize: 0x21C }
  - { offsetInCU: 0x1600E, offset: 0x66BE8, size: 0x8, addend: 0x0, symName: __ZNSt3__117__compressed_pairIPNS_11__hash_nodeINS_17__hash_value_typeINS_12basic_stringIcNS_11char_traitsIcEENS_9allocatorIcEEEEP9BasicMeshEEPvEENS_22__hash_node_destructorINS6_ISD_EEEEEC1B8ue170006IRSE_SH_EEOT_OT0_, symObjAddr: 0x12AB8, symBinAddr: 0x100032718, symSize: 0x3C }
  - { offsetInCU: 0x16066, offset: 0x66C40, size: 0x8, addend: 0x0, symName: __ZNSt3__117__compressed_pairIPNS_11__hash_nodeINS_17__hash_value_typeINS_12basic_stringIcNS_11char_traitsIcEENS_9allocatorIcEEEEP9BasicMeshEEPvEENS_22__hash_node_destructorINS6_ISD_EEEEEC2B8ue170006IRSE_SH_EEOT_OT0_, symObjAddr: 0x12AF4, symBinAddr: 0x100032754, symSize: 0x48 }
  - { offsetInCU: 0x160BE, offset: 0x66C98, size: 0x8, addend: 0x0, symName: __ZNSt3__122__compressed_pair_elemIPNS_11__hash_nodeINS_17__hash_value_typeINS_12basic_stringIcNS_11char_traitsIcEENS_9allocatorIcEEEEP9BasicMeshEEPvEELi0ELb0EEC2B8ue170006IRSE_vEEOT_, symObjAddr: 0x12B3C, symBinAddr: 0x10003279C, symSize: 0xB0 }
  - { offsetInCU: 0x16100, offset: 0x66CDA, size: 0x8, addend: 0x0, symName: __ZNSt3__122__compressed_pair_elemINS_22__hash_node_destructorINS_9allocatorINS_11__hash_nodeINS_17__hash_value_typeINS_12basic_stringIcNS_11char_traitsIcEENS2_IcEEEEP9BasicMeshEEPvEEEEEELi1ELb0EEC2B8ue170006ISG_vEEOT_, symObjAddr: 0x12BEC, symBinAddr: 0x10003284C, symSize: 0x38 }
  - { offsetInCU: 0x16142, offset: 0x66D1C, size: 0x8, addend: 0x0, symName: __ZNSt3__19allocatorINS_11__hash_nodeINS_17__hash_value_typeINS_12basic_stringIcNS_11char_traitsIcEENS0_IcEEEEP9BasicMeshEEPvEEE9constructB8ue170006INS_4pairIKS7_S9_EEJRKSH_EEEvPT_DpOT0_, symObjAddr: 0x12C24, symBinAddr: 0x100032884, symSize: 0x30 }
  - { offsetInCU: 0x16198, offset: 0x66D72, size: 0x8, addend: 0x0, symName: __ZNSt3__14pairIKNS_12basic_stringIcNS_11char_traitsIcEENS_9allocatorIcEEEEP9BasicMeshEC1B8ue170006ERKSA_, symObjAddr: 0x12C54, symBinAddr: 0x1000328B4, symSize: 0x34 }
  - { offsetInCU: 0x161CD, offset: 0x66DA7, size: 0x8, addend: 0x0, symName: __ZNSt3__14pairIKNS_12basic_stringIcNS_11char_traitsIcEENS_9allocatorIcEEEEP9BasicMeshEC2B8ue170006ERKSA_, symObjAddr: 0x12C88, symBinAddr: 0x1000328E8, symSize: 0xCC }
  - { offsetInCU: 0x16202, offset: 0x66DDC, size: 0x8, addend: 0x0, symName: __ZNSt3__117__compressed_pairIPNS_11__hash_nodeINS_17__hash_value_typeINS_12basic_stringIcNS_11char_traitsIcEENS_9allocatorIcEEEEP9BasicMeshEEPvEENS_22__hash_node_destructorINS6_ISD_EEEEE6secondB8ue170006Ev, symObjAddr: 0x12D54, symBinAddr: 0x1000329B4, symSize: 0x28 }
  - { offsetInCU: 0x16228, offset: 0x66E02, size: 0x8, addend: 0x0, symName: __ZNSt3__122__compressed_pair_elemINS_22__hash_node_destructorINS_9allocatorINS_11__hash_nodeINS_17__hash_value_typeINS_12basic_stringIcNS_11char_traitsIcEENS2_IcEEEEP9BasicMeshEEPvEEEEEELi1ELb0EE5__getB8ue170006Ev, symObjAddr: 0x12D7C, symBinAddr: 0x1000329DC, symSize: 0x14 }
  - { offsetInCU: 0x1624E, offset: 0x66E28, size: 0x8, addend: 0x0, symName: __ZNSt3__117__compressed_pairImNS_22__unordered_map_hasherINS_12basic_stringIcNS_11char_traitsIcEENS_9allocatorIcEEEENS_17__hash_value_typeIS7_P9BasicMeshEENS_4hashIS7_EENS_8equal_toIS7_EELb1EEEE5firstB8ue170006Ev, symObjAddr: 0x12D90, symBinAddr: 0x1000329F0, symSize: 0x24 }
  - { offsetInCU: 0x16274, offset: 0x66E4E, size: 0x8, addend: 0x0, symName: __ZNSt3__117__compressed_pairIfNS_21__unordered_map_equalINS_12basic_stringIcNS_11char_traitsIcEENS_9allocatorIcEEEENS_17__hash_value_typeIS7_P9BasicMeshEENS_8equal_toIS7_EENS_4hashIS7_EELb1EEEE5firstB8ue170006Ev, symObjAddr: 0x12DC8, symBinAddr: 0x100032A14, symSize: 0x24 }
  - { offsetInCU: 0x1629A, offset: 0x66E74, size: 0x8, addend: 0x0, symName: __ZNSt3__112__hash_tableINS_17__hash_value_typeINS_12basic_stringIcNS_11char_traitsIcEENS_9allocatorIcEEEEP9BasicMeshEENS_22__unordered_map_hasherIS7_SA_NS_4hashIS7_EENS_8equal_toIS7_EELb1EEENS_21__unordered_map_equalIS7_SA_SF_SD_Lb1EEENS5_ISA_EEE8__rehashILb1EEEvm, symObjAddr: 0x12E00, symBinAddr: 0x100032A38, symSize: 0x784 }
  - { offsetInCU: 0x162F0, offset: 0x66ECA, size: 0x8, addend: 0x0, symName: __ZNSt3__112__hash_tableINS_17__hash_value_typeINS_12basic_stringIcNS_11char_traitsIcEENS_9allocatorIcEEEEP9BasicMeshEENS_22__unordered_map_hasherIS7_SA_NS_4hashIS7_EENS_8equal_toIS7_EELb1EEENS_21__unordered_map_equalIS7_SA_SF_SD_Lb1EEENS5_ISA_EEE11__do_rehashILb1EEEvm, symObjAddr: 0x13584, symBinAddr: 0x1000331BC, symSize: 0x5BC }
  - { offsetInCU: 0x163D5, offset: 0x66FAF, size: 0x8, addend: 0x0, symName: __ZNSt3__110unique_ptrIA_PNS_16__hash_node_baseIPNS_11__hash_nodeINS_17__hash_value_typeINS_12basic_stringIcNS_11char_traitsIcEENS_9allocatorIcEEEEP9BasicMeshEEPvEEEENS_25__bucket_list_deallocatorINS7_ISH_EEEEE11get_deleterB8ue170006Ev, symObjAddr: 0x13BAC, symBinAddr: 0x100033778, symSize: 0x24 }
  - { offsetInCU: 0x163FB, offset: 0x66FD5, size: 0x8, addend: 0x0, symName: __ZNSt3__110unique_ptrIA_PNS_16__hash_node_baseIPNS_11__hash_nodeINS_17__hash_value_typeINS_12basic_stringIcNS_11char_traitsIcEENS_9allocatorIcEEEEP9BasicMeshEEPvEEEENS_25__bucket_list_deallocatorINS7_ISH_EEEEE5resetB8ue170006IPSH_EENS_9enable_ifIXsr28_CheckArrayPointerConversionIT_EE5valueEvE4typeESQ_, symObjAddr: 0x13BF4, symBinAddr: 0x10003379C, symSize: 0xEC }
  - { offsetInCU: 0x16448, offset: 0x67022, size: 0x8, addend: 0x0, symName: __ZNSt3__116allocator_traitsINS_9allocatorIPNS_16__hash_node_baseIPNS_11__hash_nodeINS_17__hash_value_typeINS_12basic_stringIcNS_11char_traitsIcEENS1_IcEEEEP9BasicMeshEEPvEEEEEEE8allocateB8ue170006ERSI_m, symObjAddr: 0x13CE0, symBinAddr: 0x100033888, symSize: 0x2C }
  - { offsetInCU: 0x1647B, offset: 0x67055, size: 0x8, addend: 0x0, symName: __ZNSt3__19allocatorIPNS_16__hash_node_baseIPNS_11__hash_nodeINS_17__hash_value_typeINS_12basic_stringIcNS_11char_traitsIcEENS0_IcEEEEP9BasicMeshEEPvEEEEE8allocateB8ue170006Em, symObjAddr: 0x13EF4, symBinAddr: 0x1000338B4, symSize: 0x5C }
  - { offsetInCU: 0x164B9, offset: 0x67093, size: 0x8, addend: 0x0, symName: __ZNSt3__116allocator_traitsINS_9allocatorIPNS_16__hash_node_baseIPNS_11__hash_nodeINS_17__hash_value_typeINS_12basic_stringIcNS_11char_traitsIcEENS1_IcEEEEP9BasicMeshEEPvEEEEEEE8max_sizeB8ue170006ISI_vEEmRKSI_, symObjAddr: 0x13F50, symBinAddr: 0x100033910, symSize: 0x24 }
  - { offsetInCU: 0x164E7, offset: 0x670C1, size: 0x8, addend: 0x0, symName: __ZNKSt3__19allocatorIPNS_16__hash_node_baseIPNS_11__hash_nodeINS_17__hash_value_typeINS_12basic_stringIcNS_11char_traitsIcEENS0_IcEEEEP9BasicMeshEEPvEEEEE8max_sizeB8ue170006Ev, symObjAddr: 0x13F74, symBinAddr: 0x100033934, symSize: 0x14 }
  - { offsetInCU: 0x1650D, offset: 0x670E7, size: 0x8, addend: 0x0, symName: __ZNKSt3__117__compressed_pairIPNS_11__hash_nodeINS_17__hash_value_typeINS_12basic_stringIcNS_11char_traitsIcEENS_9allocatorIcEEEEP9BasicMeshEEPvEENS_22__hash_node_destructorINS6_ISD_EEEEE5firstB8ue170006Ev, symObjAddr: 0x141B0, symBinAddr: 0x100033948, symSize: 0x24 }
  - { offsetInCU: 0x16533, offset: 0x6710D, size: 0x8, addend: 0x0, symName: __ZNKSt3__122__compressed_pair_elemIPNS_11__hash_nodeINS_17__hash_value_typeINS_12basic_stringIcNS_11char_traitsIcEENS_9allocatorIcEEEEP9BasicMeshEEPvEELi0ELb0EE5__getB8ue170006Ev, symObjAddr: 0x141D4, symBinAddr: 0x10003396C, symSize: 0x14 }
  - { offsetInCU: 0x16559, offset: 0x67133, size: 0x8, addend: 0x0, symName: __ZNSt3__117__compressed_pairIPNS_11__hash_nodeINS_17__hash_value_typeINS_12basic_stringIcNS_11char_traitsIcEENS_9allocatorIcEEEEP9BasicMeshEEPvEENS_22__hash_node_destructorINS6_ISD_EEEEE5firstB8ue170006Ev, symObjAddr: 0x141E8, symBinAddr: 0x100033980, symSize: 0x24 }
  - { offsetInCU: 0x1657F, offset: 0x67159, size: 0x8, addend: 0x0, symName: __ZNSt3__122__compressed_pair_elemIPNS_11__hash_nodeINS_17__hash_value_typeINS_12basic_stringIcNS_11char_traitsIcEENS_9allocatorIcEEEEP9BasicMeshEEPvEELi0ELb0EE5__getB8ue170006Ev, symObjAddr: 0x1420C, symBinAddr: 0x1000339A4, symSize: 0x14 }
  - { offsetInCU: 0x165A5, offset: 0x6717F, size: 0x8, addend: 0x0, symName: __ZNSt3__110unique_ptrINS_11__hash_nodeINS_17__hash_value_typeINS_12basic_stringIcNS_11char_traitsIcEENS_9allocatorIcEEEEP9BasicMeshEEPvEENS_22__hash_node_destructorINS6_ISD_EEEEED2B8ue170006Ev, symObjAddr: 0x14220, symBinAddr: 0x1000339B8, symSize: 0x30 }
  - { offsetInCU: 0x165CF, offset: 0x671A9, size: 0x8, addend: 0x0, symName: __ZNSt3__110unique_ptrINS_11__hash_nodeINS_17__hash_value_typeINS_12basic_stringIcNS_11char_traitsIcEENS_9allocatorIcEEEEP9BasicMeshEEPvEENS_22__hash_node_destructorINS6_ISD_EEEEE5resetB8ue170006EPSD_, symObjAddr: 0x14250, symBinAddr: 0x1000339E8, symSize: 0xEC }
  - { offsetInCU: 0x16613, offset: 0x671ED, size: 0x8, addend: 0x0, symName: __ZNSt3__122__hash_node_destructorINS_9allocatorINS_11__hash_nodeINS_17__hash_value_typeINS_12basic_stringIcNS_11char_traitsIcEENS1_IcEEEEP9BasicMeshEEPvEEEEEclB8ue170006EPSD_, symObjAddr: 0x1433C, symBinAddr: 0x100033AD4, symSize: 0x160 }
  - { offsetInCU: 0x16648, offset: 0x67222, size: 0x8, addend: 0x0, symName: __ZNSt3__14pairINS_15__hash_iteratorIPNS_11__hash_nodeINS_17__hash_value_typeINS_12basic_stringIcNS_11char_traitsIcEENS_9allocatorIcEEEEP9BasicMeshEEPvEEEEbEC2B8ue170006ISG_RbLSD_0EEEOT_OT0_, symObjAddr: 0x145A0, symBinAddr: 0x100033C34, symSize: 0x120 }
  - { offsetInCU: 0x166A6, offset: 0x67280, size: 0x8, addend: 0x0, symName: __ZNSt3__14pairINS_19__hash_map_iteratorINS_15__hash_iteratorIPNS_11__hash_nodeINS_17__hash_value_typeINS_12basic_stringIcNS_11char_traitsIcEENS_9allocatorIcEEEEP9BasicMeshEEPvEEEEEEbEC2B8ue170006ISH_bLSE_0EEEONS0_IT_T0_EE, symObjAddr: 0x146C0, symBinAddr: 0x100033D54, symSize: 0x2E8 }
  - { offsetInCU: 0x166F9, offset: 0x672D3, size: 0x8, addend: 0x0, symName: __ZNSt3__112__hash_tableINS_17__hash_value_typeINS_12basic_stringIcNS_11char_traitsIcEENS_9allocatorIcEEEEP5ModelEENS_22__unordered_map_hasherIS7_SA_NS_4hashIS7_EENS_8equal_toIS7_EELb1EEENS_21__unordered_map_equalIS7_SA_SF_SD_Lb1EEENS5_ISA_EEE5beginEv, symObjAddr: 0x149A8, symBinAddr: 0x10003403C, symSize: 0x23C }
  - { offsetInCU: 0x16722, offset: 0x672FC, size: 0x8, addend: 0x0, symName: __ZNSt3__119__hash_map_iteratorINS_15__hash_iteratorIPNS_11__hash_nodeINS_17__hash_value_typeINS_12basic_stringIcNS_11char_traitsIcEENS_9allocatorIcEEEEP5ModelEEPvEEEEEC1B8ue170006ESG_, symObjAddr: 0x14BE4, symBinAddr: 0x100034278, symSize: 0x238 }
  - { offsetInCU: 0x16760, offset: 0x6733A, size: 0x8, addend: 0x0, symName: __ZNSt3__115__hash_iteratorIPNS_11__hash_nodeINS_17__hash_value_typeINS_12basic_stringIcNS_11char_traitsIcEENS_9allocatorIcEEEEP5ModelEEPvEEEC1B8ue170006EPNS_16__hash_node_baseISE_EE, symObjAddr: 0x14E40, symBinAddr: 0x1000344B0, symSize: 0x34 }
  - { offsetInCU: 0x16799, offset: 0x67373, size: 0x8, addend: 0x0, symName: __ZNSt3__115__hash_iteratorIPNS_11__hash_nodeINS_17__hash_value_typeINS_12basic_stringIcNS_11char_traitsIcEENS_9allocatorIcEEEEP5ModelEEPvEEEC2B8ue170006EPNS_16__hash_node_baseISE_EE, symObjAddr: 0x14E88, symBinAddr: 0x1000344E4, symSize: 0x70 }
  - { offsetInCU: 0x167D2, offset: 0x673AC, size: 0x8, addend: 0x0, symName: __ZNSt3__119__hash_map_iteratorINS_15__hash_iteratorIPNS_11__hash_nodeINS_17__hash_value_typeINS_12basic_stringIcNS_11char_traitsIcEENS_9allocatorIcEEEEP5ModelEEPvEEEEEC2B8ue170006ESG_, symObjAddr: 0x14EF8, symBinAddr: 0x100034554, symSize: 0x204 }
  - { offsetInCU: 0x16810, offset: 0x673EA, size: 0x8, addend: 0x0, symName: __ZNSt3__112__hash_tableINS_17__hash_value_typeINS_12basic_stringIcNS_11char_traitsIcEENS_9allocatorIcEEEEP5ModelEENS_22__unordered_map_hasherIS7_SA_NS_4hashIS7_EENS_8equal_toIS7_EELb1EEENS_21__unordered_map_equalIS7_SA_SF_SD_Lb1EEENS5_ISA_EEE3endEv, symObjAddr: 0x150FC, symBinAddr: 0x100034758, symSize: 0x1F8 }
  - { offsetInCU: 0x16839, offset: 0x67413, size: 0x8, addend: 0x0, symName: __ZNSt3__115__hash_iteratorIPNS_11__hash_nodeINS_17__hash_value_typeINS_12basic_stringIcNS_11char_traitsIcEENS_9allocatorIcEEEEP5ModelEEPvEEEppB8ue170006Ev, symObjAddr: 0x153E0, symBinAddr: 0x100034A3C, symSize: 0xDC }
  - { offsetInCU: 0x1685F, offset: 0x67439, size: 0x8, addend: 0x0, symName: __ZNKSt3__115__hash_iteratorIPNS_11__hash_nodeINS_17__hash_value_typeINS_12basic_stringIcNS_11char_traitsIcEENS_9allocatorIcEEEEP5ModelEEPvEEEptB8ue170006Ev, symObjAddr: 0x154BC, symBinAddr: 0x100034B18, symSize: 0x6C }
  - { offsetInCU: 0x16885, offset: 0x6745F, size: 0x8, addend: 0x0, symName: __ZNSt3__114pointer_traitsIPNS_17__hash_value_typeINS_12basic_stringIcNS_11char_traitsIcEENS_9allocatorIcEEEEP5ModelEEE10pointer_toB8ue170006ERSA_, symObjAddr: 0x1554C, symBinAddr: 0x100034B84, symSize: 0x14 }
  - { offsetInCU: 0x168A8, offset: 0x67482, size: 0x8, addend: 0x0, symName: __ZNSt3__112__hash_tableINS_17__hash_value_typeINS_12basic_stringIcNS_11char_traitsIcEENS_9allocatorIcEEEEP5ModelEENS_22__unordered_map_hasherIS7_SA_NS_4hashIS7_EENS_8equal_toIS7_EELb1EEENS_21__unordered_map_equalIS7_SA_SF_SD_Lb1EEENS5_ISA_EEE15__insert_uniqueB8ue170006ERKNS_4pairIKS7_S9_EE, symObjAddr: 0x155D0, symBinAddr: 0x100034B98, symSize: 0x238 }
  - { offsetInCU: 0x168DF, offset: 0x674B9, size: 0x8, addend: 0x0, symName: __ZNSt3__14pairINS_19__hash_map_iteratorINS_15__hash_iteratorIPNS_11__hash_nodeINS_17__hash_value_typeINS_12basic_stringIcNS_11char_traitsIcEENS_9allocatorIcEEEEP5ModelEEPvEEEEEEbEC1B8ue170006ISH_bLSE_0EEEONS0_IT_T0_EE, symObjAddr: 0x15808, symBinAddr: 0x100034DD0, symSize: 0x34 }
  - { offsetInCU: 0x16930, offset: 0x6750A, size: 0x8, addend: 0x0, symName: __ZNSt3__112__hash_tableINS_17__hash_value_typeINS_12basic_stringIcNS_11char_traitsIcEENS_9allocatorIcEEEEP5ModelEENS_22__unordered_map_hasherIS7_SA_NS_4hashIS7_EENS_8equal_toIS7_EELb1EEENS_21__unordered_map_equalIS7_SA_SF_SD_Lb1EEENS5_ISA_EEE25__emplace_unique_key_argsIS7_JRKNS_4pairIKS7_S9_EEEEENSM_INS_15__hash_iteratorIPNS_11__hash_nodeISA_PvEEEEbEERKT_DpOT0_, symObjAddr: 0x1583C, symBinAddr: 0x100034E04, symSize: 0xDF4 }
  - { offsetInCU: 0x16A1B, offset: 0x675F5, size: 0x8, addend: 0x0, symName: __ZNSt3__122__hash_key_value_typesINS_17__hash_value_typeINS_12basic_stringIcNS_11char_traitsIcEENS_9allocatorIcEEEEP5ModelEEE9__get_keyB8ue170006ERKNS_4pairIKS7_S9_EE, symObjAddr: 0x16630, symBinAddr: 0x100035BF8, symSize: 0x14 }
  - { offsetInCU: 0x16A3E, offset: 0x67618, size: 0x8, addend: 0x0, symName: __ZNSt3__112__hash_tableINS_17__hash_value_typeINS_12basic_stringIcNS_11char_traitsIcEENS_9allocatorIcEEEEP5ModelEENS_22__unordered_map_hasherIS7_SA_NS_4hashIS7_EENS_8equal_toIS7_EELb1EEENS_21__unordered_map_equalIS7_SA_SF_SD_Lb1EEENS5_ISA_EEE13hash_functionB8ue170006Ev, symObjAddr: 0x16644, symBinAddr: 0x100035C0C, symSize: 0x28 }
  - { offsetInCU: 0x16A64, offset: 0x6763E, size: 0x8, addend: 0x0, symName: __ZNKSt3__122__unordered_map_hasherINS_12basic_stringIcNS_11char_traitsIcEENS_9allocatorIcEEEENS_17__hash_value_typeIS6_P5ModelEENS_4hashIS6_EENS_8equal_toIS6_EELb1EEclB8ue170006ERKS6_, symObjAddr: 0x1666C, symBinAddr: 0x100035C34, symSize: 0x2C }
  - { offsetInCU: 0x16A99, offset: 0x67673, size: 0x8, addend: 0x0, symName: __ZNKSt3__112__hash_tableINS_17__hash_value_typeINS_12basic_stringIcNS_11char_traitsIcEENS_9allocatorIcEEEEP5ModelEENS_22__unordered_map_hasherIS7_SA_NS_4hashIS7_EENS_8equal_toIS7_EELb1EEENS_21__unordered_map_equalIS7_SA_SF_SD_Lb1EEENS5_ISA_EEE12bucket_countB8ue170006Ev, symObjAddr: 0x16698, symBinAddr: 0x100035C60, symSize: 0x28 }
  - { offsetInCU: 0x16ABF, offset: 0x67699, size: 0x8, addend: 0x0, symName: __ZNKSt3__110unique_ptrIA_PNS_16__hash_node_baseIPNS_11__hash_nodeINS_17__hash_value_typeINS_12basic_stringIcNS_11char_traitsIcEENS_9allocatorIcEEEEP5ModelEEPvEEEENS_25__bucket_list_deallocatorINS7_ISH_EEEEEixB8ue170006Em, symObjAddr: 0x166C0, symBinAddr: 0x100035C88, symSize: 0x78 }
  - { offsetInCU: 0x16AF4, offset: 0x676CE, size: 0x8, addend: 0x0, symName: __ZNKSt3__116__hash_node_baseIPNS_11__hash_nodeINS_17__hash_value_typeINS_12basic_stringIcNS_11char_traitsIcEENS_9allocatorIcEEEEP5ModelEEPvEEE6__hashB8ue170006Ev, symObjAddr: 0x16738, symBinAddr: 0x100035D00, symSize: 0x64 }
  - { offsetInCU: 0x16B1A, offset: 0x676F4, size: 0x8, addend: 0x0, symName: __ZNSt3__112__hash_tableINS_17__hash_value_typeINS_12basic_stringIcNS_11char_traitsIcEENS_9allocatorIcEEEEP5ModelEENS_22__unordered_map_hasherIS7_SA_NS_4hashIS7_EENS_8equal_toIS7_EELb1EEENS_21__unordered_map_equalIS7_SA_SF_SD_Lb1EEENS5_ISA_EEE6key_eqB8ue170006Ev, symObjAddr: 0x1679C, symBinAddr: 0x100035D64, symSize: 0x28 }
  - { offsetInCU: 0x16B40, offset: 0x6771A, size: 0x8, addend: 0x0, symName: __ZNKSt3__121__unordered_map_equalINS_12basic_stringIcNS_11char_traitsIcEENS_9allocatorIcEEEENS_17__hash_value_typeIS6_P5ModelEENS_8equal_toIS6_EENS_4hashIS6_EELb1EEclB8ue170006ERKSA_RKS6_, symObjAddr: 0x167C4, symBinAddr: 0x100035D8C, symSize: 0x48 }
  - { offsetInCU: 0x16B84, offset: 0x6775E, size: 0x8, addend: 0x0, symName: __ZNSt3__112__hash_tableINS_17__hash_value_typeINS_12basic_stringIcNS_11char_traitsIcEENS_9allocatorIcEEEEP5ModelEENS_22__unordered_map_hasherIS7_SA_NS_4hashIS7_EENS_8equal_toIS7_EELb1EEENS_21__unordered_map_equalIS7_SA_SF_SD_Lb1EEENS5_ISA_EEE21__construct_node_hashIRKNS_4pairIKS7_S9_EEJEEENS_10unique_ptrINS_11__hash_nodeISA_PvEENS_22__hash_node_destructorINS5_ISU_EEEEEEmOT_DpOT0_, symObjAddr: 0x1680C, symBinAddr: 0x100035DD4, symSize: 0x418 }
  - { offsetInCU: 0x16BFC, offset: 0x677D6, size: 0x8, addend: 0x0, symName: __ZNSt3__112__hash_tableINS_17__hash_value_typeINS_12basic_stringIcNS_11char_traitsIcEENS_9allocatorIcEEEEP5ModelEENS_22__unordered_map_hasherIS7_SA_NS_4hashIS7_EENS_8equal_toIS7_EELb1EEENS_21__unordered_map_equalIS7_SA_SF_SD_Lb1EEENS5_ISA_EEE4sizeB8ue170006Ev, symObjAddr: 0x16C24, symBinAddr: 0x1000361EC, symSize: 0x28 }
  - { offsetInCU: 0x16C22, offset: 0x677FC, size: 0x8, addend: 0x0, symName: __ZNSt3__112__hash_tableINS_17__hash_value_typeINS_12basic_stringIcNS_11char_traitsIcEENS_9allocatorIcEEEEP5ModelEENS_22__unordered_map_hasherIS7_SA_NS_4hashIS7_EENS_8equal_toIS7_EELb1EEENS_21__unordered_map_equalIS7_SA_SF_SD_Lb1EEENS5_ISA_EEE15max_load_factorB8ue170006Ev, symObjAddr: 0x16C4C, symBinAddr: 0x100036214, symSize: 0x28 }
  - { offsetInCU: 0x16C48, offset: 0x67822, size: 0x8, addend: 0x0, symName: __ZNSt3__112__hash_tableINS_17__hash_value_typeINS_12basic_stringIcNS_11char_traitsIcEENS_9allocatorIcEEEEP5ModelEENS_22__unordered_map_hasherIS7_SA_NS_4hashIS7_EENS_8equal_toIS7_EELb1EEENS_21__unordered_map_equalIS7_SA_SF_SD_Lb1EEENS5_ISA_EEE15__rehash_uniqueB8ue170006Em, symObjAddr: 0x16C74, symBinAddr: 0x10003623C, symSize: 0x2C }
  - { offsetInCU: 0x16C7D, offset: 0x67857, size: 0x8, addend: 0x0, symName: __ZNSt3__116__hash_node_baseIPNS_11__hash_nodeINS_17__hash_value_typeINS_12basic_stringIcNS_11char_traitsIcEENS_9allocatorIcEEEEP5ModelEEPvEEE5__ptrB8ue170006Ev, symObjAddr: 0x16CA0, symBinAddr: 0x100036268, symSize: 0x24 }
  - { offsetInCU: 0x16CA3, offset: 0x6787D, size: 0x8, addend: 0x0, symName: __ZNKSt3__110unique_ptrINS_11__hash_nodeINS_17__hash_value_typeINS_12basic_stringIcNS_11char_traitsIcEENS_9allocatorIcEEEEP5ModelEEPvEENS_22__hash_node_destructorINS6_ISD_EEEEEptB8ue170006Ev, symObjAddr: 0x16CC4, symBinAddr: 0x10003628C, symSize: 0x6C }
  - { offsetInCU: 0x16CC9, offset: 0x678A3, size: 0x8, addend: 0x0, symName: __ZNKSt3__110unique_ptrINS_11__hash_nodeINS_17__hash_value_typeINS_12basic_stringIcNS_11char_traitsIcEENS_9allocatorIcEEEEP5ModelEEPvEENS_22__hash_node_destructorINS6_ISD_EEEEE3getB8ue170006Ev, symObjAddr: 0x16D30, symBinAddr: 0x1000362F8, symSize: 0x6C }
  - { offsetInCU: 0x16CEF, offset: 0x678C9, size: 0x8, addend: 0x0, symName: __ZNSt3__110unique_ptrINS_11__hash_nodeINS_17__hash_value_typeINS_12basic_stringIcNS_11char_traitsIcEENS_9allocatorIcEEEEP5ModelEEPvEENS_22__hash_node_destructorINS6_ISD_EEEEE7releaseB8ue170006Ev, symObjAddr: 0x16D9C, symBinAddr: 0x100036364, symSize: 0xB8 }
  - { offsetInCU: 0x16D24, offset: 0x678FE, size: 0x8, addend: 0x0, symName: __ZNSt3__110unique_ptrINS_11__hash_nodeINS_17__hash_value_typeINS_12basic_stringIcNS_11char_traitsIcEENS_9allocatorIcEEEEP5ModelEEPvEENS_22__hash_node_destructorINS6_ISD_EEEEED1B8ue170006Ev, symObjAddr: 0x16E54, symBinAddr: 0x10003641C, symSize: 0x2C }
  - { offsetInCU: 0x16D53, offset: 0x6792D, size: 0x8, addend: 0x0, symName: __ZNSt3__14pairINS_15__hash_iteratorIPNS_11__hash_nodeINS_17__hash_value_typeINS_12basic_stringIcNS_11char_traitsIcEENS_9allocatorIcEEEEP5ModelEEPvEEEEbEC1B8ue170006ISG_RbLSD_0EEEOT_OT0_, symObjAddr: 0x16E80, symBinAddr: 0x100036448, symSize: 0x3C }
  - { offsetInCU: 0x16DB1, offset: 0x6798B, size: 0x8, addend: 0x0, symName: __ZNSt3__117__compressed_pairImNS_22__unordered_map_hasherINS_12basic_stringIcNS_11char_traitsIcEENS_9allocatorIcEEEENS_17__hash_value_typeIS7_P5ModelEENS_4hashIS7_EENS_8equal_toIS7_EELb1EEEE6secondB8ue170006Ev, symObjAddr: 0x16EBC, symBinAddr: 0x100036484, symSize: 0x24 }
  - { offsetInCU: 0x16DD7, offset: 0x679B1, size: 0x8, addend: 0x0, symName: __ZNSt3__122__compressed_pair_elemINS_22__unordered_map_hasherINS_12basic_stringIcNS_11char_traitsIcEENS_9allocatorIcEEEENS_17__hash_value_typeIS7_P5ModelEENS_4hashIS7_EENS_8equal_toIS7_EELb1EEELi1ELb1EE5__getB8ue170006Ev, symObjAddr: 0x16EE0, symBinAddr: 0x1000364A8, symSize: 0x14 }
  - { offsetInCU: 0x16DFD, offset: 0x679D7, size: 0x8, addend: 0x0, symName: __ZNKSt3__110unique_ptrIA_PNS_16__hash_node_baseIPNS_11__hash_nodeINS_17__hash_value_typeINS_12basic_stringIcNS_11char_traitsIcEENS_9allocatorIcEEEEP5ModelEEPvEEEENS_25__bucket_list_deallocatorINS7_ISH_EEEEE11get_deleterB8ue170006Ev, symObjAddr: 0x16EF4, symBinAddr: 0x1000364BC, symSize: 0x24 }
  - { offsetInCU: 0x16E23, offset: 0x679FD, size: 0x8, addend: 0x0, symName: __ZNKSt3__125__bucket_list_deallocatorINS_9allocatorIPNS_16__hash_node_baseIPNS_11__hash_nodeINS_17__hash_value_typeINS_12basic_stringIcNS_11char_traitsIcEENS1_IcEEEEP5ModelEEPvEEEEEEE4sizeB8ue170006Ev, symObjAddr: 0x16F18, symBinAddr: 0x1000364E0, symSize: 0x6C }
  - { offsetInCU: 0x16E49, offset: 0x67A23, size: 0x8, addend: 0x0, symName: __ZNKSt3__117__compressed_pairIPPNS_16__hash_node_baseIPNS_11__hash_nodeINS_17__hash_value_typeINS_12basic_stringIcNS_11char_traitsIcEENS_9allocatorIcEEEEP5ModelEEPvEEEENS_25__bucket_list_deallocatorINS7_ISH_EEEEE6secondB8ue170006Ev, symObjAddr: 0x16F84, symBinAddr: 0x10003654C, symSize: 0x28 }
  - { offsetInCU: 0x16E6F, offset: 0x67A49, size: 0x8, addend: 0x0, symName: __ZNKSt3__122__compressed_pair_elemINS_25__bucket_list_deallocatorINS_9allocatorIPNS_16__hash_node_baseIPNS_11__hash_nodeINS_17__hash_value_typeINS_12basic_stringIcNS_11char_traitsIcEENS2_IcEEEEP5ModelEEPvEEEEEEEELi1ELb0EE5__getB8ue170006Ev, symObjAddr: 0x16FAC, symBinAddr: 0x100036574, symSize: 0x14 }
  - { offsetInCU: 0x16E95, offset: 0x67A6F, size: 0x8, addend: 0x0, symName: __ZNKSt3__117__compressed_pairImNS_9allocatorIPNS_16__hash_node_baseIPNS_11__hash_nodeINS_17__hash_value_typeINS_12basic_stringIcNS_11char_traitsIcEENS1_IcEEEEP5ModelEEPvEEEEEEE5firstB8ue170006Ev, symObjAddr: 0x16FC0, symBinAddr: 0x100036588, symSize: 0x24 }
  - { offsetInCU: 0x16EBB, offset: 0x67A95, size: 0x8, addend: 0x0, symName: __ZNKSt3__117__compressed_pairIPPNS_16__hash_node_baseIPNS_11__hash_nodeINS_17__hash_value_typeINS_12basic_stringIcNS_11char_traitsIcEENS_9allocatorIcEEEEP5ModelEEPvEEEENS_25__bucket_list_deallocatorINS7_ISH_EEEEE5firstB8ue170006Ev, symObjAddr: 0x16FE4, symBinAddr: 0x1000365AC, symSize: 0x24 }
  - { offsetInCU: 0x16EE1, offset: 0x67ABB, size: 0x8, addend: 0x0, symName: __ZNKSt3__122__compressed_pair_elemIPPNS_16__hash_node_baseIPNS_11__hash_nodeINS_17__hash_value_typeINS_12basic_stringIcNS_11char_traitsIcEENS_9allocatorIcEEEEP5ModelEEPvEEEELi0ELb0EE5__getB8ue170006Ev, symObjAddr: 0x17008, symBinAddr: 0x1000365D0, symSize: 0x14 }
  - { offsetInCU: 0x16F07, offset: 0x67AE1, size: 0x8, addend: 0x0, symName: __ZNSt3__117__compressed_pairIfNS_21__unordered_map_equalINS_12basic_stringIcNS_11char_traitsIcEENS_9allocatorIcEEEENS_17__hash_value_typeIS7_P5ModelEENS_8equal_toIS7_EENS_4hashIS7_EELb1EEEE6secondB8ue170006Ev, symObjAddr: 0x1701C, symBinAddr: 0x1000365E4, symSize: 0x24 }
  - { offsetInCU: 0x16F2D, offset: 0x67B07, size: 0x8, addend: 0x0, symName: __ZNSt3__122__compressed_pair_elemINS_21__unordered_map_equalINS_12basic_stringIcNS_11char_traitsIcEENS_9allocatorIcEEEENS_17__hash_value_typeIS7_P5ModelEENS_8equal_toIS7_EENS_4hashIS7_EELb1EEELi1ELb1EE5__getB8ue170006Ev, symObjAddr: 0x17040, symBinAddr: 0x100036608, symSize: 0x14 }
  - { offsetInCU: 0x16F53, offset: 0x67B2D, size: 0x8, addend: 0x0, symName: __ZNKSt3__117__hash_value_typeINS_12basic_stringIcNS_11char_traitsIcEENS_9allocatorIcEEEEP5ModelE11__get_valueB8ue170006Ev, symObjAddr: 0x17054, symBinAddr: 0x10003661C, symSize: 0x24 }
  - { offsetInCU: 0x16F79, offset: 0x67B53, size: 0x8, addend: 0x0, symName: __ZNSt3__116allocator_traitsINS_9allocatorINS_11__hash_nodeINS_17__hash_value_typeINS_12basic_stringIcNS_11char_traitsIcEENS1_IcEEEEP5ModelEEPvEEEEE8allocateB8ue170006ERSE_m, symObjAddr: 0x170D8, symBinAddr: 0x100036678, symSize: 0x2C }
  - { offsetInCU: 0x16FAC, offset: 0x67B86, size: 0x8, addend: 0x0, symName: __ZNSt3__122__hash_node_destructorINS_9allocatorINS_11__hash_nodeINS_17__hash_value_typeINS_12basic_stringIcNS_11char_traitsIcEENS1_IcEEEEP5ModelEEPvEEEEEC1B8ue170006ERSE_b, symObjAddr: 0x17104, symBinAddr: 0x1000366A4, symSize: 0x48 }
  - { offsetInCU: 0x16FF9, offset: 0x67BD3, size: 0x8, addend: 0x0, symName: __ZNSt3__110unique_ptrINS_11__hash_nodeINS_17__hash_value_typeINS_12basic_stringIcNS_11char_traitsIcEENS_9allocatorIcEEEEP5ModelEEPvEENS_22__hash_node_destructorINS6_ISD_EEEEEC1B8ue170006ILb1EvEEPSD_NS_16__dependent_typeINS_27__unique_ptr_deleter_sfinaeISG_EEXT_EE20__good_rval_ref_typeE, symObjAddr: 0x1714C, symBinAddr: 0x1000366EC, symSize: 0x3C }
  - { offsetInCU: 0x1704A, offset: 0x67C24, size: 0x8, addend: 0x0, symName: __ZNSt3__116allocator_traitsINS_9allocatorINS_11__hash_nodeINS_17__hash_value_typeINS_12basic_stringIcNS_11char_traitsIcEENS1_IcEEEEP5ModelEEPvEEEEE9constructB8ue170006INS_4pairIKS8_SA_EEJRKSJ_EvEEvRSE_PT_DpOT0_, symObjAddr: 0x17188, symBinAddr: 0x100036728, symSize: 0x34 }
  - { offsetInCU: 0x170A1, offset: 0x67C7B, size: 0x8, addend: 0x0, symName: __ZNSt3__110unique_ptrINS_11__hash_nodeINS_17__hash_value_typeINS_12basic_stringIcNS_11char_traitsIcEENS_9allocatorIcEEEEP5ModelEEPvEENS_22__hash_node_destructorINS6_ISD_EEEEE11get_deleterB8ue170006Ev, symObjAddr: 0x171E0, symBinAddr: 0x10003675C, symSize: 0x24 }
  - { offsetInCU: 0x170C7, offset: 0x67CA1, size: 0x8, addend: 0x0, symName: __ZNSt3__19allocatorINS_11__hash_nodeINS_17__hash_value_typeINS_12basic_stringIcNS_11char_traitsIcEENS0_IcEEEEP5ModelEEPvEEE8allocateB8ue170006Em, symObjAddr: 0x1723C, symBinAddr: 0x100036780, symSize: 0x60 }
  - { offsetInCU: 0x17105, offset: 0x67CDF, size: 0x8, addend: 0x0, symName: __ZNSt3__116allocator_traitsINS_9allocatorINS_11__hash_nodeINS_17__hash_value_typeINS_12basic_stringIcNS_11char_traitsIcEENS1_IcEEEEP5ModelEEPvEEEEE8max_sizeB8ue170006ISE_vEEmRKSE_, symObjAddr: 0x1729C, symBinAddr: 0x1000367E0, symSize: 0x24 }
  - { offsetInCU: 0x17133, offset: 0x67D0D, size: 0x8, addend: 0x0, symName: __ZNKSt3__19allocatorINS_11__hash_nodeINS_17__hash_value_typeINS_12basic_stringIcNS_11char_traitsIcEENS0_IcEEEEP5ModelEEPvEEE8max_sizeB8ue170006Ev, symObjAddr: 0x172C0, symBinAddr: 0x100036804, symSize: 0x18 }
  - { offsetInCU: 0x17159, offset: 0x67D33, size: 0x8, addend: 0x0, symName: __ZNSt3__122__hash_node_destructorINS_9allocatorINS_11__hash_nodeINS_17__hash_value_typeINS_12basic_stringIcNS_11char_traitsIcEENS1_IcEEEEP5ModelEEPvEEEEEC2B8ue170006ERSE_b, symObjAddr: 0x172D8, symBinAddr: 0x10003681C, symSize: 0xF0 }
  - { offsetInCU: 0x171A1, offset: 0x67D7B, size: 0x8, addend: 0x0, symName: __ZNSt3__110unique_ptrINS_11__hash_nodeINS_17__hash_value_typeINS_12basic_stringIcNS_11char_traitsIcEENS_9allocatorIcEEEEP5ModelEEPvEENS_22__hash_node_destructorINS6_ISD_EEEEEC2B8ue170006ILb1EvEEPSD_NS_16__dependent_typeINS_27__unique_ptr_deleter_sfinaeISG_EEXT_EE20__good_rval_ref_typeE, symObjAddr: 0x173C8, symBinAddr: 0x10003690C, symSize: 0x21C }
  - { offsetInCU: 0x171F8, offset: 0x67DD2, size: 0x8, addend: 0x0, symName: __ZNSt3__117__compressed_pairIPNS_11__hash_nodeINS_17__hash_value_typeINS_12basic_stringIcNS_11char_traitsIcEENS_9allocatorIcEEEEP5ModelEEPvEENS_22__hash_node_destructorINS6_ISD_EEEEEC1B8ue170006IRSE_SH_EEOT_OT0_, symObjAddr: 0x175E4, symBinAddr: 0x100036B28, symSize: 0x3C }
  - { offsetInCU: 0x17250, offset: 0x67E2A, size: 0x8, addend: 0x0, symName: __ZNSt3__117__compressed_pairIPNS_11__hash_nodeINS_17__hash_value_typeINS_12basic_stringIcNS_11char_traitsIcEENS_9allocatorIcEEEEP5ModelEEPvEENS_22__hash_node_destructorINS6_ISD_EEEEEC2B8ue170006IRSE_SH_EEOT_OT0_, symObjAddr: 0x17620, symBinAddr: 0x100036B64, symSize: 0x48 }
  - { offsetInCU: 0x172A8, offset: 0x67E82, size: 0x8, addend: 0x0, symName: __ZNSt3__122__compressed_pair_elemIPNS_11__hash_nodeINS_17__hash_value_typeINS_12basic_stringIcNS_11char_traitsIcEENS_9allocatorIcEEEEP5ModelEEPvEELi0ELb0EEC2B8ue170006IRSE_vEEOT_, symObjAddr: 0x17668, symBinAddr: 0x100036BAC, symSize: 0xB0 }
  - { offsetInCU: 0x172EA, offset: 0x67EC4, size: 0x8, addend: 0x0, symName: __ZNSt3__122__compressed_pair_elemINS_22__hash_node_destructorINS_9allocatorINS_11__hash_nodeINS_17__hash_value_typeINS_12basic_stringIcNS_11char_traitsIcEENS2_IcEEEEP5ModelEEPvEEEEEELi1ELb0EEC2B8ue170006ISG_vEEOT_, symObjAddr: 0x17718, symBinAddr: 0x100036C5C, symSize: 0x38 }
  - { offsetInCU: 0x1732C, offset: 0x67F06, size: 0x8, addend: 0x0, symName: __ZNSt3__19allocatorINS_11__hash_nodeINS_17__hash_value_typeINS_12basic_stringIcNS_11char_traitsIcEENS0_IcEEEEP5ModelEEPvEEE9constructB8ue170006INS_4pairIKS7_S9_EEJRKSH_EEEvPT_DpOT0_, symObjAddr: 0x17750, symBinAddr: 0x100036C94, symSize: 0x30 }
  - { offsetInCU: 0x17382, offset: 0x67F5C, size: 0x8, addend: 0x0, symName: __ZNSt3__14pairIKNS_12basic_stringIcNS_11char_traitsIcEENS_9allocatorIcEEEEP5ModelEC1B8ue170006ERKSA_, symObjAddr: 0x17780, symBinAddr: 0x100036CC4, symSize: 0x34 }
  - { offsetInCU: 0x173B7, offset: 0x67F91, size: 0x8, addend: 0x0, symName: __ZNSt3__14pairIKNS_12basic_stringIcNS_11char_traitsIcEENS_9allocatorIcEEEEP5ModelEC2B8ue170006ERKSA_, symObjAddr: 0x177B4, symBinAddr: 0x100036CF8, symSize: 0xCC }
  - { offsetInCU: 0x173EC, offset: 0x67FC6, size: 0x8, addend: 0x0, symName: __ZNSt3__117__compressed_pairIPNS_11__hash_nodeINS_17__hash_value_typeINS_12basic_stringIcNS_11char_traitsIcEENS_9allocatorIcEEEEP5ModelEEPvEENS_22__hash_node_destructorINS6_ISD_EEEEE6secondB8ue170006Ev, symObjAddr: 0x17880, symBinAddr: 0x100036DC4, symSize: 0x28 }
  - { offsetInCU: 0x17412, offset: 0x67FEC, size: 0x8, addend: 0x0, symName: __ZNSt3__122__compressed_pair_elemINS_22__hash_node_destructorINS_9allocatorINS_11__hash_nodeINS_17__hash_value_typeINS_12basic_stringIcNS_11char_traitsIcEENS2_IcEEEEP5ModelEEPvEEEEEELi1ELb0EE5__getB8ue170006Ev, symObjAddr: 0x178A8, symBinAddr: 0x100036DEC, symSize: 0x14 }
  - { offsetInCU: 0x17438, offset: 0x68012, size: 0x8, addend: 0x0, symName: __ZNSt3__117__compressed_pairImNS_22__unordered_map_hasherINS_12basic_stringIcNS_11char_traitsIcEENS_9allocatorIcEEEENS_17__hash_value_typeIS7_P5ModelEENS_4hashIS7_EENS_8equal_toIS7_EELb1EEEE5firstB8ue170006Ev, symObjAddr: 0x178BC, symBinAddr: 0x100036E00, symSize: 0x24 }
  - { offsetInCU: 0x1745E, offset: 0x68038, size: 0x8, addend: 0x0, symName: __ZNSt3__117__compressed_pairIfNS_21__unordered_map_equalINS_12basic_stringIcNS_11char_traitsIcEENS_9allocatorIcEEEENS_17__hash_value_typeIS7_P5ModelEENS_8equal_toIS7_EENS_4hashIS7_EELb1EEEE5firstB8ue170006Ev, symObjAddr: 0x178E0, symBinAddr: 0x100036E24, symSize: 0x24 }
  - { offsetInCU: 0x17484, offset: 0x6805E, size: 0x8, addend: 0x0, symName: __ZNSt3__112__hash_tableINS_17__hash_value_typeINS_12basic_stringIcNS_11char_traitsIcEENS_9allocatorIcEEEEP5ModelEENS_22__unordered_map_hasherIS7_SA_NS_4hashIS7_EENS_8equal_toIS7_EELb1EEENS_21__unordered_map_equalIS7_SA_SF_SD_Lb1EEENS5_ISA_EEE8__rehashILb1EEEvm, symObjAddr: 0x17904, symBinAddr: 0x100036E48, symSize: 0x784 }
  - { offsetInCU: 0x174DA, offset: 0x680B4, size: 0x8, addend: 0x0, symName: __ZNSt3__112__hash_tableINS_17__hash_value_typeINS_12basic_stringIcNS_11char_traitsIcEENS_9allocatorIcEEEEP5ModelEENS_22__unordered_map_hasherIS7_SA_NS_4hashIS7_EENS_8equal_toIS7_EELb1EEENS_21__unordered_map_equalIS7_SA_SF_SD_Lb1EEENS5_ISA_EEE11__do_rehashILb1EEEvm, symObjAddr: 0x18088, symBinAddr: 0x1000375CC, symSize: 0x5BC }
  - { offsetInCU: 0x175BF, offset: 0x68199, size: 0x8, addend: 0x0, symName: __ZNSt3__110unique_ptrIA_PNS_16__hash_node_baseIPNS_11__hash_nodeINS_17__hash_value_typeINS_12basic_stringIcNS_11char_traitsIcEENS_9allocatorIcEEEEP5ModelEEPvEEEENS_25__bucket_list_deallocatorINS7_ISH_EEEEE11get_deleterB8ue170006Ev, symObjAddr: 0x18644, symBinAddr: 0x100037B88, symSize: 0x24 }
  - { offsetInCU: 0x175E5, offset: 0x681BF, size: 0x8, addend: 0x0, symName: __ZNSt3__110unique_ptrIA_PNS_16__hash_node_baseIPNS_11__hash_nodeINS_17__hash_value_typeINS_12basic_stringIcNS_11char_traitsIcEENS_9allocatorIcEEEEP5ModelEEPvEEEENS_25__bucket_list_deallocatorINS7_ISH_EEEEE5resetB8ue170006IPSH_EENS_9enable_ifIXsr28_CheckArrayPointerConversionIT_EE5valueEvE4typeESQ_, symObjAddr: 0x1868C, symBinAddr: 0x100037BAC, symSize: 0xEC }
  - { offsetInCU: 0x17632, offset: 0x6820C, size: 0x8, addend: 0x0, symName: __ZNSt3__116allocator_traitsINS_9allocatorIPNS_16__hash_node_baseIPNS_11__hash_nodeINS_17__hash_value_typeINS_12basic_stringIcNS_11char_traitsIcEENS1_IcEEEEP5ModelEEPvEEEEEEE8allocateB8ue170006ERSI_m, symObjAddr: 0x18778, symBinAddr: 0x100037C98, symSize: 0x2C }
  - { offsetInCU: 0x17665, offset: 0x6823F, size: 0x8, addend: 0x0, symName: __ZNSt3__19allocatorIPNS_16__hash_node_baseIPNS_11__hash_nodeINS_17__hash_value_typeINS_12basic_stringIcNS_11char_traitsIcEENS0_IcEEEEP5ModelEEPvEEEEE8allocateB8ue170006Em, symObjAddr: 0x1898C, symBinAddr: 0x100037CC4, symSize: 0x5C }
  - { offsetInCU: 0x176A3, offset: 0x6827D, size: 0x8, addend: 0x0, symName: __ZNSt3__116allocator_traitsINS_9allocatorIPNS_16__hash_node_baseIPNS_11__hash_nodeINS_17__hash_value_typeINS_12basic_stringIcNS_11char_traitsIcEENS1_IcEEEEP5ModelEEPvEEEEEEE8max_sizeB8ue170006ISI_vEEmRKSI_, symObjAddr: 0x189E8, symBinAddr: 0x100037D20, symSize: 0x24 }
  - { offsetInCU: 0x176D1, offset: 0x682AB, size: 0x8, addend: 0x0, symName: __ZNKSt3__19allocatorIPNS_16__hash_node_baseIPNS_11__hash_nodeINS_17__hash_value_typeINS_12basic_stringIcNS_11char_traitsIcEENS0_IcEEEEP5ModelEEPvEEEEE8max_sizeB8ue170006Ev, symObjAddr: 0x18A0C, symBinAddr: 0x100037D44, symSize: 0x14 }
  - { offsetInCU: 0x176F7, offset: 0x682D1, size: 0x8, addend: 0x0, symName: __ZNKSt3__117__compressed_pairIPNS_11__hash_nodeINS_17__hash_value_typeINS_12basic_stringIcNS_11char_traitsIcEENS_9allocatorIcEEEEP5ModelEEPvEENS_22__hash_node_destructorINS6_ISD_EEEEE5firstB8ue170006Ev, symObjAddr: 0x18A44, symBinAddr: 0x100037D58, symSize: 0x24 }
  - { offsetInCU: 0x1771D, offset: 0x682F7, size: 0x8, addend: 0x0, symName: __ZNKSt3__122__compressed_pair_elemIPNS_11__hash_nodeINS_17__hash_value_typeINS_12basic_stringIcNS_11char_traitsIcEENS_9allocatorIcEEEEP5ModelEEPvEELi0ELb0EE5__getB8ue170006Ev, symObjAddr: 0x18A68, symBinAddr: 0x100037D7C, symSize: 0x14 }
  - { offsetInCU: 0x17743, offset: 0x6831D, size: 0x8, addend: 0x0, symName: __ZNSt3__117__compressed_pairIPNS_11__hash_nodeINS_17__hash_value_typeINS_12basic_stringIcNS_11char_traitsIcEENS_9allocatorIcEEEEP5ModelEEPvEENS_22__hash_node_destructorINS6_ISD_EEEEE5firstB8ue170006Ev, symObjAddr: 0x18A7C, symBinAddr: 0x100037D90, symSize: 0x24 }
  - { offsetInCU: 0x17769, offset: 0x68343, size: 0x8, addend: 0x0, symName: __ZNSt3__122__compressed_pair_elemIPNS_11__hash_nodeINS_17__hash_value_typeINS_12basic_stringIcNS_11char_traitsIcEENS_9allocatorIcEEEEP5ModelEEPvEELi0ELb0EE5__getB8ue170006Ev, symObjAddr: 0x18AA0, symBinAddr: 0x100037DB4, symSize: 0x14 }
  - { offsetInCU: 0x1778F, offset: 0x68369, size: 0x8, addend: 0x0, symName: __ZNSt3__110unique_ptrINS_11__hash_nodeINS_17__hash_value_typeINS_12basic_stringIcNS_11char_traitsIcEENS_9allocatorIcEEEEP5ModelEEPvEENS_22__hash_node_destructorINS6_ISD_EEEEED2B8ue170006Ev, symObjAddr: 0x18AB4, symBinAddr: 0x100037DC8, symSize: 0x30 }
  - { offsetInCU: 0x177B9, offset: 0x68393, size: 0x8, addend: 0x0, symName: __ZNSt3__110unique_ptrINS_11__hash_nodeINS_17__hash_value_typeINS_12basic_stringIcNS_11char_traitsIcEENS_9allocatorIcEEEEP5ModelEEPvEENS_22__hash_node_destructorINS6_ISD_EEEEE5resetB8ue170006EPSD_, symObjAddr: 0x18AE4, symBinAddr: 0x100037DF8, symSize: 0xEC }
  - { offsetInCU: 0x177FD, offset: 0x683D7, size: 0x8, addend: 0x0, symName: __ZNSt3__122__hash_node_destructorINS_9allocatorINS_11__hash_nodeINS_17__hash_value_typeINS_12basic_stringIcNS_11char_traitsIcEENS1_IcEEEEP5ModelEEPvEEEEEclB8ue170006EPSD_, symObjAddr: 0x18BD0, symBinAddr: 0x100037EE4, symSize: 0x160 }
  - { offsetInCU: 0x17832, offset: 0x6840C, size: 0x8, addend: 0x0, symName: __ZNSt3__14pairINS_15__hash_iteratorIPNS_11__hash_nodeINS_17__hash_value_typeINS_12basic_stringIcNS_11char_traitsIcEENS_9allocatorIcEEEEP5ModelEEPvEEEEbEC2B8ue170006ISG_RbLSD_0EEEOT_OT0_, symObjAddr: 0x18E34, symBinAddr: 0x100038044, symSize: 0x120 }
  - { offsetInCU: 0x17890, offset: 0x6846A, size: 0x8, addend: 0x0, symName: __ZNSt3__14pairINS_19__hash_map_iteratorINS_15__hash_iteratorIPNS_11__hash_nodeINS_17__hash_value_typeINS_12basic_stringIcNS_11char_traitsIcEENS_9allocatorIcEEEEP5ModelEEPvEEEEEEbEC2B8ue170006ISH_bLSE_0EEEONS0_IT_T0_EE, symObjAddr: 0x18F54, symBinAddr: 0x100038164, symSize: 0x2E8 }
  - { offsetInCU: 0x3F, offset: 0x6864A, size: 0x8, addend: 0x0, symName: __ZL13cube_vertices, symObjAddr: 0x44040, symBinAddr: 0x100604200, symSize: 0x0 }
  - { offsetInCU: 0x21D2, offset: 0x6A7DD, size: 0x8, addend: 0x0, symName: __ZL15square_vertices, symObjAddr: 0x44080, symBinAddr: 0x100604240, symSize: 0x0 }
  - { offsetInCU: 0x21EB, offset: 0x6A7F6, size: 0x8, addend: 0x0, symName: __ZL14square_indices, symObjAddr: 0x440C0, symBinAddr: 0x100604280, symSize: 0x0 }
  - { offsetInCU: 0x227A, offset: 0x6A885, size: 0x8, addend: 0x0, symName: _.str, symObjAddr: 0xD780, symBinAddr: 0x1004B4220, symSize: 0x0 }
  - { offsetInCU: 0x22AB, offset: 0x6A8B6, size: 0x8, addend: 0x0, symName: _.str.5, symObjAddr: 0xD7A0, symBinAddr: 0x1004B4240, symSize: 0x0 }
  - { offsetInCU: 0x22C9, offset: 0x6A8D4, size: 0x8, addend: 0x0, symName: _.str.6, symObjAddr: 0xD7C0, symBinAddr: 0x1004B4260, symSize: 0x0 }
  - { offsetInCU: 0x22E8, offset: 0x6A8F3, size: 0x8, addend: 0x0, symName: _.str.7, symObjAddr: 0xD800, symBinAddr: 0x1004B42A0, symSize: 0x0 }
  - { offsetInCU: 0x49FA, offset: 0x6D005, size: 0x8, addend: 0x0, symName: __ZN13UserInterface4InitEv, symObjAddr: 0x4E8, symBinAddr: 0x100038E18, symSize: 0x1A8 }
  - { offsetInCU: 0x4A3F, offset: 0x6D04A, size: 0x8, addend: 0x0, symName: __ZN7ImGuiIOaSERKS_, symObjAddr: 0x690, symBinAddr: 0x100038FC0, symSize: 0x50 }
  - { offsetInCU: 0x4A71, offset: 0x6D07C, size: 0x8, addend: 0x0, symName: __ZN13UserInterface9PreRenderEv, symObjAddr: 0x6E0, symBinAddr: 0x100039010, symSize: 0xCC }
  - { offsetInCU: 0x4A99, offset: 0x6D0A4, size: 0x8, addend: 0x0, symName: __ZN13UserInterface10PostRenderEv, symObjAddr: 0x7AC, symBinAddr: 0x1000390DC, symSize: 0x2C }
  - { offsetInCU: 0x4AC1, offset: 0x6D0CC, size: 0x8, addend: 0x0, symName: __ZN13UserInterface9TerminateEv, symObjAddr: 0x7D8, symBinAddr: 0x100039108, symSize: 0x2C }
  - { offsetInCU: 0x4AE9, offset: 0x6D0F4, size: 0x8, addend: 0x0, symName: __ZN8ImVectorItEaSERKS0_, symObjAddr: 0x804, symBinAddr: 0x100039134, symSize: 0x1F4 }
  - { offsetInCU: 0x4B1E, offset: 0x6D129, size: 0x8, addend: 0x0, symName: __ZN8ImVectorItE5clearEv, symObjAddr: 0x9F8, symBinAddr: 0x100039328, symSize: 0x1B4 }
  - { offsetInCU: 0x4B44, offset: 0x6D14F, size: 0x8, addend: 0x0, symName: __ZN8ImVectorItE6resizeEi, symObjAddr: 0xBAC, symBinAddr: 0x1000394DC, symSize: 0x138 }
  - { offsetInCU: 0x4B79, offset: 0x6D184, size: 0x8, addend: 0x0, symName: __ZN8ImVectorItE7reserveEi, symObjAddr: 0xCE4, symBinAddr: 0x100039614, symSize: 0x2C0 }
  - { offsetInCU: 0x4BBD, offset: 0x6D1C8, size: 0x8, addend: 0x0, symName: __ZNK8ImVectorItE14_grow_capacityEi, symObjAddr: 0xFA4, symBinAddr: 0x1000398D4, symSize: 0x1CC }
  - { offsetInCU: 0x3F, offset: 0x6D290, size: 0x8, addend: 0x0, symName: __ZL13cube_vertices, symObjAddr: 0x5DD40, symBinAddr: 0x1006042C0, symSize: 0x0 }
  - { offsetInCU: 0x3F59, offset: 0x711AA, size: 0x8, addend: 0x0, symName: __ZL15square_vertices, symObjAddr: 0x5DD80, symBinAddr: 0x100604300, symSize: 0x0 }
  - { offsetInCU: 0x3F72, offset: 0x711C3, size: 0x8, addend: 0x0, symName: __ZL14square_indices, symObjAddr: 0x5DDC0, symBinAddr: 0x100604340, symSize: 0x0 }
  - { offsetInCU: 0x4001, offset: 0x71252, size: 0x8, addend: 0x0, symName: _.str, symObjAddr: 0x10C40, symBinAddr: 0x1004B42C0, symSize: 0x0 }
  - { offsetInCU: 0x4032, offset: 0x71283, size: 0x8, addend: 0x0, symName: _.str.5, symObjAddr: 0x10B60, symBinAddr: 0x1004A31A0, symSize: 0x0 }
  - { offsetInCU: 0x4050, offset: 0x712A1, size: 0x8, addend: 0x0, symName: _.str.6, symObjAddr: 0x10C60, symBinAddr: 0x1004B42E0, symSize: 0x0 }
  - { offsetInCU: 0x406E, offset: 0x712BF, size: 0x8, addend: 0x0, symName: _.str.7, symObjAddr: 0x10CC0, symBinAddr: 0x1004B4340, symSize: 0x0 }
  - { offsetInCU: 0x4080, offset: 0x712D1, size: 0x8, addend: 0x0, symName: _.str.8, symObjAddr: 0x10D20, symBinAddr: 0x1004B43A0, symSize: 0x0 }
  - { offsetInCU: 0x409E, offset: 0x712EF, size: 0x8, addend: 0x0, symName: _.str.9, symObjAddr: 0x10D40, symBinAddr: 0x1004B43C0, symSize: 0x0 }
  - { offsetInCU: 0x40BD, offset: 0x7130E, size: 0x8, addend: 0x0, symName: _.str.10, symObjAddr: 0x10DA0, symBinAddr: 0x1004B4420, symSize: 0x0 }
  - { offsetInCU: 0x64F3, offset: 0x73744, size: 0x8, addend: 0x0, symName: __ZN14PostProcessingC2EjjP15SShaderResource, symObjAddr: 0x4E8, symBinAddr: 0x10003A46C, symSize: 0xDE4 }
  - { offsetInCU: 0x6552, offset: 0x737A3, size: 0x8, addend: 0x0, symName: __ZN14PostProcessing8InitQuadEv, symObjAddr: 0x1448, symBinAddr: 0x10003B250, symSize: 0x698 }
  - { offsetInCU: 0x659F, offset: 0x737F0, size: 0x8, addend: 0x0, symName: __ZN9Texture2DD1Ev, symObjAddr: 0x1AE0, symBinAddr: 0x10003B8E8, symSize: 0x2C }
  - { offsetInCU: 0x65C9, offset: 0x7381A, size: 0x8, addend: 0x0, symName: __ZN14PostProcessingC1EjjP15SShaderResource, symObjAddr: 0x1B0C, symBinAddr: 0x10003B914, symSize: 0x44 }
  - { offsetInCU: 0x661F, offset: 0x73870, size: 0x8, addend: 0x0, symName: __ZN14PostProcessing11BeginRenderEv, symObjAddr: 0x1B50, symBinAddr: 0x10003B958, symSize: 0x1DC }
  - { offsetInCU: 0x6647, offset: 0x73898, size: 0x8, addend: 0x0, symName: __ZN14PostProcessing10RenderQuadEv, symObjAddr: 0x1D2C, symBinAddr: 0x10003BB34, symSize: 0x324 }
  - { offsetInCU: 0x666F, offset: 0x738C0, size: 0x8, addend: 0x0, symName: __ZN14PostProcessing9EndRenderEv, symObjAddr: 0x2050, symBinAddr: 0x10003BE58, symSize: 0x164 }
  - { offsetInCU: 0x6697, offset: 0x738E8, size: 0x8, addend: 0x0, symName: __ZN14PostProcessing6ResizeEjj, symObjAddr: 0x21B4, symBinAddr: 0x10003BFBC, symSize: 0x18 }
  - { offsetInCU: 0x66DB, offset: 0x7392C, size: 0x8, addend: 0x0, symName: __ZN9Texture2DD2Ev, symObjAddr: 0x21CC, symBinAddr: 0x10003BFD4, symSize: 0x30 }
  - { offsetInCU: 0x3F, offset: 0x739DC, size: 0x8, addend: 0x0, symName: __ZL13cube_vertices, symObjAddr: 0x1453C0, symBinAddr: 0x100604380, symSize: 0x0 }
  - { offsetInCU: 0x133C4, offset: 0x86D61, size: 0x8, addend: 0x0, symName: __ZNSt3__111make_uniqueB8ue170006I5SceneJRiS2_RP6CameraRP16CollisionHandlerEEENS_11__unique_ifIT_E15__unique_singleEDpOT0_, symObjAddr: 0x1ACC, symBinAddr: 0x10003DFB4, symSize: 0x1E0 }
  - { offsetInCU: 0x1352D, offset: 0x86ECA, size: 0x8, addend: 0x0, symName: __ZL15square_vertices, symObjAddr: 0x145400, symBinAddr: 0x1006043C0, symSize: 0x0 }
  - { offsetInCU: 0x13546, offset: 0x86EE3, size: 0x8, addend: 0x0, symName: __ZL14square_indices, symObjAddr: 0x145440, symBinAddr: 0x100604400, symSize: 0x0 }
  - { offsetInCU: 0x135DF, offset: 0x86F7C, size: 0x8, addend: 0x0, symName: _.str, symObjAddr: 0x29AA0, symBinAddr: 0x1004B4440, symSize: 0x0 }
  - { offsetInCU: 0x13610, offset: 0x86FAD, size: 0x8, addend: 0x0, symName: _.str.5, symObjAddr: 0x29AE0, symBinAddr: 0x1004B4480, symSize: 0x0 }
  - { offsetInCU: 0x1362E, offset: 0x86FCB, size: 0x8, addend: 0x0, symName: _.str.6, symObjAddr: 0x29B20, symBinAddr: 0x1004B44C0, symSize: 0x0 }
  - { offsetInCU: 0x1364C, offset: 0x86FE9, size: 0x8, addend: 0x0, symName: _.str.7, symObjAddr: 0x29B60, symBinAddr: 0x1004B4500, symSize: 0x0 }
  - { offsetInCU: 0x1366B, offset: 0x87008, size: 0x8, addend: 0x0, symName: _.str.8, symObjAddr: 0x29BC0, symBinAddr: 0x1004B4560, symSize: 0x0 }
  - { offsetInCU: 0x186D8, offset: 0x8C075, size: 0x8, addend: 0x0, symName: __ZN8SContext12ProcessInputEP10GLFWwindowf, symObjAddr: 0x4E8, symBinAddr: 0x10003C9D0, symSize: 0x86C }
  - { offsetInCU: 0x1871C, offset: 0x8C0B9, size: 0x8, addend: 0x0, symName: __ZN8SContextC2Eb, symObjAddr: 0xD54, symBinAddr: 0x10003D23C, symSize: 0x100 }
  - { offsetInCU: 0x18756, offset: 0x8C0F3, size: 0x8, addend: 0x0, symName: __ZN8UContextC2Ev, symObjAddr: 0xE54, symBinAddr: 0x10003D33C, symSize: 0x144 }
  - { offsetInCU: 0x18780, offset: 0x8C11D, size: 0x8, addend: 0x0, symName: __ZN8SContextC1Eb, symObjAddr: 0xF98, symBinAddr: 0x10003D480, symSize: 0x40 }
  - { offsetInCU: 0x187BA, offset: 0x8C157, size: 0x8, addend: 0x0, symName: __ZN8SContext4InitEP7UWindow, symObjAddr: 0xFD8, symBinAddr: 0x10003D4C0, symSize: 0xAC8 }
  - { offsetInCU: 0x18801, offset: 0x8C19E, size: 0x8, addend: 0x0, symName: __ZN16CollisionHandlerC1Ev, symObjAddr: 0x1AA0, symBinAddr: 0x10003DF88, symSize: 0x2C }
  - { offsetInCU: 0x1882B, offset: 0x8C1C8, size: 0x8, addend: 0x0, symName: __ZNSt3__110unique_ptrI5SceneNS_14default_deleteIS1_EEEaSB8ue170006EOS4_, symObjAddr: 0x1CAC, symBinAddr: 0x10003E194, symSize: 0x50 }
  - { offsetInCU: 0x1885F, offset: 0x8C1FC, size: 0x8, addend: 0x0, symName: __ZNKSt3__112basic_stringIcNS_11char_traitsIcEENS_9allocatorIcEEE5c_strB8ue170006Ev, symObjAddr: 0x1E70, symBinAddr: 0x10003E1E4, symSize: 0x24 }
  - { offsetInCU: 0x18885, offset: 0x8C222, size: 0x8, addend: 0x0, symName: __ZN8SContext9TerminateEv, symObjAddr: 0x1E94, symBinAddr: 0x10003E208, symSize: 0x150 }
  - { offsetInCU: 0x188AD, offset: 0x8C24A, size: 0x8, addend: 0x0, symName: __ZL15on_key_callbackP10GLFWwindowiiii, symObjAddr: 0x1FE4, symBinAddr: 0x10003E358, symSize: 0xF8 }
  - { offsetInCU: 0x1891C, offset: 0x8C2B9, size: 0x8, addend: 0x0, symName: __ZL22on_mouse_move_callbackP10GLFWwindowdd, symObjAddr: 0x20DC, symBinAddr: 0x10003E450, symSize: 0x77C }
  - { offsetInCU: 0x1898B, offset: 0x8C328, size: 0x8, addend: 0x0, symName: __ZL25on_window_resize_callbackP10GLFWwindowii, symObjAddr: 0x2858, symBinAddr: 0x10003EBCC, symSize: 0xD8 }
  - { offsetInCU: 0x189DE, offset: 0x8C37B, size: 0x8, addend: 0x0, symName: __ZN13UserInterfaceC1EP10GLFWwindow, symObjAddr: 0x2930, symBinAddr: 0x10003ECA4, symSize: 0x34 }
  - { offsetInCU: 0x18A16, offset: 0x8C3B3, size: 0x8, addend: 0x0, symName: __ZN15SShaderResourceC1Ev, symObjAddr: 0x2964, symBinAddr: 0x10003ECD8, symSize: 0x2C }
  - { offsetInCU: 0x18A42, offset: 0x8C3DF, size: 0x8, addend: 0x0, symName: __ZNKSt3__110unique_ptrI5SceneNS_14default_deleteIS1_EEEptB8ue170006Ev, symObjAddr: 0x2990, symBinAddr: 0x10003ED04, symSize: 0x6C }
  - { offsetInCU: 0x18A68, offset: 0x8C405, size: 0x8, addend: 0x0, symName: __ZN8SContext9PreRenderEv, symObjAddr: 0x29FC, symBinAddr: 0x10003ED70, symSize: 0x118 }
  - { offsetInCU: 0x18A90, offset: 0x8C42D, size: 0x8, addend: 0x0, symName: __ZN8SContext11SceneRenderEf, symObjAddr: 0x2B14, symBinAddr: 0x10003EE88, symSize: 0x224 }
  - { offsetInCU: 0x18ACB, offset: 0x8C468, size: 0x8, addend: 0x0, symName: __ZN8SContext10PostRenderEv, symObjAddr: 0x2D38, symBinAddr: 0x10003F0AC, symSize: 0x130 }
  - { offsetInCU: 0x18AF3, offset: 0x8C490, size: 0x8, addend: 0x0, symName: __ZN8SContext27RenderWithoutPostProcessingEf, symObjAddr: 0x2E68, symBinAddr: 0x10003F1DC, symSize: 0x1B0 }
  - { offsetInCU: 0x18B29, offset: 0x8C4C6, size: 0x8, addend: 0x0, symName: __ZN8SContext24RenderWithPostProcessingEP6ShaderP14PostProcessingf, symObjAddr: 0x3018, symBinAddr: 0x10003F38C, symSize: 0x19C }
  - { offsetInCU: 0x18B7B, offset: 0x8C518, size: 0x8, addend: 0x0, symName: __ZN8SContext6RenderEf, symObjAddr: 0x31B4, symBinAddr: 0x10003F528, symSize: 0x23C }
  - { offsetInCU: 0x18BB1, offset: 0x8C54E, size: 0x8, addend: 0x0, symName: __ZNSt3__110unique_ptrI5SceneNS_14default_deleteIS1_EEEC1B8ue170006ILb1EvEEv, symObjAddr: 0x33F0, symBinAddr: 0x10003F764, symSize: 0x2C }
  - { offsetInCU: 0x18BE6, offset: 0x8C583, size: 0x8, addend: 0x0, symName: __ZNSt3__110unique_ptrI5SceneNS_14default_deleteIS1_EEEaSB8ue170006EDn, symObjAddr: 0x341C, symBinAddr: 0x10003F790, symSize: 0x34 }
  - { offsetInCU: 0x18C17, offset: 0x8C5B4, size: 0x8, addend: 0x0, symName: __ZNSt3__110unique_ptrI5SceneNS_14default_deleteIS1_EEEC2B8ue170006ILb1EvEEv, symObjAddr: 0x3450, symBinAddr: 0x10003F7C4, symSize: 0x200 }
  - { offsetInCU: 0x18C52, offset: 0x8C5EF, size: 0x8, addend: 0x0, symName: __ZNSt3__117__compressed_pairIP5SceneNS_14default_deleteIS1_EEEC1B8ue170006INS_16__value_init_tagES7_EEOT_OT0_, symObjAddr: 0x3650, symBinAddr: 0x10003F9C4, symSize: 0x3C }
  - { offsetInCU: 0x18CAA, offset: 0x8C647, size: 0x8, addend: 0x0, symName: __ZNSt3__117__compressed_pairIP5SceneNS_14default_deleteIS1_EEEC2B8ue170006INS_16__value_init_tagES7_EEOT_OT0_, symObjAddr: 0x3698, symBinAddr: 0x10003FA00, symSize: 0x3C }
  - { offsetInCU: 0x18D02, offset: 0x8C69F, size: 0x8, addend: 0x0, symName: __ZNSt3__122__compressed_pair_elemIP5SceneLi0ELb0EEC2B8ue170006ENS_16__value_init_tagE, symObjAddr: 0x36D4, symBinAddr: 0x10003FA3C, symSize: 0x60 }
  - { offsetInCU: 0x18D37, offset: 0x8C6D4, size: 0x8, addend: 0x0, symName: __ZNSt3__122__compressed_pair_elemINS_14default_deleteI5SceneEELi1ELb1EEC2B8ue170006ENS_16__value_init_tagE, symObjAddr: 0x3734, symBinAddr: 0x10003FA9C, symSize: 0x14 }
  - { offsetInCU: 0x18DA8, offset: 0x8C745, size: 0x8, addend: 0x0, symName: __ZN16CollisionHandlerC2Ev, symObjAddr: 0x179BC, symBinAddr: 0x10003FAB0, symSize: 0x38 }
  - { offsetInCU: 0x18DD2, offset: 0x8C76F, size: 0x8, addend: 0x0, symName: __ZNSt3__113unordered_mapINS_12basic_stringIcNS_11char_traitsIcEENS_9allocatorIcEEEEP9BasicMeshNS_4hashIS6_EENS_8equal_toIS6_EENS4_INS_4pairIKS6_S8_EEEEEC1B8ue170006Ev, symObjAddr: 0x179F4, symBinAddr: 0x10003FAE8, symSize: 0x2C }
  - { offsetInCU: 0x18DFC, offset: 0x8C799, size: 0x8, addend: 0x0, symName: __ZNSt3__113unordered_mapINS_12basic_stringIcNS_11char_traitsIcEENS_9allocatorIcEEEEP5ModelNS_4hashIS6_EENS_8equal_toIS6_EENS4_INS_4pairIKS6_S8_EEEEEC1B8ue170006Ev, symObjAddr: 0x17A20, symBinAddr: 0x10003FB14, symSize: 0x2C }
  - { offsetInCU: 0x18E26, offset: 0x8C7C3, size: 0x8, addend: 0x0, symName: __ZNSt3__113unordered_mapINS_12basic_stringIcNS_11char_traitsIcEENS_9allocatorIcEEEEP9BasicMeshNS_4hashIS6_EENS_8equal_toIS6_EENS4_INS_4pairIKS6_S8_EEEEEC2B8ue170006Ev, symObjAddr: 0x17A4C, symBinAddr: 0x10003FB40, symSize: 0x2C }
  - { offsetInCU: 0x18E50, offset: 0x8C7ED, size: 0x8, addend: 0x0, symName: __ZNSt3__112__hash_tableINS_17__hash_value_typeINS_12basic_stringIcNS_11char_traitsIcEENS_9allocatorIcEEEEP9BasicMeshEENS_22__unordered_map_hasherIS7_SA_NS_4hashIS7_EENS_8equal_toIS7_EELb1EEENS_21__unordered_map_equalIS7_SA_SF_SD_Lb1EEENS5_ISA_EEEC1Ev, symObjAddr: 0x17A78, symBinAddr: 0x10003FB6C, symSize: 0x2C }
  - { offsetInCU: 0x18E7C, offset: 0x8C819, size: 0x8, addend: 0x0, symName: __ZNSt3__112__hash_tableINS_17__hash_value_typeINS_12basic_stringIcNS_11char_traitsIcEENS_9allocatorIcEEEEP9BasicMeshEENS_22__unordered_map_hasherIS7_SA_NS_4hashIS7_EENS_8equal_toIS7_EELb1EEENS_21__unordered_map_equalIS7_SA_SF_SD_Lb1EEENS5_ISA_EEEC2Ev, symObjAddr: 0x17AA4, symBinAddr: 0x10003FB98, symSize: 0x38C }
  - { offsetInCU: 0x18EA9, offset: 0x8C846, size: 0x8, addend: 0x0, symName: __ZNSt3__110unique_ptrIA_PNS_16__hash_node_baseIPNS_11__hash_nodeINS_17__hash_value_typeINS_12basic_stringIcNS_11char_traitsIcEENS_9allocatorIcEEEEP9BasicMeshEEPvEEEENS_25__bucket_list_deallocatorINS7_ISH_EEEEEC1B8ue170006ILb1EvEEv, symObjAddr: 0x17E30, symBinAddr: 0x10003FF24, symSize: 0x2C }
  - { offsetInCU: 0x18EDE, offset: 0x8C87B, size: 0x8, addend: 0x0, symName: __ZNSt3__117__compressed_pairINS_16__hash_node_baseIPNS_11__hash_nodeINS_17__hash_value_typeINS_12basic_stringIcNS_11char_traitsIcEENS_9allocatorIcEEEEP9BasicMeshEEPvEEEENS7_ISE_EEEC1B8ue170006ILb1EvEEv, symObjAddr: 0x17E5C, symBinAddr: 0x10003FF50, symSize: 0x2C }
  - { offsetInCU: 0x18F13, offset: 0x8C8B0, size: 0x8, addend: 0x0, symName: __ZNSt3__117__compressed_pairImNS_22__unordered_map_hasherINS_12basic_stringIcNS_11char_traitsIcEENS_9allocatorIcEEEENS_17__hash_value_typeIS7_P9BasicMeshEENS_4hashIS7_EENS_8equal_toIS7_EELb1EEEEC1B8ue170006IiNS_18__default_init_tagEEEOT_OT0_, symObjAddr: 0x17E88, symBinAddr: 0x10003FF7C, symSize: 0x3C }
  - { offsetInCU: 0x18F70, offset: 0x8C90D, size: 0x8, addend: 0x0, symName: __ZNSt3__117__compressed_pairIfNS_21__unordered_map_equalINS_12basic_stringIcNS_11char_traitsIcEENS_9allocatorIcEEEENS_17__hash_value_typeIS7_P9BasicMeshEENS_8equal_toIS7_EENS_4hashIS7_EELb1EEEEC1B8ue170006IfNS_18__default_init_tagEEEOT_OT0_, symObjAddr: 0x17EC4, symBinAddr: 0x10003FFB8, symSize: 0x3C }
  - { offsetInCU: 0x18FC8, offset: 0x8C965, size: 0x8, addend: 0x0, symName: __ZNSt3__110unique_ptrIA_PNS_16__hash_node_baseIPNS_11__hash_nodeINS_17__hash_value_typeINS_12basic_stringIcNS_11char_traitsIcEENS_9allocatorIcEEEEP9BasicMeshEEPvEEEENS_25__bucket_list_deallocatorINS7_ISH_EEEEEC2B8ue170006ILb1EvEEv, symObjAddr: 0x17F00, symBinAddr: 0x10003FFF4, symSize: 0x200 }
  - { offsetInCU: 0x18FFE, offset: 0x8C99B, size: 0x8, addend: 0x0, symName: __ZNSt3__117__compressed_pairIPPNS_16__hash_node_baseIPNS_11__hash_nodeINS_17__hash_value_typeINS_12basic_stringIcNS_11char_traitsIcEENS_9allocatorIcEEEEP9BasicMeshEEPvEEEENS_25__bucket_list_deallocatorINS7_ISH_EEEEEC1B8ue170006INS_16__value_init_tagESO_EEOT_OT0_, symObjAddr: 0x18100, symBinAddr: 0x1000401F4, symSize: 0x3C }
  - { offsetInCU: 0x19056, offset: 0x8C9F3, size: 0x8, addend: 0x0, symName: __ZNSt3__117__compressed_pairIPPNS_16__hash_node_baseIPNS_11__hash_nodeINS_17__hash_value_typeINS_12basic_stringIcNS_11char_traitsIcEENS_9allocatorIcEEEEP9BasicMeshEEPvEEEENS_25__bucket_list_deallocatorINS7_ISH_EEEEEC2B8ue170006INS_16__value_init_tagESO_EEOT_OT0_, symObjAddr: 0x1813C, symBinAddr: 0x100040230, symSize: 0x40 }
  - { offsetInCU: 0x190AE, offset: 0x8CA4B, size: 0x8, addend: 0x0, symName: __ZNSt3__122__compressed_pair_elemIPPNS_16__hash_node_baseIPNS_11__hash_nodeINS_17__hash_value_typeINS_12basic_stringIcNS_11char_traitsIcEENS_9allocatorIcEEEEP9BasicMeshEEPvEEEELi0ELb0EEC2B8ue170006ENS_16__value_init_tagE, symObjAddr: 0x1817C, symBinAddr: 0x100040270, symSize: 0x60 }
  - { offsetInCU: 0x190E3, offset: 0x8CA80, size: 0x8, addend: 0x0, symName: __ZNSt3__122__compressed_pair_elemINS_25__bucket_list_deallocatorINS_9allocatorIPNS_16__hash_node_baseIPNS_11__hash_nodeINS_17__hash_value_typeINS_12basic_stringIcNS_11char_traitsIcEENS2_IcEEEEP9BasicMeshEEPvEEEEEEEELi1ELb0EEC2B8ue170006ENS_16__value_init_tagE, symObjAddr: 0x181DC, symBinAddr: 0x1000402D0, symSize: 0x2C }
  - { offsetInCU: 0x19118, offset: 0x8CAB5, size: 0x8, addend: 0x0, symName: __ZNSt3__125__bucket_list_deallocatorINS_9allocatorIPNS_16__hash_node_baseIPNS_11__hash_nodeINS_17__hash_value_typeINS_12basic_stringIcNS_11char_traitsIcEENS1_IcEEEEP9BasicMeshEEPvEEEEEEEC1B8ue170006Ev, symObjAddr: 0x18208, symBinAddr: 0x1000402FC, symSize: 0x2C }
  - { offsetInCU: 0x19142, offset: 0x8CADF, size: 0x8, addend: 0x0, symName: __ZNSt3__125__bucket_list_deallocatorINS_9allocatorIPNS_16__hash_node_baseIPNS_11__hash_nodeINS_17__hash_value_typeINS_12basic_stringIcNS_11char_traitsIcEENS1_IcEEEEP9BasicMeshEEPvEEEEEEEC2B8ue170006Ev, symObjAddr: 0x18234, symBinAddr: 0x100040328, symSize: 0x270 }
  - { offsetInCU: 0x1916D, offset: 0x8CB0A, size: 0x8, addend: 0x0, symName: __ZNSt3__117__compressed_pairImNS_9allocatorIPNS_16__hash_node_baseIPNS_11__hash_nodeINS_17__hash_value_typeINS_12basic_stringIcNS_11char_traitsIcEENS1_IcEEEEP9BasicMeshEEPvEEEEEEEC1B8ue170006IiNS_18__default_init_tagEEEOT_OT0_, symObjAddr: 0x184A4, symBinAddr: 0x100040598, symSize: 0x3C }
  - { offsetInCU: 0x191C5, offset: 0x8CB62, size: 0x8, addend: 0x0, symName: __ZNSt3__117__compressed_pairImNS_9allocatorIPNS_16__hash_node_baseIPNS_11__hash_nodeINS_17__hash_value_typeINS_12basic_stringIcNS_11char_traitsIcEENS1_IcEEEEP9BasicMeshEEPvEEEEEEEC2B8ue170006IiNS_18__default_init_tagEEEOT_OT0_, symObjAddr: 0x184E0, symBinAddr: 0x1000405D4, symSize: 0x40 }
  - { offsetInCU: 0x1921D, offset: 0x8CBBA, size: 0x8, addend: 0x0, symName: __ZNSt3__122__compressed_pair_elemINS_9allocatorIPNS_16__hash_node_baseIPNS_11__hash_nodeINS_17__hash_value_typeINS_12basic_stringIcNS_11char_traitsIcEENS1_IcEEEEP9BasicMeshEEPvEEEEEELi1ELb1EEC2B8ue170006ENS_18__default_init_tagE, symObjAddr: 0x18520, symBinAddr: 0x100040614, symSize: 0x2C }
  - { offsetInCU: 0x19252, offset: 0x8CBEF, size: 0x8, addend: 0x0, symName: __ZNSt3__19allocatorIPNS_16__hash_node_baseIPNS_11__hash_nodeINS_17__hash_value_typeINS_12basic_stringIcNS_11char_traitsIcEENS0_IcEEEEP9BasicMeshEEPvEEEEEC2B8ue170006Ev, symObjAddr: 0x1854C, symBinAddr: 0x100040640, symSize: 0x2C }
  - { offsetInCU: 0x1927C, offset: 0x8CC19, size: 0x8, addend: 0x0, symName: __ZNSt3__116__non_trivial_ifILb1ENS_9allocatorIPNS_16__hash_node_baseIPNS_11__hash_nodeINS_17__hash_value_typeINS_12basic_stringIcNS_11char_traitsIcEENS1_IcEEEEP9BasicMeshEEPvEEEEEEEC2B8ue170006Ev, symObjAddr: 0x18578, symBinAddr: 0x10004066C, symSize: 0x14 }
  - { offsetInCU: 0x192A6, offset: 0x8CC43, size: 0x8, addend: 0x0, symName: __ZNSt3__117__compressed_pairINS_16__hash_node_baseIPNS_11__hash_nodeINS_17__hash_value_typeINS_12basic_stringIcNS_11char_traitsIcEENS_9allocatorIcEEEEP9BasicMeshEEPvEEEENS7_ISE_EEEC2B8ue170006ILb1EvEEv, symObjAddr: 0x1858C, symBinAddr: 0x100040680, symSize: 0x34 }
  - { offsetInCU: 0x192DB, offset: 0x8CC78, size: 0x8, addend: 0x0, symName: __ZNSt3__122__compressed_pair_elemINS_16__hash_node_baseIPNS_11__hash_nodeINS_17__hash_value_typeINS_12basic_stringIcNS_11char_traitsIcEENS_9allocatorIcEEEEP9BasicMeshEEPvEEEELi0ELb0EEC2B8ue170006ENS_16__value_init_tagE, symObjAddr: 0x185C0, symBinAddr: 0x1000406B4, symSize: 0x2C }
  - { offsetInCU: 0x19310, offset: 0x8CCAD, size: 0x8, addend: 0x0, symName: __ZNSt3__122__compressed_pair_elemINS_9allocatorINS_11__hash_nodeINS_17__hash_value_typeINS_12basic_stringIcNS_11char_traitsIcEENS1_IcEEEEP9BasicMeshEEPvEEEELi1ELb1EEC2B8ue170006ENS_16__value_init_tagE, symObjAddr: 0x185EC, symBinAddr: 0x1000406E0, symSize: 0x2C }
  - { offsetInCU: 0x19345, offset: 0x8CCE2, size: 0x8, addend: 0x0, symName: __ZNSt3__116__hash_node_baseIPNS_11__hash_nodeINS_17__hash_value_typeINS_12basic_stringIcNS_11char_traitsIcEENS_9allocatorIcEEEEP9BasicMeshEEPvEEEC1B8ue170006Ev, symObjAddr: 0x18618, symBinAddr: 0x10004070C, symSize: 0x2C }
  - { offsetInCU: 0x1936F, offset: 0x8CD0C, size: 0x8, addend: 0x0, symName: __ZNSt3__116__hash_node_baseIPNS_11__hash_nodeINS_17__hash_value_typeINS_12basic_stringIcNS_11char_traitsIcEENS_9allocatorIcEEEEP9BasicMeshEEPvEEEC2B8ue170006Ev, symObjAddr: 0x18644, symBinAddr: 0x100040738, symSize: 0x60 }
  - { offsetInCU: 0x19399, offset: 0x8CD36, size: 0x8, addend: 0x0, symName: __ZNSt3__19allocatorINS_11__hash_nodeINS_17__hash_value_typeINS_12basic_stringIcNS_11char_traitsIcEENS0_IcEEEEP9BasicMeshEEPvEEEC2B8ue170006Ev, symObjAddr: 0x186A4, symBinAddr: 0x100040798, symSize: 0x2C }
  - { offsetInCU: 0x193C3, offset: 0x8CD60, size: 0x8, addend: 0x0, symName: __ZNSt3__116__non_trivial_ifILb1ENS_9allocatorINS_11__hash_nodeINS_17__hash_value_typeINS_12basic_stringIcNS_11char_traitsIcEENS1_IcEEEEP9BasicMeshEEPvEEEEEC2B8ue170006Ev, symObjAddr: 0x186D0, symBinAddr: 0x1000407C4, symSize: 0x14 }
  - { offsetInCU: 0x193ED, offset: 0x8CD8A, size: 0x8, addend: 0x0, symName: __ZNSt3__117__compressed_pairImNS_22__unordered_map_hasherINS_12basic_stringIcNS_11char_traitsIcEENS_9allocatorIcEEEENS_17__hash_value_typeIS7_P9BasicMeshEENS_4hashIS7_EENS_8equal_toIS7_EELb1EEEEC2B8ue170006IiNS_18__default_init_tagEEEOT_OT0_, symObjAddr: 0x186E4, symBinAddr: 0x1000407D8, symSize: 0x40 }
  - { offsetInCU: 0x19445, offset: 0x8CDE2, size: 0x8, addend: 0x0, symName: __ZNSt3__122__compressed_pair_elemINS_22__unordered_map_hasherINS_12basic_stringIcNS_11char_traitsIcEENS_9allocatorIcEEEENS_17__hash_value_typeIS7_P9BasicMeshEENS_4hashIS7_EENS_8equal_toIS7_EELb1EEELi1ELb1EEC2B8ue170006ENS_18__default_init_tagE, symObjAddr: 0x18724, symBinAddr: 0x100040818, symSize: 0x2C }
  - { offsetInCU: 0x1947A, offset: 0x8CE17, size: 0x8, addend: 0x0, symName: __ZNSt3__122__unordered_map_hasherINS_12basic_stringIcNS_11char_traitsIcEENS_9allocatorIcEEEENS_17__hash_value_typeIS6_P9BasicMeshEENS_4hashIS6_EENS_8equal_toIS6_EELb1EEC2B8ue170006Ev, symObjAddr: 0x18750, symBinAddr: 0x100040844, symSize: 0x14 }
  - { offsetInCU: 0x194A4, offset: 0x8CE41, size: 0x8, addend: 0x0, symName: __ZNSt3__117__compressed_pairIfNS_21__unordered_map_equalINS_12basic_stringIcNS_11char_traitsIcEENS_9allocatorIcEEEENS_17__hash_value_typeIS7_P9BasicMeshEENS_8equal_toIS7_EENS_4hashIS7_EELb1EEEEC2B8ue170006IfNS_18__default_init_tagEEEOT_OT0_, symObjAddr: 0x18764, symBinAddr: 0x100040858, symSize: 0x40 }
  - { offsetInCU: 0x194FC, offset: 0x8CE99, size: 0x8, addend: 0x0, symName: __ZNSt3__122__compressed_pair_elemIfLi0ELb0EEC2B8ue170006IfvEEOT_, symObjAddr: 0x187A4, symBinAddr: 0x100040898, symSize: 0x100 }
  - { offsetInCU: 0x1953E, offset: 0x8CEDB, size: 0x8, addend: 0x0, symName: __ZNSt3__122__compressed_pair_elemINS_21__unordered_map_equalINS_12basic_stringIcNS_11char_traitsIcEENS_9allocatorIcEEEENS_17__hash_value_typeIS7_P9BasicMeshEENS_8equal_toIS7_EENS_4hashIS7_EELb1EEELi1ELb1EEC2B8ue170006ENS_18__default_init_tagE, symObjAddr: 0x188A4, symBinAddr: 0x100040998, symSize: 0x2C }
  - { offsetInCU: 0x19573, offset: 0x8CF10, size: 0x8, addend: 0x0, symName: __ZNSt3__121__unordered_map_equalINS_12basic_stringIcNS_11char_traitsIcEENS_9allocatorIcEEEENS_17__hash_value_typeIS6_P9BasicMeshEENS_8equal_toIS6_EENS_4hashIS6_EELb1EEC2B8ue170006Ev, symObjAddr: 0x188D0, symBinAddr: 0x1000409C4, symSize: 0x14 }
  - { offsetInCU: 0x1959D, offset: 0x8CF3A, size: 0x8, addend: 0x0, symName: __ZNSt3__113unordered_mapINS_12basic_stringIcNS_11char_traitsIcEENS_9allocatorIcEEEEP5ModelNS_4hashIS6_EENS_8equal_toIS6_EENS4_INS_4pairIKS6_S8_EEEEEC2B8ue170006Ev, symObjAddr: 0x188E4, symBinAddr: 0x1000409D8, symSize: 0x2C }
  - { offsetInCU: 0x195C7, offset: 0x8CF64, size: 0x8, addend: 0x0, symName: __ZNSt3__112__hash_tableINS_17__hash_value_typeINS_12basic_stringIcNS_11char_traitsIcEENS_9allocatorIcEEEEP5ModelEENS_22__unordered_map_hasherIS7_SA_NS_4hashIS7_EENS_8equal_toIS7_EELb1EEENS_21__unordered_map_equalIS7_SA_SF_SD_Lb1EEENS5_ISA_EEEC1Ev, symObjAddr: 0x18910, symBinAddr: 0x100040A04, symSize: 0x2C }
  - { offsetInCU: 0x195F3, offset: 0x8CF90, size: 0x8, addend: 0x0, symName: __ZNSt3__112__hash_tableINS_17__hash_value_typeINS_12basic_stringIcNS_11char_traitsIcEENS_9allocatorIcEEEEP5ModelEENS_22__unordered_map_hasherIS7_SA_NS_4hashIS7_EENS_8equal_toIS7_EELb1EEENS_21__unordered_map_equalIS7_SA_SF_SD_Lb1EEENS5_ISA_EEEC2Ev, symObjAddr: 0x1893C, symBinAddr: 0x100040A30, symSize: 0x38C }
  - { offsetInCU: 0x19620, offset: 0x8CFBD, size: 0x8, addend: 0x0, symName: __ZNSt3__110unique_ptrIA_PNS_16__hash_node_baseIPNS_11__hash_nodeINS_17__hash_value_typeINS_12basic_stringIcNS_11char_traitsIcEENS_9allocatorIcEEEEP5ModelEEPvEEEENS_25__bucket_list_deallocatorINS7_ISH_EEEEEC1B8ue170006ILb1EvEEv, symObjAddr: 0x18CC8, symBinAddr: 0x100040DBC, symSize: 0x2C }
  - { offsetInCU: 0x19655, offset: 0x8CFF2, size: 0x8, addend: 0x0, symName: __ZNSt3__117__compressed_pairINS_16__hash_node_baseIPNS_11__hash_nodeINS_17__hash_value_typeINS_12basic_stringIcNS_11char_traitsIcEENS_9allocatorIcEEEEP5ModelEEPvEEEENS7_ISE_EEEC1B8ue170006ILb1EvEEv, symObjAddr: 0x18CF4, symBinAddr: 0x100040DE8, symSize: 0x2C }
  - { offsetInCU: 0x1968A, offset: 0x8D027, size: 0x8, addend: 0x0, symName: __ZNSt3__117__compressed_pairImNS_22__unordered_map_hasherINS_12basic_stringIcNS_11char_traitsIcEENS_9allocatorIcEEEENS_17__hash_value_typeIS7_P5ModelEENS_4hashIS7_EENS_8equal_toIS7_EELb1EEEEC1B8ue170006IiNS_18__default_init_tagEEEOT_OT0_, symObjAddr: 0x18D20, symBinAddr: 0x100040E14, symSize: 0x3C }
  - { offsetInCU: 0x196E2, offset: 0x8D07F, size: 0x8, addend: 0x0, symName: __ZNSt3__117__compressed_pairIfNS_21__unordered_map_equalINS_12basic_stringIcNS_11char_traitsIcEENS_9allocatorIcEEEENS_17__hash_value_typeIS7_P5ModelEENS_8equal_toIS7_EENS_4hashIS7_EELb1EEEEC1B8ue170006IfNS_18__default_init_tagEEEOT_OT0_, symObjAddr: 0x18D5C, symBinAddr: 0x100040E50, symSize: 0x3C }
  - { offsetInCU: 0x1973A, offset: 0x8D0D7, size: 0x8, addend: 0x0, symName: __ZNSt3__110unique_ptrIA_PNS_16__hash_node_baseIPNS_11__hash_nodeINS_17__hash_value_typeINS_12basic_stringIcNS_11char_traitsIcEENS_9allocatorIcEEEEP5ModelEEPvEEEENS_25__bucket_list_deallocatorINS7_ISH_EEEEEC2B8ue170006ILb1EvEEv, symObjAddr: 0x18D98, symBinAddr: 0x100040E8C, symSize: 0x200 }
  - { offsetInCU: 0x19770, offset: 0x8D10D, size: 0x8, addend: 0x0, symName: __ZNSt3__117__compressed_pairIPPNS_16__hash_node_baseIPNS_11__hash_nodeINS_17__hash_value_typeINS_12basic_stringIcNS_11char_traitsIcEENS_9allocatorIcEEEEP5ModelEEPvEEEENS_25__bucket_list_deallocatorINS7_ISH_EEEEEC1B8ue170006INS_16__value_init_tagESO_EEOT_OT0_, symObjAddr: 0x18F98, symBinAddr: 0x10004108C, symSize: 0x3C }
  - { offsetInCU: 0x197C8, offset: 0x8D165, size: 0x8, addend: 0x0, symName: __ZNSt3__117__compressed_pairIPPNS_16__hash_node_baseIPNS_11__hash_nodeINS_17__hash_value_typeINS_12basic_stringIcNS_11char_traitsIcEENS_9allocatorIcEEEEP5ModelEEPvEEEENS_25__bucket_list_deallocatorINS7_ISH_EEEEEC2B8ue170006INS_16__value_init_tagESO_EEOT_OT0_, symObjAddr: 0x18FD4, symBinAddr: 0x1000410C8, symSize: 0x40 }
  - { offsetInCU: 0x19820, offset: 0x8D1BD, size: 0x8, addend: 0x0, symName: __ZNSt3__122__compressed_pair_elemIPPNS_16__hash_node_baseIPNS_11__hash_nodeINS_17__hash_value_typeINS_12basic_stringIcNS_11char_traitsIcEENS_9allocatorIcEEEEP5ModelEEPvEEEELi0ELb0EEC2B8ue170006ENS_16__value_init_tagE, symObjAddr: 0x19014, symBinAddr: 0x100041108, symSize: 0x60 }
  - { offsetInCU: 0x19855, offset: 0x8D1F2, size: 0x8, addend: 0x0, symName: __ZNSt3__122__compressed_pair_elemINS_25__bucket_list_deallocatorINS_9allocatorIPNS_16__hash_node_baseIPNS_11__hash_nodeINS_17__hash_value_typeINS_12basic_stringIcNS_11char_traitsIcEENS2_IcEEEEP5ModelEEPvEEEEEEEELi1ELb0EEC2B8ue170006ENS_16__value_init_tagE, symObjAddr: 0x19074, symBinAddr: 0x100041168, symSize: 0x2C }
  - { offsetInCU: 0x1988A, offset: 0x8D227, size: 0x8, addend: 0x0, symName: __ZNSt3__125__bucket_list_deallocatorINS_9allocatorIPNS_16__hash_node_baseIPNS_11__hash_nodeINS_17__hash_value_typeINS_12basic_stringIcNS_11char_traitsIcEENS1_IcEEEEP5ModelEEPvEEEEEEEC1B8ue170006Ev, symObjAddr: 0x190A0, symBinAddr: 0x100041194, symSize: 0x2C }
  - { offsetInCU: 0x198B4, offset: 0x8D251, size: 0x8, addend: 0x0, symName: __ZNSt3__125__bucket_list_deallocatorINS_9allocatorIPNS_16__hash_node_baseIPNS_11__hash_nodeINS_17__hash_value_typeINS_12basic_stringIcNS_11char_traitsIcEENS1_IcEEEEP5ModelEEPvEEEEEEEC2B8ue170006Ev, symObjAddr: 0x190CC, symBinAddr: 0x1000411C0, symSize: 0x270 }
  - { offsetInCU: 0x198DF, offset: 0x8D27C, size: 0x8, addend: 0x0, symName: __ZNSt3__117__compressed_pairImNS_9allocatorIPNS_16__hash_node_baseIPNS_11__hash_nodeINS_17__hash_value_typeINS_12basic_stringIcNS_11char_traitsIcEENS1_IcEEEEP5ModelEEPvEEEEEEEC1B8ue170006IiNS_18__default_init_tagEEEOT_OT0_, symObjAddr: 0x1933C, symBinAddr: 0x100041430, symSize: 0x3C }
  - { offsetInCU: 0x19937, offset: 0x8D2D4, size: 0x8, addend: 0x0, symName: __ZNSt3__117__compressed_pairImNS_9allocatorIPNS_16__hash_node_baseIPNS_11__hash_nodeINS_17__hash_value_typeINS_12basic_stringIcNS_11char_traitsIcEENS1_IcEEEEP5ModelEEPvEEEEEEEC2B8ue170006IiNS_18__default_init_tagEEEOT_OT0_, symObjAddr: 0x19378, symBinAddr: 0x10004146C, symSize: 0x40 }
  - { offsetInCU: 0x1998F, offset: 0x8D32C, size: 0x8, addend: 0x0, symName: __ZNSt3__122__compressed_pair_elemINS_9allocatorIPNS_16__hash_node_baseIPNS_11__hash_nodeINS_17__hash_value_typeINS_12basic_stringIcNS_11char_traitsIcEENS1_IcEEEEP5ModelEEPvEEEEEELi1ELb1EEC2B8ue170006ENS_18__default_init_tagE, symObjAddr: 0x193B8, symBinAddr: 0x1000414AC, symSize: 0x2C }
  - { offsetInCU: 0x199C4, offset: 0x8D361, size: 0x8, addend: 0x0, symName: __ZNSt3__19allocatorIPNS_16__hash_node_baseIPNS_11__hash_nodeINS_17__hash_value_typeINS_12basic_stringIcNS_11char_traitsIcEENS0_IcEEEEP5ModelEEPvEEEEEC2B8ue170006Ev, symObjAddr: 0x193E4, symBinAddr: 0x1000414D8, symSize: 0x2C }
  - { offsetInCU: 0x199EE, offset: 0x8D38B, size: 0x8, addend: 0x0, symName: __ZNSt3__116__non_trivial_ifILb1ENS_9allocatorIPNS_16__hash_node_baseIPNS_11__hash_nodeINS_17__hash_value_typeINS_12basic_stringIcNS_11char_traitsIcEENS1_IcEEEEP5ModelEEPvEEEEEEEC2B8ue170006Ev, symObjAddr: 0x19410, symBinAddr: 0x100041504, symSize: 0x14 }
  - { offsetInCU: 0x19A18, offset: 0x8D3B5, size: 0x8, addend: 0x0, symName: __ZNSt3__117__compressed_pairINS_16__hash_node_baseIPNS_11__hash_nodeINS_17__hash_value_typeINS_12basic_stringIcNS_11char_traitsIcEENS_9allocatorIcEEEEP5ModelEEPvEEEENS7_ISE_EEEC2B8ue170006ILb1EvEEv, symObjAddr: 0x19424, symBinAddr: 0x100041518, symSize: 0x34 }
  - { offsetInCU: 0x19A4D, offset: 0x8D3EA, size: 0x8, addend: 0x0, symName: __ZNSt3__122__compressed_pair_elemINS_16__hash_node_baseIPNS_11__hash_nodeINS_17__hash_value_typeINS_12basic_stringIcNS_11char_traitsIcEENS_9allocatorIcEEEEP5ModelEEPvEEEELi0ELb0EEC2B8ue170006ENS_16__value_init_tagE, symObjAddr: 0x19458, symBinAddr: 0x10004154C, symSize: 0x2C }
  - { offsetInCU: 0x19A82, offset: 0x8D41F, size: 0x8, addend: 0x0, symName: __ZNSt3__122__compressed_pair_elemINS_9allocatorINS_11__hash_nodeINS_17__hash_value_typeINS_12basic_stringIcNS_11char_traitsIcEENS1_IcEEEEP5ModelEEPvEEEELi1ELb1EEC2B8ue170006ENS_16__value_init_tagE, symObjAddr: 0x19484, symBinAddr: 0x100041578, symSize: 0x2C }
  - { offsetInCU: 0x19AB7, offset: 0x8D454, size: 0x8, addend: 0x0, symName: __ZNSt3__116__hash_node_baseIPNS_11__hash_nodeINS_17__hash_value_typeINS_12basic_stringIcNS_11char_traitsIcEENS_9allocatorIcEEEEP5ModelEEPvEEEC1B8ue170006Ev, symObjAddr: 0x194B0, symBinAddr: 0x1000415A4, symSize: 0x2C }
  - { offsetInCU: 0x19AE1, offset: 0x8D47E, size: 0x8, addend: 0x0, symName: __ZNSt3__116__hash_node_baseIPNS_11__hash_nodeINS_17__hash_value_typeINS_12basic_stringIcNS_11char_traitsIcEENS_9allocatorIcEEEEP5ModelEEPvEEEC2B8ue170006Ev, symObjAddr: 0x194DC, symBinAddr: 0x1000415D0, symSize: 0x60 }
  - { offsetInCU: 0x19B0B, offset: 0x8D4A8, size: 0x8, addend: 0x0, symName: __ZNSt3__19allocatorINS_11__hash_nodeINS_17__hash_value_typeINS_12basic_stringIcNS_11char_traitsIcEENS0_IcEEEEP5ModelEEPvEEEC2B8ue170006Ev, symObjAddr: 0x1953C, symBinAddr: 0x100041630, symSize: 0x2C }
  - { offsetInCU: 0x19B35, offset: 0x8D4D2, size: 0x8, addend: 0x0, symName: __ZNSt3__116__non_trivial_ifILb1ENS_9allocatorINS_11__hash_nodeINS_17__hash_value_typeINS_12basic_stringIcNS_11char_traitsIcEENS1_IcEEEEP5ModelEEPvEEEEEC2B8ue170006Ev, symObjAddr: 0x19568, symBinAddr: 0x10004165C, symSize: 0x14 }
  - { offsetInCU: 0x19B5F, offset: 0x8D4FC, size: 0x8, addend: 0x0, symName: __ZNSt3__117__compressed_pairImNS_22__unordered_map_hasherINS_12basic_stringIcNS_11char_traitsIcEENS_9allocatorIcEEEENS_17__hash_value_typeIS7_P5ModelEENS_4hashIS7_EENS_8equal_toIS7_EELb1EEEEC2B8ue170006IiNS_18__default_init_tagEEEOT_OT0_, symObjAddr: 0x1957C, symBinAddr: 0x100041670, symSize: 0x40 }
  - { offsetInCU: 0x19BB7, offset: 0x8D554, size: 0x8, addend: 0x0, symName: __ZNSt3__122__compressed_pair_elemINS_22__unordered_map_hasherINS_12basic_stringIcNS_11char_traitsIcEENS_9allocatorIcEEEENS_17__hash_value_typeIS7_P5ModelEENS_4hashIS7_EENS_8equal_toIS7_EELb1EEELi1ELb1EEC2B8ue170006ENS_18__default_init_tagE, symObjAddr: 0x195BC, symBinAddr: 0x1000416B0, symSize: 0x2C }
  - { offsetInCU: 0x19BEC, offset: 0x8D589, size: 0x8, addend: 0x0, symName: __ZNSt3__122__unordered_map_hasherINS_12basic_stringIcNS_11char_traitsIcEENS_9allocatorIcEEEENS_17__hash_value_typeIS6_P5ModelEENS_4hashIS6_EENS_8equal_toIS6_EELb1EEC2B8ue170006Ev, symObjAddr: 0x195E8, symBinAddr: 0x1000416DC, symSize: 0x14 }
  - { offsetInCU: 0x19C16, offset: 0x8D5B3, size: 0x8, addend: 0x0, symName: __ZNSt3__117__compressed_pairIfNS_21__unordered_map_equalINS_12basic_stringIcNS_11char_traitsIcEENS_9allocatorIcEEEENS_17__hash_value_typeIS7_P5ModelEENS_8equal_toIS7_EENS_4hashIS7_EELb1EEEEC2B8ue170006IfNS_18__default_init_tagEEEOT_OT0_, symObjAddr: 0x195FC, symBinAddr: 0x1000416F0, symSize: 0x40 }
  - { offsetInCU: 0x19C6E, offset: 0x8D60B, size: 0x8, addend: 0x0, symName: __ZNSt3__122__compressed_pair_elemINS_21__unordered_map_equalINS_12basic_stringIcNS_11char_traitsIcEENS_9allocatorIcEEEENS_17__hash_value_typeIS7_P5ModelEENS_8equal_toIS7_EENS_4hashIS7_EELb1EEELi1ELb1EEC2B8ue170006ENS_18__default_init_tagE, symObjAddr: 0x1963C, symBinAddr: 0x100041730, symSize: 0x2C }
  - { offsetInCU: 0x19CA3, offset: 0x8D640, size: 0x8, addend: 0x0, symName: __ZNSt3__121__unordered_map_equalINS_12basic_stringIcNS_11char_traitsIcEENS_9allocatorIcEEEENS_17__hash_value_typeIS6_P5ModelEENS_8equal_toIS6_EENS_4hashIS6_EELb1EEC2B8ue170006Ev, symObjAddr: 0x19668, symBinAddr: 0x10004175C, symSize: 0x14 }
  - { offsetInCU: 0x19CCD, offset: 0x8D66A, size: 0x8, addend: 0x0, symName: __ZN13UserInterfaceC2EP10GLFWwindow, symObjAddr: 0x1967C, symBinAddr: 0x100041770, symSize: 0x1A0 }
  - { offsetInCU: 0x19D05, offset: 0x8D6A2, size: 0x8, addend: 0x0, symName: __ZN6ImVec4C1Effff, symObjAddr: 0x1981C, symBinAddr: 0x100041910, symSize: 0x4C }
  - { offsetInCU: 0x19D6B, offset: 0x8D708, size: 0x8, addend: 0x0, symName: __ZN7ImGuiIOD1Ev, symObjAddr: 0x19868, symBinAddr: 0x10004195C, symSize: 0x2C }
  - { offsetInCU: 0x19D98, offset: 0x8D735, size: 0x8, addend: 0x0, symName: __ZN6ImVec4C2Effff, symObjAddr: 0x19894, symBinAddr: 0x100041988, symSize: 0x1EC }
  - { offsetInCU: 0x19DFE, offset: 0x8D79B, size: 0x8, addend: 0x0, symName: __ZN7ImGuiIOD2Ev, symObjAddr: 0x19A80, symBinAddr: 0x100041B74, symSize: 0x34 }
  - { offsetInCU: 0x19E2B, offset: 0x8D7C8, size: 0x8, addend: 0x0, symName: __ZN8ImVectorItED1Ev, symObjAddr: 0x19AB4, symBinAddr: 0x100041BA8, symSize: 0x2C }
  - { offsetInCU: 0x19E55, offset: 0x8D7F2, size: 0x8, addend: 0x0, symName: __ZN8ImVectorItED2Ev, symObjAddr: 0x19AE0, symBinAddr: 0x100041BD4, symSize: 0xDC }
  - { offsetInCU: 0x19E7F, offset: 0x8D81C, size: 0x8, addend: 0x0, symName: __ZN15SShaderResourceC2Ev, symObjAddr: 0x19BBC, symBinAddr: 0x100041CB0, symSize: 0x84 }
  - { offsetInCU: 0x19EAB, offset: 0x8D848, size: 0x8, addend: 0x0, symName: __ZN9UResourceI6ShaderEC2Ev, symObjAddr: 0x19C40, symBinAddr: 0x100041D34, symSize: 0x80 }
  - { offsetInCU: 0x19ED7, offset: 0x8D874, size: 0x8, addend: 0x0, symName: __ZNSt3__113unordered_mapINS_12basic_stringIcNS_11char_traitsIcEENS_9allocatorIcEEEEP6ShaderNS_4hashIS6_EENS_8equal_toIS6_EENS4_INS_4pairIKS6_S8_EEEEEC1B8ue170006Ev, symObjAddr: 0x19CC0, symBinAddr: 0x100041DB4, symSize: 0x2C }
  - { offsetInCU: 0x19F01, offset: 0x8D89E, size: 0x8, addend: 0x0, symName: __ZNSt3__113unordered_mapINS_12basic_stringIcNS_11char_traitsIcEENS_9allocatorIcEEEEP6ShaderNS_4hashIS6_EENS_8equal_toIS6_EENS4_INS_4pairIKS6_S8_EEEEEC2B8ue170006Ev, symObjAddr: 0x19CEC, symBinAddr: 0x100041DE0, symSize: 0x2C }
  - { offsetInCU: 0x19F2B, offset: 0x8D8C8, size: 0x8, addend: 0x0, symName: __ZNSt3__112__hash_tableINS_17__hash_value_typeINS_12basic_stringIcNS_11char_traitsIcEENS_9allocatorIcEEEEP6ShaderEENS_22__unordered_map_hasherIS7_SA_NS_4hashIS7_EENS_8equal_toIS7_EELb1EEENS_21__unordered_map_equalIS7_SA_SF_SD_Lb1EEENS5_ISA_EEEC1Ev, symObjAddr: 0x19D18, symBinAddr: 0x100041E0C, symSize: 0x2C }
  - { offsetInCU: 0x19F57, offset: 0x8D8F4, size: 0x8, addend: 0x0, symName: __ZNSt3__112__hash_tableINS_17__hash_value_typeINS_12basic_stringIcNS_11char_traitsIcEENS_9allocatorIcEEEEP6ShaderEENS_22__unordered_map_hasherIS7_SA_NS_4hashIS7_EENS_8equal_toIS7_EELb1EEENS_21__unordered_map_equalIS7_SA_SF_SD_Lb1EEENS5_ISA_EEEC2Ev, symObjAddr: 0x19D44, symBinAddr: 0x100041E38, symSize: 0x38C }
  - { offsetInCU: 0x19F84, offset: 0x8D921, size: 0x8, addend: 0x0, symName: __ZNSt3__110unique_ptrIA_PNS_16__hash_node_baseIPNS_11__hash_nodeINS_17__hash_value_typeINS_12basic_stringIcNS_11char_traitsIcEENS_9allocatorIcEEEEP6ShaderEEPvEEEENS_25__bucket_list_deallocatorINS7_ISH_EEEEEC1B8ue170006ILb1EvEEv, symObjAddr: 0x1A0D0, symBinAddr: 0x1000421C4, symSize: 0x2C }
  - { offsetInCU: 0x19FB9, offset: 0x8D956, size: 0x8, addend: 0x0, symName: __ZNSt3__117__compressed_pairINS_16__hash_node_baseIPNS_11__hash_nodeINS_17__hash_value_typeINS_12basic_stringIcNS_11char_traitsIcEENS_9allocatorIcEEEEP6ShaderEEPvEEEENS7_ISE_EEEC1B8ue170006ILb1EvEEv, symObjAddr: 0x1A0FC, symBinAddr: 0x1000421F0, symSize: 0x2C }
  - { offsetInCU: 0x19FEE, offset: 0x8D98B, size: 0x8, addend: 0x0, symName: __ZNSt3__117__compressed_pairImNS_22__unordered_map_hasherINS_12basic_stringIcNS_11char_traitsIcEENS_9allocatorIcEEEENS_17__hash_value_typeIS7_P6ShaderEENS_4hashIS7_EENS_8equal_toIS7_EELb1EEEEC1B8ue170006IiNS_18__default_init_tagEEEOT_OT0_, symObjAddr: 0x1A128, symBinAddr: 0x10004221C, symSize: 0x3C }
  - { offsetInCU: 0x1A046, offset: 0x8D9E3, size: 0x8, addend: 0x0, symName: __ZNSt3__117__compressed_pairIfNS_21__unordered_map_equalINS_12basic_stringIcNS_11char_traitsIcEENS_9allocatorIcEEEENS_17__hash_value_typeIS7_P6ShaderEENS_8equal_toIS7_EENS_4hashIS7_EELb1EEEEC1B8ue170006IfNS_18__default_init_tagEEEOT_OT0_, symObjAddr: 0x1A164, symBinAddr: 0x100042258, symSize: 0x3C }
  - { offsetInCU: 0x1A09E, offset: 0x8DA3B, size: 0x8, addend: 0x0, symName: __ZNSt3__110unique_ptrIA_PNS_16__hash_node_baseIPNS_11__hash_nodeINS_17__hash_value_typeINS_12basic_stringIcNS_11char_traitsIcEENS_9allocatorIcEEEEP6ShaderEEPvEEEENS_25__bucket_list_deallocatorINS7_ISH_EEEEEC2B8ue170006ILb1EvEEv, symObjAddr: 0x1A1A0, symBinAddr: 0x100042294, symSize: 0x200 }
  - { offsetInCU: 0x1A0D4, offset: 0x8DA71, size: 0x8, addend: 0x0, symName: __ZNSt3__117__compressed_pairIPPNS_16__hash_node_baseIPNS_11__hash_nodeINS_17__hash_value_typeINS_12basic_stringIcNS_11char_traitsIcEENS_9allocatorIcEEEEP6ShaderEEPvEEEENS_25__bucket_list_deallocatorINS7_ISH_EEEEEC1B8ue170006INS_16__value_init_tagESO_EEOT_OT0_, symObjAddr: 0x1A3A0, symBinAddr: 0x100042494, symSize: 0x3C }
  - { offsetInCU: 0x1A12C, offset: 0x8DAC9, size: 0x8, addend: 0x0, symName: __ZNSt3__117__compressed_pairIPPNS_16__hash_node_baseIPNS_11__hash_nodeINS_17__hash_value_typeINS_12basic_stringIcNS_11char_traitsIcEENS_9allocatorIcEEEEP6ShaderEEPvEEEENS_25__bucket_list_deallocatorINS7_ISH_EEEEEC2B8ue170006INS_16__value_init_tagESO_EEOT_OT0_, symObjAddr: 0x1A3DC, symBinAddr: 0x1000424D0, symSize: 0x40 }
  - { offsetInCU: 0x1A184, offset: 0x8DB21, size: 0x8, addend: 0x0, symName: __ZNSt3__122__compressed_pair_elemIPPNS_16__hash_node_baseIPNS_11__hash_nodeINS_17__hash_value_typeINS_12basic_stringIcNS_11char_traitsIcEENS_9allocatorIcEEEEP6ShaderEEPvEEEELi0ELb0EEC2B8ue170006ENS_16__value_init_tagE, symObjAddr: 0x1A41C, symBinAddr: 0x100042510, symSize: 0x60 }
  - { offsetInCU: 0x1A1B9, offset: 0x8DB56, size: 0x8, addend: 0x0, symName: __ZNSt3__122__compressed_pair_elemINS_25__bucket_list_deallocatorINS_9allocatorIPNS_16__hash_node_baseIPNS_11__hash_nodeINS_17__hash_value_typeINS_12basic_stringIcNS_11char_traitsIcEENS2_IcEEEEP6ShaderEEPvEEEEEEEELi1ELb0EEC2B8ue170006ENS_16__value_init_tagE, symObjAddr: 0x1A47C, symBinAddr: 0x100042570, symSize: 0x2C }
  - { offsetInCU: 0x1A1EE, offset: 0x8DB8B, size: 0x8, addend: 0x0, symName: __ZNSt3__125__bucket_list_deallocatorINS_9allocatorIPNS_16__hash_node_baseIPNS_11__hash_nodeINS_17__hash_value_typeINS_12basic_stringIcNS_11char_traitsIcEENS1_IcEEEEP6ShaderEEPvEEEEEEEC1B8ue170006Ev, symObjAddr: 0x1A4A8, symBinAddr: 0x10004259C, symSize: 0x2C }
  - { offsetInCU: 0x1A218, offset: 0x8DBB5, size: 0x8, addend: 0x0, symName: __ZNSt3__125__bucket_list_deallocatorINS_9allocatorIPNS_16__hash_node_baseIPNS_11__hash_nodeINS_17__hash_value_typeINS_12basic_stringIcNS_11char_traitsIcEENS1_IcEEEEP6ShaderEEPvEEEEEEEC2B8ue170006Ev, symObjAddr: 0x1A4D4, symBinAddr: 0x1000425C8, symSize: 0x270 }
  - { offsetInCU: 0x1A243, offset: 0x8DBE0, size: 0x8, addend: 0x0, symName: __ZNSt3__117__compressed_pairImNS_9allocatorIPNS_16__hash_node_baseIPNS_11__hash_nodeINS_17__hash_value_typeINS_12basic_stringIcNS_11char_traitsIcEENS1_IcEEEEP6ShaderEEPvEEEEEEEC1B8ue170006IiNS_18__default_init_tagEEEOT_OT0_, symObjAddr: 0x1A744, symBinAddr: 0x100042838, symSize: 0x3C }
  - { offsetInCU: 0x1A29B, offset: 0x8DC38, size: 0x8, addend: 0x0, symName: __ZNSt3__117__compressed_pairImNS_9allocatorIPNS_16__hash_node_baseIPNS_11__hash_nodeINS_17__hash_value_typeINS_12basic_stringIcNS_11char_traitsIcEENS1_IcEEEEP6ShaderEEPvEEEEEEEC2B8ue170006IiNS_18__default_init_tagEEEOT_OT0_, symObjAddr: 0x1A780, symBinAddr: 0x100042874, symSize: 0x40 }
  - { offsetInCU: 0x1A2F3, offset: 0x8DC90, size: 0x8, addend: 0x0, symName: __ZNSt3__122__compressed_pair_elemINS_9allocatorIPNS_16__hash_node_baseIPNS_11__hash_nodeINS_17__hash_value_typeINS_12basic_stringIcNS_11char_traitsIcEENS1_IcEEEEP6ShaderEEPvEEEEEELi1ELb1EEC2B8ue170006ENS_18__default_init_tagE, symObjAddr: 0x1A7C0, symBinAddr: 0x1000428B4, symSize: 0x2C }
  - { offsetInCU: 0x1A328, offset: 0x8DCC5, size: 0x8, addend: 0x0, symName: __ZNSt3__19allocatorIPNS_16__hash_node_baseIPNS_11__hash_nodeINS_17__hash_value_typeINS_12basic_stringIcNS_11char_traitsIcEENS0_IcEEEEP6ShaderEEPvEEEEEC2B8ue170006Ev, symObjAddr: 0x1A7EC, symBinAddr: 0x1000428E0, symSize: 0x2C }
  - { offsetInCU: 0x1A352, offset: 0x8DCEF, size: 0x8, addend: 0x0, symName: __ZNSt3__116__non_trivial_ifILb1ENS_9allocatorIPNS_16__hash_node_baseIPNS_11__hash_nodeINS_17__hash_value_typeINS_12basic_stringIcNS_11char_traitsIcEENS1_IcEEEEP6ShaderEEPvEEEEEEEC2B8ue170006Ev, symObjAddr: 0x1A818, symBinAddr: 0x10004290C, symSize: 0x14 }
  - { offsetInCU: 0x1A37C, offset: 0x8DD19, size: 0x8, addend: 0x0, symName: __ZNSt3__117__compressed_pairINS_16__hash_node_baseIPNS_11__hash_nodeINS_17__hash_value_typeINS_12basic_stringIcNS_11char_traitsIcEENS_9allocatorIcEEEEP6ShaderEEPvEEEENS7_ISE_EEEC2B8ue170006ILb1EvEEv, symObjAddr: 0x1A82C, symBinAddr: 0x100042920, symSize: 0x34 }
  - { offsetInCU: 0x1A3B1, offset: 0x8DD4E, size: 0x8, addend: 0x0, symName: __ZNSt3__122__compressed_pair_elemINS_16__hash_node_baseIPNS_11__hash_nodeINS_17__hash_value_typeINS_12basic_stringIcNS_11char_traitsIcEENS_9allocatorIcEEEEP6ShaderEEPvEEEELi0ELb0EEC2B8ue170006ENS_16__value_init_tagE, symObjAddr: 0x1A860, symBinAddr: 0x100042954, symSize: 0x2C }
  - { offsetInCU: 0x1A3E6, offset: 0x8DD83, size: 0x8, addend: 0x0, symName: __ZNSt3__122__compressed_pair_elemINS_9allocatorINS_11__hash_nodeINS_17__hash_value_typeINS_12basic_stringIcNS_11char_traitsIcEENS1_IcEEEEP6ShaderEEPvEEEELi1ELb1EEC2B8ue170006ENS_16__value_init_tagE, symObjAddr: 0x1A88C, symBinAddr: 0x100042980, symSize: 0x2C }
  - { offsetInCU: 0x1A41B, offset: 0x8DDB8, size: 0x8, addend: 0x0, symName: __ZNSt3__19allocatorINS_11__hash_nodeINS_17__hash_value_typeINS_12basic_stringIcNS_11char_traitsIcEENS0_IcEEEEP6ShaderEEPvEEEC2B8ue170006Ev, symObjAddr: 0x1A8B8, symBinAddr: 0x1000429AC, symSize: 0x2C }
  - { offsetInCU: 0x1A445, offset: 0x8DDE2, size: 0x8, addend: 0x0, symName: __ZNSt3__116__non_trivial_ifILb1ENS_9allocatorINS_11__hash_nodeINS_17__hash_value_typeINS_12basic_stringIcNS_11char_traitsIcEENS1_IcEEEEP6ShaderEEPvEEEEEC2B8ue170006Ev, symObjAddr: 0x1A8E4, symBinAddr: 0x1000429D8, symSize: 0x14 }
  - { offsetInCU: 0x1A46F, offset: 0x8DE0C, size: 0x8, addend: 0x0, symName: __ZNSt3__117__compressed_pairImNS_22__unordered_map_hasherINS_12basic_stringIcNS_11char_traitsIcEENS_9allocatorIcEEEENS_17__hash_value_typeIS7_P6ShaderEENS_4hashIS7_EENS_8equal_toIS7_EELb1EEEEC2B8ue170006IiNS_18__default_init_tagEEEOT_OT0_, symObjAddr: 0x1A8F8, symBinAddr: 0x1000429EC, symSize: 0x40 }
  - { offsetInCU: 0x1A4C7, offset: 0x8DE64, size: 0x8, addend: 0x0, symName: __ZNSt3__122__compressed_pair_elemINS_22__unordered_map_hasherINS_12basic_stringIcNS_11char_traitsIcEENS_9allocatorIcEEEENS_17__hash_value_typeIS7_P6ShaderEENS_4hashIS7_EENS_8equal_toIS7_EELb1EEELi1ELb1EEC2B8ue170006ENS_18__default_init_tagE, symObjAddr: 0x1A938, symBinAddr: 0x100042A2C, symSize: 0x2C }
  - { offsetInCU: 0x1A4FC, offset: 0x8DE99, size: 0x8, addend: 0x0, symName: __ZNSt3__122__unordered_map_hasherINS_12basic_stringIcNS_11char_traitsIcEENS_9allocatorIcEEEENS_17__hash_value_typeIS6_P6ShaderEENS_4hashIS6_EENS_8equal_toIS6_EELb1EEC2B8ue170006Ev, symObjAddr: 0x1A964, symBinAddr: 0x100042A58, symSize: 0x14 }
  - { offsetInCU: 0x1A526, offset: 0x8DEC3, size: 0x8, addend: 0x0, symName: __ZNSt3__117__compressed_pairIfNS_21__unordered_map_equalINS_12basic_stringIcNS_11char_traitsIcEENS_9allocatorIcEEEENS_17__hash_value_typeIS7_P6ShaderEENS_8equal_toIS7_EENS_4hashIS7_EELb1EEEEC2B8ue170006IfNS_18__default_init_tagEEEOT_OT0_, symObjAddr: 0x1A978, symBinAddr: 0x100042A6C, symSize: 0x40 }
  - { offsetInCU: 0x1A57E, offset: 0x8DF1B, size: 0x8, addend: 0x0, symName: __ZNSt3__122__compressed_pair_elemINS_21__unordered_map_equalINS_12basic_stringIcNS_11char_traitsIcEENS_9allocatorIcEEEENS_17__hash_value_typeIS7_P6ShaderEENS_8equal_toIS7_EENS_4hashIS7_EELb1EEELi1ELb1EEC2B8ue170006ENS_18__default_init_tagE, symObjAddr: 0x1A9B8, symBinAddr: 0x100042AAC, symSize: 0x2C }
  - { offsetInCU: 0x1A5B3, offset: 0x8DF50, size: 0x8, addend: 0x0, symName: __ZNSt3__121__unordered_map_equalINS_12basic_stringIcNS_11char_traitsIcEENS_9allocatorIcEEEENS_17__hash_value_typeIS6_P6ShaderEENS_8equal_toIS6_EENS_4hashIS6_EELb1EEC2B8ue170006Ev, symObjAddr: 0x1A9E4, symBinAddr: 0x100042AD8, symSize: 0x14 }
  - { offsetInCU: 0x1A60F, offset: 0x8DFAC, size: 0x8, addend: 0x0, symName: __ZNSt3__110unique_ptrI5SceneNS_14default_deleteIS1_EEEC1B8ue170006ILb1EvEEPS1_, symObjAddr: 0x27948, symBinAddr: 0x100042AEC, symSize: 0x34 }
  - { offsetInCU: 0x1A652, offset: 0x8DFEF, size: 0x8, addend: 0x0, symName: __ZNSt3__110unique_ptrI5SceneNS_14default_deleteIS1_EEEC2B8ue170006ILb1EvEEPS1_, symObjAddr: 0x2797C, symBinAddr: 0x100042B20, symSize: 0x260 }
  - { offsetInCU: 0x1A69A, offset: 0x8E037, size: 0x8, addend: 0x0, symName: __ZNSt3__117__compressed_pairIP5SceneNS_14default_deleteIS1_EEEC1B8ue170006IRS2_NS_16__value_init_tagEEEOT_OT0_, symObjAddr: 0x27BDC, symBinAddr: 0x100042D80, symSize: 0x3C }
  - { offsetInCU: 0x1A6F2, offset: 0x8E08F, size: 0x8, addend: 0x0, symName: __ZNSt3__117__compressed_pairIP5SceneNS_14default_deleteIS1_EEEC2B8ue170006IRS2_NS_16__value_init_tagEEEOT_OT0_, symObjAddr: 0x27C18, symBinAddr: 0x100042DBC, symSize: 0x40 }
  - { offsetInCU: 0x1A74A, offset: 0x8E0E7, size: 0x8, addend: 0x0, symName: __ZNSt3__122__compressed_pair_elemIP5SceneLi0ELb0EEC2B8ue170006IRS2_vEEOT_, symObjAddr: 0x27C58, symBinAddr: 0x100042DFC, symSize: 0xB0 }
  - { offsetInCU: 0x1A78C, offset: 0x8E129, size: 0x8, addend: 0x0, symName: __ZNSt3__110unique_ptrI5SceneNS_14default_deleteIS1_EEE7releaseB8ue170006Ev, symObjAddr: 0x27D08, symBinAddr: 0x100042EAC, symSize: 0xB8 }
  - { offsetInCU: 0x1A7C1, offset: 0x8E15E, size: 0x8, addend: 0x0, symName: __ZNSt3__110unique_ptrI5SceneNS_14default_deleteIS1_EEE11get_deleterB8ue170006Ev, symObjAddr: 0x27DC0, symBinAddr: 0x100042F64, symSize: 0x24 }
  - { offsetInCU: 0x1A7E7, offset: 0x8E184, size: 0x8, addend: 0x0, symName: __ZNKSt3__117__compressed_pairIP5SceneNS_14default_deleteIS1_EEE5firstB8ue170006Ev, symObjAddr: 0x27DE4, symBinAddr: 0x100042F88, symSize: 0x24 }
  - { offsetInCU: 0x1A80D, offset: 0x8E1AA, size: 0x8, addend: 0x0, symName: __ZNKSt3__122__compressed_pair_elemIP5SceneLi0ELb0EE5__getB8ue170006Ev, symObjAddr: 0x27E08, symBinAddr: 0x100042FAC, symSize: 0x14 }
  - { offsetInCU: 0x3F, offset: 0x8E2DB, size: 0x8, addend: 0x0, symName: __ZL13cube_vertices, symObjAddr: 0x16AA00, symBinAddr: 0x100604440, symSize: 0x0 }
  - { offsetInCU: 0x134EC, offset: 0xA1788, size: 0x8, addend: 0x0, symName: __ZNSt3__1neB8ue170006ERKNS_19__hash_map_iteratorINS_15__hash_iteratorIPNS_11__hash_nodeINS_17__hash_value_typeINS_12basic_stringIcNS_11char_traitsIcEENS_9allocatorIcEEEEP6ShaderEEPvEEEEEESJ_, symObjAddr: 0x1AD0, symBinAddr: 0x100044D6C, symSize: 0x30 }
  - { offsetInCU: 0x13529, offset: 0xA17C5, size: 0x8, addend: 0x0, symName: __ZNSt3__1eqB8ue170006IcNS_11char_traitsIcEENS_9allocatorIcEEEEbRKNS_12basic_stringIT_T0_T1_EEPKS6_, symObjAddr: 0x1B98, symBinAddr: 0x100044E00, symSize: 0xC8 }
  - { offsetInCU: 0x136C6, offset: 0xA1962, size: 0x8, addend: 0x0, symName: __ZNSt3__130__uninitialized_allocator_copyB8ue170006INS_9allocatorIfEEPfS3_S3_EET2_RT_T0_T1_S4_, symObjAddr: 0x229B4, symBinAddr: 0x10004A8B4, symSize: 0x2DC }
  - { offsetInCU: 0x1376C, offset: 0xA1A08, size: 0x8, addend: 0x0, symName: __ZNSt3__114__unwrap_rangeB8ue170006IPfS1_EENS_4pairIT0_S3_EET_S5_, symObjAddr: 0x22C90, symBinAddr: 0x10004AB90, symSize: 0x350 }
  - { offsetInCU: 0x137BA, offset: 0xA1A56, size: 0x8, addend: 0x0, symName: __ZNSt3__135__uninitialized_allocator_copy_implB8ue170006INS_9allocatorIfEEfffLPv0EEEPT2_RT_PT0_S9_S5_, symObjAddr: 0x22FE0, symBinAddr: 0x10004AEE0, symSize: 0x38 }
  - { offsetInCU: 0x1383B, offset: 0xA1AD7, size: 0x8, addend: 0x0, symName: __ZNSt3__19make_pairB8ue170006IPfS1_EENS_4pairINS_18__unwrap_ref_decayIT_E4typeENS3_IT0_E4typeEEEOS4_OS7_, symObjAddr: 0x23018, symBinAddr: 0x10004AF18, symSize: 0x20C }
  - { offsetInCU: 0x1398F, offset: 0xA1C2B, size: 0x8, addend: 0x0, symName: __ZNSt3__14copyB8ue170006IPfS1_EET0_T_S3_S2_, symObjAddr: 0x23398, symBinAddr: 0x10004B298, symSize: 0x26C }
  - { offsetInCU: 0x139EC, offset: 0xA1C88, size: 0x8, addend: 0x0, symName: __ZNSt3__16__copyB8ue170006INS_17_ClassicAlgPolicyEPfS2_S2_EENS_4pairIT0_T2_EES4_T1_S5_, symObjAddr: 0x23604, symBinAddr: 0x10004B504, symSize: 0x22C }
  - { offsetInCU: 0x13A5B, offset: 0xA1CF7, size: 0x8, addend: 0x0, symName: __ZNSt3__123__dispatch_copy_or_moveB8ue170006INS_17_ClassicAlgPolicyENS_11__copy_loopIS1_EENS_14__copy_trivialEPfS5_S5_EENS_4pairIT2_T4_EES7_T3_S8_, symObjAddr: 0x23830, symBinAddr: 0x10004B730, symSize: 0x22C }
  - { offsetInCU: 0x13ADC, offset: 0xA1D78, size: 0x8, addend: 0x0, symName: __ZNSt3__121__unwrap_and_dispatchB8ue170006INS_10__overloadINS_11__copy_loopINS_17_ClassicAlgPolicyEEENS_14__copy_trivialEEEPfS7_S7_Li0EEENS_4pairIT0_T2_EES9_T1_SA_, symObjAddr: 0x23A5C, symBinAddr: 0x10004B95C, symSize: 0x5A4 }
  - { offsetInCU: 0x13B75, offset: 0xA1E11, size: 0x8, addend: 0x0, symName: __ZNSt3__114__rewrap_rangeB8ue170006IPfS1_EET_S2_T0_, symObjAddr: 0x24230, symBinAddr: 0x10004C130, symSize: 0x2C }
  - { offsetInCU: 0x13BC1, offset: 0xA1E5D, size: 0x8, addend: 0x0, symName: __ZNSt3__119__copy_trivial_implB8ue170006IffEENS_4pairIPT_PT0_EES3_S3_S5_, symObjAddr: 0x2425C, symBinAddr: 0x10004C15C, symSize: 0x3B4 }
  - { offsetInCU: 0x13C30, offset: 0xA1ECC, size: 0x8, addend: 0x0, symName: __ZNSt3__119__constexpr_memmoveB8ue170006IffLi0EEEPT_S2_PT0_NS_15__element_countE, symObjAddr: 0x24610, symBinAddr: 0x10004C510, symSize: 0x64 }
  - { offsetInCU: 0x13C9E, offset: 0xA1F3A, size: 0x8, addend: 0x0, symName: __ZNSt3__19make_pairB8ue170006IRPfS1_EENS_4pairINS_18__unwrap_ref_decayIT_E4typeENS4_IT0_E4typeEEEOS5_OS8_, symObjAddr: 0x24674, symBinAddr: 0x10004C574, symSize: 0x20C }
  - { offsetInCU: 0x13CEF, offset: 0xA1F8B, size: 0x8, addend: 0x0, symName: __ZNSt3__122__make_exception_guardB8ue170006INS_6vectorIP9Texture2DNS_9allocatorIS3_EEE16__destroy_vectorEEENS_28__exception_guard_exceptionsIT_EES9_, symObjAddr: 0x26FE0, symBinAddr: 0x10004D144, symSize: 0x278 }
  - { offsetInCU: 0x13D28, offset: 0xA1FC4, size: 0x8, addend: 0x0, symName: __ZNSt3__119__allocate_at_leastB8ue170006INS_9allocatorIP9Texture2DEEEENS_19__allocation_resultINS_16allocator_traitsIT_E7pointerEEERS7_m, symObjAddr: 0x28268, symBinAddr: 0x10004E3CC, symSize: 0x28C }
  - { offsetInCU: 0x13D6D, offset: 0xA2009, size: 0x8, addend: 0x0, symName: __ZNSt3__130__uninitialized_allocator_copyB8ue170006INS_9allocatorIP9Texture2DEEPS3_S5_S5_EET2_RT_T0_T1_S6_, symObjAddr: 0x286E4, symBinAddr: 0x10004E848, symSize: 0x2DC }
  - { offsetInCU: 0x13E13, offset: 0xA20AF, size: 0x8, addend: 0x0, symName: __ZNSt3__114__unwrap_rangeB8ue170006IPP9Texture2DS3_EENS_4pairIT0_S5_EET_S7_, symObjAddr: 0x28C94, symBinAddr: 0x10004EDF8, symSize: 0x350 }
